ARM GAS  C:\Users\savao\AppData\Local\Temp\cc45prWf.s 			page 1


   1              		.cpu cortex-m4
   2              		.eabi_attribute 27, 1
   3              		.eabi_attribute 28, 1
   4              		.eabi_attribute 20, 1
   5              		.eabi_attribute 21, 1
   6              		.eabi_attribute 23, 3
   7              		.eabi_attribute 24, 1
   8              		.eabi_attribute 25, 1
   9              		.eabi_attribute 26, 1
  10              		.eabi_attribute 30, 1
  11              		.eabi_attribute 34, 1
  12              		.eabi_attribute 18, 4
  13              		.file	"timer.c"
  14              		.text
  15              	.Ltext0:
  16              		.cfi_sections	.debug_frame
  17              		.section	.text.TIM3_Int_Init,"ax",%progbits
  18              		.align	1
  19              		.global	TIM3_Int_Init
  20              		.arch armv7e-m
  21              		.syntax unified
  22              		.thumb
  23              		.thumb_func
  24              		.fpu fpv4-sp-d16
  26              	TIM3_Int_Init:
  27              	.LVL0:
  28              	.LFB130:
  29              		.file 1 "Core/Src/timer.c"
   1:Core/Src/timer.c **** //////////////////////////////////////////////////////////////////////////////////	 
   2:Core/Src/timer.c **** //本程序只供学习使用，未经作者许可，不得用于其它商业用途
   3:Core/Src/timer.c **** //测试硬件：单片机STM32F407VGT6,STM32F407VxT6最小系统开发板,主频168MHZ，晶振8MHZ
   4:Core/Src/timer.c **** //QDtech-TFT液晶驱动 for STM32 FSMC
   5:Core/Src/timer.c **** //Chan@ShenZhen QDtech co.,LTD
   6:Core/Src/timer.c **** //公司网站:www.qdtft.com
   7:Core/Src/timer.c **** //wiki技术资料网站：http://www.lcdwiki.com
   8:Core/Src/timer.c **** //我司提供技术支持，任何技术问题欢迎随时交流学习
   9:Core/Src/timer.c **** //固话(传真) :+86 0755-21077707 
  10:Core/Src/timer.c **** //手机: (销售)18823372746 （技术)15989313508
  11:Core/Src/timer.c **** //邮箱:(销售/订单) sales@qdtft.com  (售后/技术服务)service@qdtft.com
  12:Core/Src/timer.c **** //QQ:(售前咨询)3002706772 (技术支持)3002778157
  13:Core/Src/timer.c **** //技术交流QQ群:778679828
  14:Core/Src/timer.c **** //创建日期:2020/06/29
  15:Core/Src/timer.c **** //版本：V1.0
  16:Core/Src/timer.c **** //版权所有，盗版必究。
  17:Core/Src/timer.c **** //Copyright(C) 深圳市全动电子技术有限公司 2018-2028
  18:Core/Src/timer.c **** //All rights reserved
  19:Core/Src/timer.c **** /************************************************************************************
  20:Core/Src/timer.c **** //STM32F407VxT6最小系统开发板定时器中断示例
  21:Core/Src/timer.c **** //LED0   --->   PA1
  22:Core/Src/timer.c **** //LED1   --->   PC5
  23:Core/Src/timer.c **** *************************************************************************************/	
  24:Core/Src/timer.c ****  /* @attention
  25:Core/Src/timer.c ****   *
  26:Core/Src/timer.c ****   * THE PRESENT FIRMWARE WHICH IS FOR GUIDANCE ONLY AIMS AT PROVIDING CUSTOMERS
  27:Core/Src/timer.c ****   * WITH CODING INFORMATION REGARDING THEIR PRODUCTS IN ORDER FOR THEM TO SAVE
  28:Core/Src/timer.c ****   * TIME. AS A RESULT, QD electronic SHALL NOT BE HELD LIABLE FOR ANY
  29:Core/Src/timer.c ****   * DIRECT, INDIRECT OR CONSEQUENTIAL DAMAGES WITH RESPECT TO ANY CLAIMS ARISING
ARM GAS  C:\Users\savao\AppData\Local\Temp\cc45prWf.s 			page 2


  30:Core/Src/timer.c ****   * FROM THE CONTENT OF SUCH FIRMWARE AND/OR THE USE MADE BY CUSTOMERS OF THE
  31:Core/Src/timer.c ****   * CODING INFORMATION CONTAINED HEREIN IN CONNECTION WITH THEIR PRODUCTS.
  32:Core/Src/timer.c **** *************************************************************************************/
  33:Core/Src/timer.c **** #include "timer.h"
  34:Core/Src/timer.c **** #include "led.h"
  35:Core/Src/timer.c **** 	
  36:Core/Src/timer.c **** /*****************************************************************************
  37:Core/Src/timer.c ****  * @name       :void TIM3_Int_Init(u16 arr,u16 psc)
  38:Core/Src/timer.c ****  * @date       :2020-05-08 
  39:Core/Src/timer.c ****  * @function   :General timer 3 interrupt initialization
  40:Core/Src/timer.c ****  * @parameters :arr:the value of auto reload
  41:Core/Src/timer.c ****                 psc:clock presplitting frequency
  42:Core/Src/timer.c **** 								Timer overflow time calculation method: 
  43:Core/Src/timer.c **** 								tout=((arr+1)*(PSC+1))/Ft(us)
  44:Core/Src/timer.c **** 								Ft = timer operating frequency (MHz),this is 84MHZ
  45:Core/Src/timer.c **** 								
  46:Core/Src/timer.c ****  * @retvalue   :None
  47:Core/Src/timer.c **** ******************************************************************************/	
  48:Core/Src/timer.c **** void TIM3_Int_Init(u16 arr,u16 psc)
  49:Core/Src/timer.c **** {
  30              		.loc 1 49 1 view -0
  31              		.cfi_startproc
  32              		@ args = 0, pretend = 0, frame = 16
  33              		@ frame_needed = 0, uses_anonymous_args = 0
  34              		.loc 1 49 1 is_stmt 0 view .LVU1
  35 0000 30B5     		push	{r4, r5, lr}
  36              	.LCFI0:
  37              		.cfi_def_cfa_offset 12
  38              		.cfi_offset 4, -12
  39              		.cfi_offset 5, -8
  40              		.cfi_offset 14, -4
  41 0002 85B0     		sub	sp, sp, #20
  42              	.LCFI1:
  43              		.cfi_def_cfa_offset 32
  44 0004 0546     		mov	r5, r0
  45 0006 0C46     		mov	r4, r1
  50:Core/Src/timer.c **** 	TIM_TimeBaseInitTypeDef TIM_TimeBaseInitStructure;
  46              		.loc 1 50 2 is_stmt 1 view .LVU2
  51:Core/Src/timer.c **** 	NVIC_InitTypeDef NVIC_InitStructure;
  47              		.loc 1 51 2 view .LVU3
  52:Core/Src/timer.c **** 	RCC_APB1PeriphClockCmd(RCC_APB1Periph_TIM3,ENABLE);  ///使能TIM3时钟
  48              		.loc 1 52 2 view .LVU4
  49 0008 0121     		movs	r1, #1
  50              	.LVL1:
  51              		.loc 1 52 2 is_stmt 0 view .LVU5
  52 000a 0220     		movs	r0, #2
  53              	.LVL2:
  54              		.loc 1 52 2 view .LVU6
  55 000c FFF7FEFF 		bl	RCC_APB1PeriphClockCmd
  56              	.LVL3:
  53:Core/Src/timer.c **** 	
  54:Core/Src/timer.c ****   TIM_TimeBaseInitStructure.TIM_Period = arr; 	//自动重装载值
  57              		.loc 1 54 3 is_stmt 1 view .LVU7
  58              		.loc 1 54 40 is_stmt 0 view .LVU8
  59 0010 0295     		str	r5, [sp, #8]
  55:Core/Src/timer.c **** 	TIM_TimeBaseInitStructure.TIM_Prescaler=psc;  //定时器分频
  60              		.loc 1 55 2 is_stmt 1 view .LVU9
ARM GAS  C:\Users\savao\AppData\Local\Temp\cc45prWf.s 			page 3


  61              		.loc 1 55 41 is_stmt 0 view .LVU10
  62 0012 ADF80440 		strh	r4, [sp, #4]	@ movhi
  56:Core/Src/timer.c **** 	TIM_TimeBaseInitStructure.TIM_CounterMode=TIM_CounterMode_Up; //向上计数模式
  63              		.loc 1 56 2 is_stmt 1 view .LVU11
  64              		.loc 1 56 43 is_stmt 0 view .LVU12
  65 0016 0023     		movs	r3, #0
  66 0018 ADF80630 		strh	r3, [sp, #6]	@ movhi
  57:Core/Src/timer.c **** 	TIM_TimeBaseInitStructure.TIM_ClockDivision=TIM_CKD_DIV1; 
  67              		.loc 1 57 2 is_stmt 1 view .LVU13
  68              		.loc 1 57 45 is_stmt 0 view .LVU14
  69 001c ADF80C30 		strh	r3, [sp, #12]	@ movhi
  58:Core/Src/timer.c **** 	TIM_TimeBaseInit(TIM3,&TIM_TimeBaseInitStructure);//初始化TIM3
  70              		.loc 1 58 2 is_stmt 1 view .LVU15
  71 0020 0E4C     		ldr	r4, .L3
  72 0022 01A9     		add	r1, sp, #4
  73 0024 2046     		mov	r0, r4
  74 0026 FFF7FEFF 		bl	TIM_TimeBaseInit
  75              	.LVL4:
  59:Core/Src/timer.c **** 	TIM_ITConfig(TIM3,TIM_IT_Update,ENABLE); //允许定时器3更新中断
  76              		.loc 1 59 2 view .LVU16
  77 002a 0122     		movs	r2, #1
  78 002c 1146     		mov	r1, r2
  79 002e 2046     		mov	r0, r4
  80 0030 FFF7FEFF 		bl	TIM_ITConfig
  81              	.LVL5:
  60:Core/Src/timer.c **** 	TIM_Cmd(TIM3,ENABLE); //使能定时器3
  82              		.loc 1 60 2 view .LVU17
  83 0034 0121     		movs	r1, #1
  84 0036 2046     		mov	r0, r4
  85 0038 FFF7FEFF 		bl	TIM_Cmd
  86              	.LVL6:
  61:Core/Src/timer.c **** 	NVIC_InitStructure.NVIC_IRQChannel=TIM3_IRQn; //定时器3中断
  87              		.loc 1 61 2 view .LVU18
  88              		.loc 1 61 36 is_stmt 0 view .LVU19
  89 003c 1D23     		movs	r3, #29
  90 003e 8DF80030 		strb	r3, [sp]
  62:Core/Src/timer.c **** 	NVIC_InitStructure.NVIC_IRQChannelPreemptionPriority=0x01; //抢占优先级1
  91              		.loc 1 62 2 is_stmt 1 view .LVU20
  92              		.loc 1 62 54 is_stmt 0 view .LVU21
  93 0042 0123     		movs	r3, #1
  94 0044 8DF80130 		strb	r3, [sp, #1]
  63:Core/Src/timer.c **** 	NVIC_InitStructure.NVIC_IRQChannelSubPriority=0x03; //子优先级3
  95              		.loc 1 63 2 is_stmt 1 view .LVU22
  96              		.loc 1 63 47 is_stmt 0 view .LVU23
  97 0048 0322     		movs	r2, #3
  98 004a 8DF80220 		strb	r2, [sp, #2]
  64:Core/Src/timer.c **** 	NVIC_InitStructure.NVIC_IRQChannelCmd=ENABLE;
  99              		.loc 1 64 2 is_stmt 1 view .LVU24
 100              		.loc 1 64 39 is_stmt 0 view .LVU25
 101 004e 8DF80330 		strb	r3, [sp, #3]
  65:Core/Src/timer.c **** 	NVIC_Init(&NVIC_InitStructure);	
 102              		.loc 1 65 2 is_stmt 1 view .LVU26
 103 0052 6846     		mov	r0, sp
 104 0054 FFF7FEFF 		bl	NVIC_Init
 105              	.LVL7:
  66:Core/Src/timer.c **** }
 106              		.loc 1 66 1 is_stmt 0 view .LVU27
ARM GAS  C:\Users\savao\AppData\Local\Temp\cc45prWf.s 			page 4


 107 0058 05B0     		add	sp, sp, #20
 108              	.LCFI2:
 109              		.cfi_def_cfa_offset 12
 110              		@ sp needed
 111 005a 30BD     		pop	{r4, r5, pc}
 112              	.L4:
 113              		.align	2
 114              	.L3:
 115 005c 00040040 		.word	1073742848
 116              		.cfi_endproc
 117              	.LFE130:
 119              		.section	.text.TIM3_IRQHandler,"ax",%progbits
 120              		.align	1
 121              		.global	TIM3_IRQHandler
 122              		.syntax unified
 123              		.thumb
 124              		.thumb_func
 125              		.fpu fpv4-sp-d16
 127              	TIM3_IRQHandler:
 128              	.LFB131:
  67:Core/Src/timer.c **** 
  68:Core/Src/timer.c **** /*****************************************************************************
  69:Core/Src/timer.c ****  * @name       :void TIM3_IRQHandler(void)
  70:Core/Src/timer.c ****  * @date       :2020-05-08 
  71:Core/Src/timer.c ****  * @function   :Timer 3 interrupt service function
  72:Core/Src/timer.c ****  * @parameters :None
  73:Core/Src/timer.c ****  * @retvalue   :None
  74:Core/Src/timer.c **** ******************************************************************************/	
  75:Core/Src/timer.c **** void TIM3_IRQHandler(void)
  76:Core/Src/timer.c **** {
 129              		.loc 1 76 1 is_stmt 1 view -0
 130              		.cfi_startproc
 131              		@ args = 0, pretend = 0, frame = 0
 132              		@ frame_needed = 0, uses_anonymous_args = 0
 133 0000 08B5     		push	{r3, lr}
 134              	.LCFI3:
 135              		.cfi_def_cfa_offset 8
 136              		.cfi_offset 3, -8
 137              		.cfi_offset 14, -4
  77:Core/Src/timer.c **** 	if(TIM_GetITStatus(TIM3,TIM_IT_Update)==SET) //溢出中断
 138              		.loc 1 77 2 view .LVU29
 139              		.loc 1 77 5 is_stmt 0 view .LVU30
 140 0002 0121     		movs	r1, #1
 141 0004 0948     		ldr	r0, .L9
 142 0006 FFF7FEFF 		bl	TIM_GetITStatus
 143              	.LVL8:
 144              		.loc 1 77 4 view .LVU31
 145 000a 0128     		cmp	r0, #1
 146 000c 04D0     		beq	.L8
 147              	.L6:
  78:Core/Src/timer.c **** 	{
  79:Core/Src/timer.c **** 		LED1=!LED1;//LED1翻转
  80:Core/Src/timer.c **** 	}
  81:Core/Src/timer.c **** 	TIM_ClearITPendingBit(TIM3,TIM_IT_Update);  //清除中断标志位
 148              		.loc 1 81 2 is_stmt 1 view .LVU32
 149 000e 0121     		movs	r1, #1
 150 0010 0648     		ldr	r0, .L9
ARM GAS  C:\Users\savao\AppData\Local\Temp\cc45prWf.s 			page 5


 151 0012 FFF7FEFF 		bl	TIM_ClearITPendingBit
 152              	.LVL9:
  82:Core/Src/timer.c **** }
 153              		.loc 1 82 1 is_stmt 0 view .LVU33
 154 0016 08BD     		pop	{r3, pc}
 155              	.L8:
  79:Core/Src/timer.c **** 	}
 156              		.loc 1 79 3 is_stmt 1 view .LVU34
  79:Core/Src/timer.c **** 	}
 157              		.loc 1 79 9 is_stmt 0 view .LVU35
 158 0018 054A     		ldr	r2, .L9+4
 159 001a D2F89432 		ldr	r3, [r2, #660]
  79:Core/Src/timer.c **** 	}
 160              		.loc 1 79 8 view .LVU36
 161 001e B3FA83F3 		clz	r3, r3
 162 0022 5B09     		lsrs	r3, r3, #5
  79:Core/Src/timer.c **** 	}
 163              		.loc 1 79 7 view .LVU37
 164 0024 C2F89432 		str	r3, [r2, #660]
 165 0028 F1E7     		b	.L6
 166              	.L10:
 167 002a 00BF     		.align	2
 168              	.L9:
 169 002c 00040040 		.word	1073742848
 170 0030 00004142 		.word	1111556096
 171              		.cfi_endproc
 172              	.LFE131:
 174              		.text
 175              	.Letext0:
 176              		.file 2 "c:\\program files (x86)\\gnu arm embedded toolchain\\10 2020-q4-major\\arm-none-eabi\\inc
 177              		.file 3 "c:\\program files (x86)\\gnu arm embedded toolchain\\10 2020-q4-major\\arm-none-eabi\\inc
 178              		.file 4 "Core/Inc/stm32f4xx.h"
 179              		.file 5 "Drivers/STM32F4xx_FWLIB/inc/stm32f4xx_tim.h"
 180              		.file 6 "Drivers/STM32F4xx_FWLIB/inc/misc.h"
 181              		.file 7 "Drivers/STM32F4xx_FWLIB/inc/stm32f4xx_rcc.h"
ARM GAS  C:\Users\savao\AppData\Local\Temp\cc45prWf.s 			page 6

