ARM GAS  C:\Users\savao\AppData\Local\Temp\ccwQeQbC.s 			page 1


   1              		.cpu cortex-m4
   2              		.eabi_attribute 27, 1
   3              		.eabi_attribute 28, 1
   4              		.eabi_attribute 20, 1
   5              		.eabi_attribute 21, 1
   6              		.eabi_attribute 23, 3
   7              		.eabi_attribute 24, 1
   8              		.eabi_attribute 25, 1
   9              		.eabi_attribute 26, 1
  10              		.eabi_attribute 30, 1
  11              		.eabi_attribute 34, 1
  12              		.eabi_attribute 18, 4
  13              		.file	"main.c"
  14              		.text
  15              	.Ltext0:
  16              		.cfi_sections	.debug_frame
  17              		.section	.text.main,"ax",%progbits
  18              		.align	1
  19              		.global	main
  20              		.arch armv7e-m
  21              		.syntax unified
  22              		.thumb
  23              		.thumb_func
  24              		.fpu fpv4-sp-d16
  26              	main:
  27              	.LFB133:
  28              		.file 1 "Core/Src/main.c"
   1:Core/Src/main.c **** //////////////////////////////////////////////////////////////////////////////////	 
   2:Core/Src/main.c **** //本程序只供学习使用，未经作者许可，不得用于其它商业用途
   3:Core/Src/main.c **** //测试硬件：单片机STM32F407VGT6,STM32F407VxT6最小系统开发板,主频168MHZ，晶振8MHZ
   4:Core/Src/main.c **** //QDtech-TFT液晶驱动 for STM32 FSMC
   5:Core/Src/main.c **** //Chan@ShenZhen QDtech co.,LTD
   6:Core/Src/main.c **** //公司网站:www.qdtft.com
   7:Core/Src/main.c **** //wiki技术资料网站：http://www.lcdwiki.com
   8:Core/Src/main.c **** //我司提供技术支持，任何技术问题欢迎随时交流学习
   9:Core/Src/main.c **** //固话(传真) :+86 0755-21077707 
  10:Core/Src/main.c **** //手机: (销售)18823372746 （技术)15989313508
  11:Core/Src/main.c **** //邮箱:(销售/订单) sales@qdtft.com  (售后/技术服务)service@qdtft.com
  12:Core/Src/main.c **** //QQ:(售前咨询)3002706772 (技术支持)3002778157
  13:Core/Src/main.c **** //技术交流QQ群:778679828
  14:Core/Src/main.c **** //创建日期:2020/06/29
  15:Core/Src/main.c **** //版本：V1.0
  16:Core/Src/main.c **** //版权所有，盗版必究。
  17:Core/Src/main.c **** //Copyright(C) 深圳市全动电子技术有限公司 2018-2028
  18:Core/Src/main.c **** //All rights reserved
  19:Core/Src/main.c **** /************************************************************************************
  20:Core/Src/main.c **** //STM32F407VxT6最小系统开发板待机唤醒示例
  21:Core/Src/main.c **** //支持ILI9341/ILI9486/ILI9488/ST7793/ST7796S/R61509/NT35310/NT35510/SSD1963
  22:Core/Src/main.c **** //TFT LCD可以直接插入STM32F407VxT6最小系统开发板TFTLCD插槽或者通过排线接入TFTLCD插座
  23:Core/Src/main.c **** //     KEY_UP         --->            PA0
  24:Core/Src/main.c **** //     LED0           --->            PA1
  25:Core/Src/main.c **** //STM32连接引脚是指TFTLCD插槽或者插座引脚内部连接的STM32引脚
  26:Core/Src/main.c **** //=================================电源接线=======================================//
  27:Core/Src/main.c **** //     LCD模块                    STM32连接引脚
  28:Core/Src/main.c **** //      VDD           --->           DC5V/3.3V          //电源
  29:Core/Src/main.c **** //      GND           --->             GND              //电源地
  30:Core/Src/main.c **** //=============================液晶屏数据线接线===================================//
ARM GAS  C:\Users\savao\AppData\Local\Temp\ccwQeQbC.s 			page 2


  31:Core/Src/main.c **** //     LCD模块                    STM32连接引脚
  32:Core/Src/main.c **** //      DB0           --->            PD14        -|   
  33:Core/Src/main.c **** //      DB1           --->            PD15         |  
  34:Core/Src/main.c **** //      DB2           --->            PD0          | 
  35:Core/Src/main.c **** //      DB3           --->            PD1          | 
  36:Core/Src/main.c **** //      DB4           --->            PE7          |
  37:Core/Src/main.c **** //      DB5           --->            PE8          |
  38:Core/Src/main.c **** //      DB6           --->            PE9          |
  39:Core/Src/main.c **** //      DB7           --->            PE10         |===>液晶屏16位并口数据信号
  40:Core/Src/main.c **** //      DB8           --->            PE11         |
  41:Core/Src/main.c **** //      DB9           --->            PE12         |
  42:Core/Src/main.c **** //      DB10          --->            PE13         |
  43:Core/Src/main.c **** //      DB11          --->            PE14         |
  44:Core/Src/main.c **** //      DB12          --->            PE15         |
  45:Core/Src/main.c **** //      DB13          --->            PD8          |
  46:Core/Src/main.c **** //      DB14          --->            PD9          |
  47:Core/Src/main.c **** //      DB15          --->            PD10        -|
  48:Core/Src/main.c **** //=============================液晶屏控制线接线===================================//
  49:Core/Src/main.c **** //     LCD模块 				            STM32连接引脚 
  50:Core/Src/main.c **** //      WR            --->            PD5             //液晶屏写数据控制信号
  51:Core/Src/main.c **** //      RD            --->            PD4             //液晶屏读数据控制信号
  52:Core/Src/main.c **** //      RS            --->            PD11            //液晶屏数据/命令控制信号
  53:Core/Src/main.c **** //      RST           --->          复位引脚（默认）  //液晶屏复位控制信号（也可选择PD13）
  54:Core/Src/main.c **** //      CS            --->            PD7             //液晶屏片选控制信号
  55:Core/Src/main.c **** //      BL            --->            PB15            //液晶屏背光控制信号
  56:Core/Src/main.c **** *************************************************************************************/	
  57:Core/Src/main.c ****  /* @attention
  58:Core/Src/main.c ****   *
  59:Core/Src/main.c ****   * THE PRESENT FIRMWARE WHICH IS FOR GUIDANCE ONLY AIMS AT PROVIDING CUSTOMERS
  60:Core/Src/main.c ****   * WITH CODING INFORMATION REGARDING THEIR PRODUCTS IN ORDER FOR THEM TO SAVE
  61:Core/Src/main.c ****   * TIME. AS A RESULT, QD electronic SHALL NOT BE HELD LIABLE FOR ANY
  62:Core/Src/main.c ****   * DIRECT, INDIRECT OR CONSEQUENTIAL DAMAGES WITH RESPECT TO ANY CLAIMS ARISING
  63:Core/Src/main.c ****   * FROM THE CONTENT OF SUCH FIRMWARE AND/OR THE USE MADE BY CUSTOMERS OF THE
  64:Core/Src/main.c ****   * CODING INFORMATION CONTAINED HEREIN IN CONNECTION WITH THEIR PRODUCTS.
  65:Core/Src/main.c **** *************************************************************************************/		
  66:Core/Src/main.c **** #include "delay.h"
  67:Core/Src/main.c **** #include "sys.h"
  68:Core/Src/main.c **** #include "lcd.h"
  69:Core/Src/main.c **** #include "gui.h"
  70:Core/Src/main.c **** #include "test.h"
  71:Core/Src/main.c **** #include "usart.h"
  72:Core/Src/main.c **** #include "led.h"
  73:Core/Src/main.c **** #include "wkup.h"
  74:Core/Src/main.c **** 
  75:Core/Src/main.c **** int main(void)
  76:Core/Src/main.c **** {	
  29              		.loc 1 76 1 view -0
  30              		.cfi_startproc
  31              		@ Volatile: function does not return.
  32              		@ args = 0, pretend = 0, frame = 0
  33              		@ frame_needed = 0, uses_anonymous_args = 0
  34 0000 08B5     		push	{r3, lr}
  35              	.LCFI0:
  36              		.cfi_def_cfa_offset 8
  37              		.cfi_offset 3, -8
  38              		.cfi_offset 14, -4
  77:Core/Src/main.c **** 	NVIC_PriorityGroupConfig(NVIC_PriorityGroup_2);//设置系统中断优先级分组2
ARM GAS  C:\Users\savao\AppData\Local\Temp\ccwQeQbC.s 			page 3


  39              		.loc 1 77 2 view .LVU1
  40 0002 4FF4A060 		mov	r0, #1280
  41 0006 FFF7FEFF 		bl	NVIC_PriorityGroupConfig
  42              	.LVL0:
  78:Core/Src/main.c **** 	delay_init(168);             //初始化延时函数
  43              		.loc 1 78 2 view .LVU2
  44 000a A820     		movs	r0, #168
  45 000c FFF7FEFF 		bl	delay_init
  46              	.LVL1:
  79:Core/Src/main.c **** 	USART1_Init(115200);         //串口1初始化
  47              		.loc 1 79 2 view .LVU3
  48 0010 4FF4E130 		mov	r0, #115200
  49 0014 FFF7FEFF 		bl	USART1_Init
  50              	.LVL2:
  80:Core/Src/main.c **** 	LED_Init();                  //初始化LED
  51              		.loc 1 80 2 view .LVU4
  52 0018 FFF7FEFF 		bl	LED_Init
  53              	.LVL3:
  81:Core/Src/main.c **** 	LCD_Init();	                 //液晶屏初始化
  54              		.loc 1 81 2 view .LVU5
  55 001c FFF7FEFF 		bl	LCD_Init
  56              	.LVL4:
  82:Core/Src/main.c **** 	WKUP_Init();                 //wake up初始化
  57              		.loc 1 82 2 view .LVU6
  58 0020 FFF7FEFF 		bl	WKUP_Init
  59              	.LVL5:
  83:Core/Src/main.c **** 	wakeup_test();               //wake up test显示
  60              		.loc 1 83 2 view .LVU7
  61 0024 FFF7FEFF 		bl	wakeup_test
  62              	.LVL6:
  63              	.L2:
  84:Core/Src/main.c ****   //循环测试
  85:Core/Src/main.c **** 	while(1)
  64              		.loc 1 85 2 discriminator 1 view .LVU8
  86:Core/Src/main.c **** 	{
  87:Core/Src/main.c **** 		LED0=!LED0;
  65              		.loc 1 87 3 discriminator 1 view .LVU9
  66              		.loc 1 87 9 is_stmt 0 discriminator 1 view .LVU10
  67 0028 054A     		ldr	r2, .L4
  68 002a D2F88432 		ldr	r3, [r2, #644]
  69              		.loc 1 87 8 discriminator 1 view .LVU11
  70 002e B3FA83F3 		clz	r3, r3
  71 0032 5B09     		lsrs	r3, r3, #5
  72              		.loc 1 87 7 discriminator 1 view .LVU12
  73 0034 C2F88432 		str	r3, [r2, #644]
  88:Core/Src/main.c **** 		delay_ms(250);//延时250ms
  74              		.loc 1 88 3 is_stmt 1 discriminator 1 view .LVU13
  75 0038 FA20     		movs	r0, #250
  76 003a FFF7FEFF 		bl	delay_ms
  77              	.LVL7:
  85:Core/Src/main.c **** 	{
  78              		.loc 1 85 7 discriminator 1 view .LVU14
  79 003e F3E7     		b	.L2
  80              	.L5:
  81              		.align	2
  82              	.L4:
  83 0040 00004042 		.word	1111490560
ARM GAS  C:\Users\savao\AppData\Local\Temp\ccwQeQbC.s 			page 4


  84              		.cfi_endproc
  85              	.LFE133:
  87              		.text
  88              	.Letext0:
  89              		.file 2 "c:\\program files (x86)\\gnu arm embedded toolchain\\10 2020-q4-major\\arm-none-eabi\\inc
  90              		.file 3 "c:\\program files (x86)\\gnu arm embedded toolchain\\10 2020-q4-major\\arm-none-eabi\\inc
  91              		.file 4 "Drivers/STM32F4xx_FWLIB/inc/misc.h"
  92              		.file 5 "Core/Inc/delay.h"
  93              		.file 6 "Core/Inc/usart.h"
  94              		.file 7 "Core/Inc/led.h"
  95              		.file 8 "Core/Inc/lcd.h"
  96              		.file 9 "Core/Inc/wkup.h"
  97              		.file 10 "Core/Inc/test.h"
ARM GAS  C:\Users\savao\AppData\Local\Temp\ccwQeQbC.s 			page 5


DEFINED SYMBOLS
                            *ABS*:00000000 main.c
C:\Users\savao\AppData\Local\Temp\ccwQeQbC.s:18     .text.main:00000000 $t
C:\Users\savao\AppData\Local\Temp\ccwQeQbC.s:26     .text.main:00000000 main
C:\Users\savao\AppData\Local\Temp\ccwQeQbC.s:83     .text.main:00000040 $d

UNDEFINED SYMBOLS
NVIC_PriorityGroupConfig
delay_init
USART1_Init
LED_Init
LCD_Init
WKUP_Init
wakeup_test
delay_ms
