ARM GAS  C:\Users\savao\AppData\Local\Temp\cchWCIjp.s 			page 1


   1              		.cpu cortex-m4
   2              		.eabi_attribute 27, 1
   3              		.eabi_attribute 28, 1
   4              		.eabi_attribute 20, 1
   5              		.eabi_attribute 21, 1
   6              		.eabi_attribute 23, 3
   7              		.eabi_attribute 24, 1
   8              		.eabi_attribute 25, 1
   9              		.eabi_attribute 26, 1
  10              		.eabi_attribute 30, 1
  11              		.eabi_attribute 34, 1
  12              		.eabi_attribute 18, 4
  13              		.file	"test.c"
  14              		.text
  15              	.Ltext0:
  16              		.cfi_sections	.debug_frame
  17              		.section	.rodata.wakeup_test.str1.4,"aMS",%progbits,1
  18              		.align	2
  19              	.LC0:
  20 0000 77616B65 		.ascii	"wake up test\015\000"
  20      20757020 
  20      74657374 
  20      0D00
  21 000e 0000     		.align	2
  22              	.LC1:
  23 0010 53544D33 		.ascii	"STM32F407VxT6\327\356\320\241\317\265\315\263\277\252"
  23      32463430 
  23      37567854 
  23      36D7EED0 
  23      A1CFB5CD 
  24 0027 B7A2B0E5 		.ascii	"\267\242\260\345\000"
  24      00
  25              		.align	2
  26              	.LC2:
  27 002c 57414B45 		.ascii	"WAKE UP \262\342\312\324\263\314\320\362\000"
  27      20555020 
  27      B2E2CAD4 
  27      B3CCD0F2 
  27      00
  28 003d 000000   		.align	2
  29              	.LC3:
  30 0040 70726573 		.ascii	"press KEY_UP 3s\000"
  30      73204B45 
  30      595F5550 
  30      20337300 
  31              		.align	2
  32              	.LC4:
  33 0050 666F7220 		.ascii	"for stand by/wake up\000"
  33      7374616E 
  33      64206279 
  33      2F77616B 
  33      65207570 
  34 0065 000000   		.align	2
  35              	.LC5:
  36 0068 32303230 		.ascii	"2020-06-05\000"
  36      2D30362D 
  36      303500
ARM GAS  C:\Users\savao\AppData\Local\Temp\cchWCIjp.s 			page 2


  37 0073 00       		.align	2
  38              	.LC6:
  39 0074 68747470 		.ascii	"http://www.lcdwiki.com\000"
  39      3A2F2F77 
  39      77772E6C 
  39      63647769 
  39      6B692E63 
  40              		.section	.text.wakeup_test,"ax",%progbits
  41              		.align	1
  42              		.global	wakeup_test
  43              		.arch armv7e-m
  44              		.syntax unified
  45              		.thumb
  46              		.thumb_func
  47              		.fpu fpv4-sp-d16
  49              	wakeup_test:
  50              	.LFB133:
  51              		.file 1 "Core/Src/test.c"
   1:Core/Src/test.c **** //////////////////////////////////////////////////////////////////////////////////	 
   2:Core/Src/test.c **** //本程序只供学习使用，未经作者许可，不得用于其它商业用途
   3:Core/Src/test.c **** //测试硬件：单片机STM32F407VGT6,STM32F407VxT6最小系统开发板,主频168MHZ，晶振8MHZ
   4:Core/Src/test.c **** //QDtech-TFT液晶驱动 for STM32 FSMC
   5:Core/Src/test.c **** //Chan@ShenZhen QDtech co.,LTD
   6:Core/Src/test.c **** //公司网站:www.qdtft.com
   7:Core/Src/test.c **** //wiki技术资料网站：http://www.lcdwiki.com
   8:Core/Src/test.c **** //我司提供技术支持，任何技术问题欢迎随时交流学习
   9:Core/Src/test.c **** //固话(传真) :+86 0755-21077707 
  10:Core/Src/test.c **** //手机: (销售)18823372746 （技术)15989313508
  11:Core/Src/test.c **** //邮箱:(销售/订单) sales@qdtft.com  (售后/技术服务)service@qdtft.com
  12:Core/Src/test.c **** //QQ:(售前咨询)3002706772 (技术支持)3002778157
  13:Core/Src/test.c **** //技术交流QQ群:778679828
  14:Core/Src/test.c **** //创建日期:2020/06/29
  15:Core/Src/test.c **** //版本：V1.0
  16:Core/Src/test.c **** //版权所有，盗版必究。
  17:Core/Src/test.c **** //Copyright(C) 深圳市全动电子技术有限公司 2018-2028
  18:Core/Src/test.c **** //All rights reserved
  19:Core/Src/test.c **** /************************************************************************************
  20:Core/Src/test.c **** //STM32F407VxT6最小系统开发板待机唤醒示例
  21:Core/Src/test.c **** //支持ILI9341/ILI9486/ILI9488/ST7793/ST7796S/R61509/NT35310/NT35510/SSD1963
  22:Core/Src/test.c **** //TFT LCD可以直接插入STM32F407VxT6最小系统开发板TFTLCD插槽或者通过排线接入TFTLCD插座
  23:Core/Src/test.c **** //     KEY_UP         --->            PA0
  24:Core/Src/test.c **** //     LED0           --->            PA1
  25:Core/Src/test.c **** //STM32连接引脚是指TFTLCD插槽或者插座引脚内部连接的STM32引脚
  26:Core/Src/test.c **** //=================================电源接线=======================================//
  27:Core/Src/test.c **** //     LCD模块                    STM32连接引脚
  28:Core/Src/test.c **** //      VDD           --->           DC5V/3.3V          //电源
  29:Core/Src/test.c **** //      GND           --->             GND              //电源地
  30:Core/Src/test.c **** //=============================液晶屏数据线接线===================================//
  31:Core/Src/test.c **** //     LCD模块                    STM32连接引脚
  32:Core/Src/test.c **** //      DB0           --->            PD14        -|   
  33:Core/Src/test.c **** //      DB1           --->            PD15         |  
  34:Core/Src/test.c **** //      DB2           --->            PD0          | 
  35:Core/Src/test.c **** //      DB3           --->            PD1          | 
  36:Core/Src/test.c **** //      DB4           --->            PE7          |
  37:Core/Src/test.c **** //      DB5           --->            PE8          |
  38:Core/Src/test.c **** //      DB6           --->            PE9          |
  39:Core/Src/test.c **** //      DB7           --->            PE10         |===>液晶屏16位并口数据信号
ARM GAS  C:\Users\savao\AppData\Local\Temp\cchWCIjp.s 			page 3


  40:Core/Src/test.c **** //      DB8           --->            PE11         |
  41:Core/Src/test.c **** //      DB9           --->            PE12         |
  42:Core/Src/test.c **** //      DB10          --->            PE13         |
  43:Core/Src/test.c **** //      DB11          --->            PE14         |
  44:Core/Src/test.c **** //      DB12          --->            PE15         |
  45:Core/Src/test.c **** //      DB13          --->            PD8          |
  46:Core/Src/test.c **** //      DB14          --->            PD9          |
  47:Core/Src/test.c **** //      DB15          --->            PD10        -|
  48:Core/Src/test.c **** //=============================液晶屏控制线接线===================================//
  49:Core/Src/test.c **** //     LCD模块 				            STM32连接引脚 
  50:Core/Src/test.c **** //      WR            --->            PD5             //液晶屏写数据控制信号
  51:Core/Src/test.c **** //      RD            --->            PD4             //液晶屏读数据控制信号
  52:Core/Src/test.c **** //      RS            --->            PD11            //液晶屏数据/命令控制信号
  53:Core/Src/test.c **** //      RST           --->          复位引脚（默认）  //液晶屏复位控制信号（也可选择PD13）
  54:Core/Src/test.c **** //      CS            --->            PD7             //液晶屏片选控制信号
  55:Core/Src/test.c **** //      BL            --->            PB15            //液晶屏背光控制信号
  56:Core/Src/test.c **** *************************************************************************************/	
  57:Core/Src/test.c ****  /* @attention
  58:Core/Src/test.c ****   *
  59:Core/Src/test.c ****   * THE PRESENT FIRMWARE WHICH IS FOR GUIDANCE ONLY AIMS AT PROVIDING CUSTOMERS
  60:Core/Src/test.c ****   * WITH CODING INFORMATION REGARDING THEIR PRODUCTS IN ORDER FOR THEM TO SAVE
  61:Core/Src/test.c ****   * TIME. AS A RESULT, QD electronic SHALL NOT BE HELD LIABLE FOR ANY
  62:Core/Src/test.c ****   * DIRECT, INDIRECT OR CONSEQUENTIAL DAMAGES WITH RESPECT TO ANY CLAIMS ARISING
  63:Core/Src/test.c ****   * FROM THE CONTENT OF SUCH FIRMWARE AND/OR THE USE MADE BY CUSTOMERS OF THE
  64:Core/Src/test.c ****   * CODING INFORMATION CONTAINED HEREIN IN CONNECTION WITH THEIR PRODUCTS.
  65:Core/Src/test.c **** *************************************************************************************/	
  66:Core/Src/test.c **** #include <stdio.h>
  67:Core/Src/test.c **** #include <string.h>
  68:Core/Src/test.c **** #include "lcd.h"
  69:Core/Src/test.c **** #include "delay.h"
  70:Core/Src/test.c **** #include "gui.h"
  71:Core/Src/test.c **** #include "test.h"
  72:Core/Src/test.c **** #include "led.h"
  73:Core/Src/test.c **** #include "pic.h"
  74:Core/Src/test.c **** #include "usart.h" 
  75:Core/Src/test.c **** 
  76:Core/Src/test.c **** #if 0
  77:Core/Src/test.c **** //========================variable==========================//
  78:Core/Src/test.c **** u16 ColorTab[5]={RED,GREEN,BLUE,YELLOW,BRED};//定义颜色数组
  79:Core/Src/test.c **** u16 ColornTab[8]={RED,MAGENTA,GREEN,DARKBLUE,BLUE,BLACK,LIGHTGREEN};
  80:Core/Src/test.c **** //=====================end of variable======================//
  81:Core/Src/test.c **** 
  82:Core/Src/test.c **** /*****************************************************************************
  83:Core/Src/test.c ****  * @name       :void DrawTestPage(u8 *str)
  84:Core/Src/test.c ****  * @date       :2018-08-09 
  85:Core/Src/test.c ****  * @function   :Drawing test interface
  86:Core/Src/test.c ****  * @parameters :str:the start address of the Chinese and English strings
  87:Core/Src/test.c ****  * @retvalue   :None
  88:Core/Src/test.c **** ******************************************************************************/ 
  89:Core/Src/test.c **** void DrawTestPage(u8 *str)
  90:Core/Src/test.c **** {
  91:Core/Src/test.c **** POINT_COLOR=WHITE;
  92:Core/Src/test.c **** //绘制固定栏up
  93:Core/Src/test.c **** LCD_Fill(0,0,lcddev.width,20,BLUE);
  94:Core/Src/test.c **** Gui_StrCenter(0,2,WHITE,BLUE,str,16,1);//居中显示
  95:Core/Src/test.c **** //绘制固定栏down
  96:Core/Src/test.c **** LCD_Fill(0,lcddev.height-20,lcddev.width-1,lcddev.height-1,BLUE);
ARM GAS  C:\Users\savao\AppData\Local\Temp\cchWCIjp.s 			page 4


  97:Core/Src/test.c **** Gui_StrCenter(0,lcddev.height-18,WHITE,BLUE,"http://www.lcdwiki.com",16,1);//居中显示
  98:Core/Src/test.c **** //绘制测试区域
  99:Core/Src/test.c **** LCD_Fill(0,21,lcddev.width-1,lcddev.height-21,WHITE);
 100:Core/Src/test.c **** }
 101:Core/Src/test.c **** 
 102:Core/Src/test.c **** /*****************************************************************************
 103:Core/Src/test.c ****  * @name       :void main_test(void)
 104:Core/Src/test.c ****  * @date       :2018-08-09 
 105:Core/Src/test.c ****  * @function   :Drawing the main Interface of the Comprehensive Test Program
 106:Core/Src/test.c ****  * @parameters :None
 107:Core/Src/test.c ****  * @retvalue   :None
 108:Core/Src/test.c **** ******************************************************************************/
 109:Core/Src/test.c **** void main_test(void)
 110:Core/Src/test.c **** {
 111:Core/Src/test.c **** 	DrawTestPage("最小系统综合测试程序");	
 112:Core/Src/test.c **** 	Gui_StrCenter(0,40,RED,BLUE,"STM32F407VxT6最小系统开发板",16,1);//居中显示
 113:Core/Src/test.c **** 	Gui_StrCenter(0,70,RED,BLUE,"综合测试程序",16,1);//居中显示	
 114:Core/Src/test.c **** 	Gui_StrCenter(0,100,MAGENTA,BLUE,"ILI9341  ILI9486  ILI9488",16,1);//居中显示
 115:Core/Src/test.c **** 	Gui_StrCenter(0,120,MAGENTA,BLUE,"R61509V  ST7793   ST7796S",16,1);//居中显示
 116:Core/Src/test.c **** 	Gui_StrCenter(0,140,MAGENTA,BLUE,"NT35310  NT35510  SSD1963",16,1);//居中显示
 117:Core/Src/test.c **** 	Gui_StrCenter(0,170,BLUE,BLUE,"STM32F407VxT6 2020-06-05",16,1);//居中显示
 118:Core/Src/test.c **** 	delay_ms(1500);		
 119:Core/Src/test.c **** 	delay_ms(1500);
 120:Core/Src/test.c **** }
 121:Core/Src/test.c **** 
 122:Core/Src/test.c **** /*****************************************************************************
 123:Core/Src/test.c ****  * @name       :void Test_Color(void)
 124:Core/Src/test.c ****  * @date       :2018-08-09 
 125:Core/Src/test.c ****  * @function   :Color fill test(white,black,red,green,blue)
 126:Core/Src/test.c ****  * @parameters :None
 127:Core/Src/test.c ****  * @retvalue   :None
 128:Core/Src/test.c **** ******************************************************************************/
 129:Core/Src/test.c **** void Test_Color(void)
 130:Core/Src/test.c **** {
 131:Core/Src/test.c **** 	//DrawTestPage("测试1:纯色填充测试");
 132:Core/Src/test.c **** 	LCD_Fill(0,0,lcddev.width-1,lcddev.height-1,WHITE);
 133:Core/Src/test.c **** 	Show_Str(20,30,BLUE,YELLOW,"BL Test",16,1);delay_ms(800);
 134:Core/Src/test.c **** 	LCD_Fill(0,0,lcddev.width-1,lcddev.height-1,RED);
 135:Core/Src/test.c **** 	Show_Str(20,30,BLUE,YELLOW,"RED ",16,1);delay_ms(800);
 136:Core/Src/test.c **** 	LCD_Fill(0,0,lcddev.width-1,lcddev.height-1,GREEN);
 137:Core/Src/test.c **** 	Show_Str(20,30,BLUE,YELLOW,"GREEN ",16,1);delay_ms(800);
 138:Core/Src/test.c **** 	LCD_Fill(0,0,lcddev.width-1,lcddev.height-1,BLUE);
 139:Core/Src/test.c **** 	Show_Str(20,30,RED,YELLOW,"BLUE ",16,1);delay_ms(800);
 140:Core/Src/test.c **** }
 141:Core/Src/test.c **** 
 142:Core/Src/test.c **** /*****************************************************************************
 143:Core/Src/test.c ****  * @name       :void Test_FillRec(void)
 144:Core/Src/test.c ****  * @date       :2018-08-09 
 145:Core/Src/test.c ****  * @function   :Rectangular display and fill test
 146:Core/Src/test.c **** 								Display red,green,blue,yellow,pink rectangular boxes in turn,
 147:Core/Src/test.c **** 								1500 milliseconds later,
 148:Core/Src/test.c **** 								Fill the rectangle in red,green,blue,yellow and pink in turn
 149:Core/Src/test.c ****  * @parameters :None
 150:Core/Src/test.c ****  * @retvalue   :None
 151:Core/Src/test.c **** ******************************************************************************/
 152:Core/Src/test.c **** void Test_FillRec(void)
 153:Core/Src/test.c **** {
ARM GAS  C:\Users\savao\AppData\Local\Temp\cchWCIjp.s 			page 5


 154:Core/Src/test.c **** 	u8 i=0;
 155:Core/Src/test.c **** 	DrawTestPage("测试3:GUI矩形填充测试");
 156:Core/Src/test.c **** 	for (i=0; i<5; i++) 
 157:Core/Src/test.c **** 	{
 158:Core/Src/test.c **** 		POINT_COLOR=ColorTab[i];
 159:Core/Src/test.c **** 		LCD_DrawRectangle(lcddev.width/2-80+(i*15),lcddev.height/2-80+(i*15),lcddev.width/2-80+(i*15)+60,
 160:Core/Src/test.c **** 	}
 161:Core/Src/test.c **** 	delay_ms(1500);	
 162:Core/Src/test.c **** 	for (i=0; i<5; i++) 
 163:Core/Src/test.c **** 	{
 164:Core/Src/test.c **** 		POINT_COLOR=ColorTab[i];
 165:Core/Src/test.c **** 		LCD_DrawFillRectangle(lcddev.width/2-80+(i*15),lcddev.height/2-80+(i*15),lcddev.width/2-80+(i*15)
 166:Core/Src/test.c **** 	}
 167:Core/Src/test.c **** 	delay_ms(1500);
 168:Core/Src/test.c **** }
 169:Core/Src/test.c **** 
 170:Core/Src/test.c **** /*****************************************************************************
 171:Core/Src/test.c ****  * @name       :void Test_Circle(void)
 172:Core/Src/test.c ****  * @date       :2018-08-09 
 173:Core/Src/test.c ****  * @function   :circular display and fill test
 174:Core/Src/test.c **** 								Display red,green,blue,yellow,pink circular boxes in turn,
 175:Core/Src/test.c **** 								1500 milliseconds later,
 176:Core/Src/test.c **** 								Fill the circular in red,green,blue,yellow and pink in turn
 177:Core/Src/test.c ****  * @parameters :None
 178:Core/Src/test.c ****  * @retvalue   :None
 179:Core/Src/test.c **** ******************************************************************************/
 180:Core/Src/test.c **** void Test_Circle(void)
 181:Core/Src/test.c **** {
 182:Core/Src/test.c **** 	u8 i=0;
 183:Core/Src/test.c **** 	DrawTestPage("测试4:GUI画圆填充测试");
 184:Core/Src/test.c **** 	for (i=0; i<5; i++)  
 185:Core/Src/test.c **** 		gui_circle(lcddev.width/2-80+(i*25),lcddev.height/2-50+(i*25),ColorTab[i],30,0);
 186:Core/Src/test.c **** 	delay_ms(1500);	
 187:Core/Src/test.c **** 	for (i=0; i<5; i++) 
 188:Core/Src/test.c **** 	  	gui_circle(lcddev.width/2-80+(i*25),lcddev.height/2-50+(i*25),ColorTab[i],30,1);
 189:Core/Src/test.c **** 	delay_ms(1500);
 190:Core/Src/test.c **** }
 191:Core/Src/test.c **** 
 192:Core/Src/test.c **** /*****************************************************************************
 193:Core/Src/test.c ****  * @name       :void English_Font_test(void)
 194:Core/Src/test.c ****  * @date       :2018-08-09 
 195:Core/Src/test.c ****  * @function   :English display test
 196:Core/Src/test.c ****  * @parameters :None
 197:Core/Src/test.c ****  * @retvalue   :None
 198:Core/Src/test.c **** ******************************************************************************/
 199:Core/Src/test.c **** void English_Font_test(void)
 200:Core/Src/test.c **** {
 201:Core/Src/test.c **** 	DrawTestPage("测试6:英文显示测试");
 202:Core/Src/test.c **** 	Show_Str(10,30,BLUE,YELLOW,"6X12:abcdefghijklmnopqrstuvwxyz0123456789",12,0);
 203:Core/Src/test.c **** 	Show_Str(10,45,BLUE,YELLOW,"6X12:ABCDEFGHIJKLMNOPQRSTUVWXYZ0123456789",12,1);
 204:Core/Src/test.c **** 	Show_Str(10,60,BLUE,YELLOW,"6X12:~!@#$%^&*()_+{}:<>?/|-+.",12,0);
 205:Core/Src/test.c **** 	Show_Str(10,80,BLUE,YELLOW,"8X16:abcdefghijklmnopqrstuvwxyz0123456789",16,0);
 206:Core/Src/test.c **** 	Show_Str(10,100,BLUE,YELLOW,"8X16:ABCDEFGHIJKLMNOPQRSTUVWXYZ0123456789",16,1);
 207:Core/Src/test.c **** 	Show_Str(10,120,BLUE,YELLOW,"8X16:~!@#$%^&*()_+{}:<>?/|-+.",16,0); 
 208:Core/Src/test.c **** 	delay_ms(1200);
 209:Core/Src/test.c **** }
 210:Core/Src/test.c **** 
ARM GAS  C:\Users\savao\AppData\Local\Temp\cchWCIjp.s 			page 6


 211:Core/Src/test.c **** /*****************************************************************************
 212:Core/Src/test.c ****  * @name       :void Test_Triangle(void)
 213:Core/Src/test.c ****  * @date       :2018-08-09 
 214:Core/Src/test.c ****  * @function   :triangle display and fill test
 215:Core/Src/test.c **** 								Display red,green,blue,yellow,pink triangle boxes in turn,
 216:Core/Src/test.c **** 								1500 milliseconds later,
 217:Core/Src/test.c **** 								Fill the triangle in red,green,blue,yellow and pink in turn
 218:Core/Src/test.c ****  * @parameters :None
 219:Core/Src/test.c ****  * @retvalue   :None
 220:Core/Src/test.c **** ******************************************************************************/
 221:Core/Src/test.c **** void Test_Triangle(void)
 222:Core/Src/test.c **** {
 223:Core/Src/test.c **** 	u8 i=0;
 224:Core/Src/test.c **** 	DrawTestPage("测试5:GUI Triangle填充测试");
 225:Core/Src/test.c **** 	for(i=0;i<5;i++)
 226:Core/Src/test.c **** 	{
 227:Core/Src/test.c **** 		POINT_COLOR=ColorTab[i];
 228:Core/Src/test.c **** 		Draw_Triangel(lcddev.width/2-80+(i*20),lcddev.height/2-20+(i*15),lcddev.width/2-50-1+(i*20),lcdde
 229:Core/Src/test.c **** 	}
 230:Core/Src/test.c **** 	delay_ms(1500);	
 231:Core/Src/test.c **** 	for(i=0;i<5;i++)
 232:Core/Src/test.c **** 	{
 233:Core/Src/test.c **** 		POINT_COLOR=ColorTab[i];
 234:Core/Src/test.c **** 		Fill_Triangel(lcddev.width/2-80+(i*20),lcddev.height/2-20+(i*15),lcddev.width/2-50-1+(i*20),lcdde
 235:Core/Src/test.c **** 	}
 236:Core/Src/test.c **** 	delay_ms(1500);
 237:Core/Src/test.c **** }
 238:Core/Src/test.c **** 
 239:Core/Src/test.c **** /*****************************************************************************
 240:Core/Src/test.c ****  * @name       :void Chinese_Font_test(void)
 241:Core/Src/test.c ****  * @date       :2018-08-09 
 242:Core/Src/test.c ****  * @function   :chinese display test
 243:Core/Src/test.c ****  * @parameters :None
 244:Core/Src/test.c ****  * @retvalue   :None
 245:Core/Src/test.c **** ******************************************************************************/
 246:Core/Src/test.c **** void Chinese_Font_test(void)
 247:Core/Src/test.c **** {	
 248:Core/Src/test.c **** 	DrawTestPage("测试7:中文显示测试");
 249:Core/Src/test.c **** 	Show_Str(10,30,BLUE,YELLOW,"16X16:深圳欢迎您",16,0);
 250:Core/Src/test.c **** 	Show_Str(10,50,BLUE,YELLOW,"16X16:Welcome to 深圳",16,0);
 251:Core/Src/test.c **** 	Show_Str(10,70,BLUE,YELLOW,"24X24:中文测试",24,1);
 252:Core/Src/test.c **** 	Show_Str(10,100,BLUE,YELLOW,"32X32:字体测试",32,1);
 253:Core/Src/test.c **** 	delay_ms(1200);
 254:Core/Src/test.c **** }
 255:Core/Src/test.c **** 
 256:Core/Src/test.c **** /*****************************************************************************
 257:Core/Src/test.c ****  * @name       :void Pic_test(void)
 258:Core/Src/test.c ****  * @date       :2018-08-09 
 259:Core/Src/test.c ****  * @function   :picture display test
 260:Core/Src/test.c ****  * @parameters :None
 261:Core/Src/test.c ****  * @retvalue   :None
 262:Core/Src/test.c **** ******************************************************************************/
 263:Core/Src/test.c **** void Pic_test(void)
 264:Core/Src/test.c **** {
 265:Core/Src/test.c **** 	DrawTestPage("测试8:图片显示测试");
 266:Core/Src/test.c **** 	Gui_Drawbmp16(30,30,40,40,gImage_qq);
 267:Core/Src/test.c **** 	Show_Str(30+12,75,BLUE,YELLOW,"QQ",16,1);
ARM GAS  C:\Users\savao\AppData\Local\Temp\cchWCIjp.s 			page 7


 268:Core/Src/test.c **** 	Gui_Drawbmp16(90,30,40,40,gImage_qq);
 269:Core/Src/test.c **** 	Show_Str(90+12,75,BLUE,YELLOW,"QQ",16,1);
 270:Core/Src/test.c **** 	Gui_Drawbmp16(150,30,40,40,gImage_qq);
 271:Core/Src/test.c **** 	Show_Str(150+12,75,BLUE,YELLOW,"QQ",16,1);
 272:Core/Src/test.c **** 	delay_ms(1200);
 273:Core/Src/test.c **** }
 274:Core/Src/test.c **** 
 275:Core/Src/test.c **** /*****************************************************************************
 276:Core/Src/test.c ****  * @name       :void Rotate_Test(void)
 277:Core/Src/test.c ****  * @date       :2018-08-09 
 278:Core/Src/test.c ****  * @function   :rotate test
 279:Core/Src/test.c ****  * @parameters :None
 280:Core/Src/test.c ****  * @retvalue   :None
 281:Core/Src/test.c **** ******************************************************************************/
 282:Core/Src/test.c **** void Rotate_Test(void)
 283:Core/Src/test.c **** {
 284:Core/Src/test.c **** 	u8 i=0;
 285:Core/Src/test.c **** 	u8 *Direction[4]={"Rotation:0","Rotation:90","Rotation:180","Rotation:270"};
 286:Core/Src/test.c **** 	
 287:Core/Src/test.c **** 	for(i=0;i<4;i++)
 288:Core/Src/test.c **** 	{
 289:Core/Src/test.c **** 		LCD_Clear(WHITE);
 290:Core/Src/test.c **** 		LCD_direction(i);
 291:Core/Src/test.c **** 		DrawTestPage("测试10:屏幕旋转测试");
 292:Core/Src/test.c **** 		Show_Str(20,30,BLUE,YELLOW,Direction[i],16,1);
 293:Core/Src/test.c **** 		Gui_Drawbmp16(30,50,40,40,gImage_qq);
 294:Core/Src/test.c **** 		delay_ms(1000);delay_ms(1000);
 295:Core/Src/test.c **** 	}
 296:Core/Src/test.c **** 	LCD_direction(USE_HORIZONTAL);
 297:Core/Src/test.c **** }
 298:Core/Src/test.c **** 
 299:Core/Src/test.c **** /*****************************************************************************
 300:Core/Src/test.c ****  * @name       :void Test_Read(void)
 301:Core/Src/test.c ****  * @date       :2018-11-13 
 302:Core/Src/test.c ****  * @function   :read test
 303:Core/Src/test.c ****  * @parameters :None
 304:Core/Src/test.c ****  * @retvalue   :None
 305:Core/Src/test.c **** ******************************************************************************/
 306:Core/Src/test.c **** void Test_Read(void)
 307:Core/Src/test.c **** {
 308:Core/Src/test.c **** 	u16 color;
 309:Core/Src/test.c **** 	u8 buf[10] = {0},i;
 310:Core/Src/test.c **** 	u8 cbuf[35] = {0};
 311:Core/Src/test.c **** 	DrawTestPage("测试2:读ID和颜色值测试");
 312:Core/Src/test.c **** 	sprintf((char *)buf,"ID:0x%x",lcddev.id);
 313:Core/Src/test.c **** 	Show_Str(50,25,BLUE,YELLOW,buf,16,1);
 314:Core/Src/test.c **** 	for (i=0; i<7; i++) 
 315:Core/Src/test.c **** 	{
 316:Core/Src/test.c **** 		POINT_COLOR=ColornTab[i];
 317:Core/Src/test.c **** 		LCD_DrawFillRectangle(20-10,55+i*25-10,20+10,55+i*25+10);
 318:Core/Src/test.c **** 		color = LCD_ReadPoint(20,55+i*25);
 319:Core/Src/test.c **** 		if(POINT_COLOR==color)
 320:Core/Src/test.c **** 		{
 321:Core/Src/test.c **** 			strcpy((char*)buf, "OK");
 322:Core/Src/test.c **** 		}
 323:Core/Src/test.c **** 		else
 324:Core/Src/test.c **** 		{
ARM GAS  C:\Users\savao\AppData\Local\Temp\cchWCIjp.s 			page 8


 325:Core/Src/test.c **** 			strcpy((char*)buf, "ERROR");
 326:Core/Src/test.c **** 		}
 327:Core/Src/test.c **** 		sprintf((char *)cbuf,"read color:0x%04X  %s",color, buf);
 328:Core/Src/test.c **** 		Show_Str(20+20,55+i*25-8,POINT_COLOR,YELLOW,cbuf,16,1);
 329:Core/Src/test.c **** 	}
 330:Core/Src/test.c **** 	delay_ms(1500);
 331:Core/Src/test.c **** }
 332:Core/Src/test.c **** 
 333:Core/Src/test.c **** /*****************************************************************************
 334:Core/Src/test.c ****  * @name       :void POINT_Test(void)
 335:Core/Src/test.c ****  * @date       :2018-12-29 
 336:Core/Src/test.c ****  * @function   :point test
 337:Core/Src/test.c ****  * @parameters :None
 338:Core/Src/test.c ****  * @retvalue   :None
 339:Core/Src/test.c **** ******************************************************************************/
 340:Core/Src/test.c **** void POINT_Test(void)
 341:Core/Src/test.c **** {
 342:Core/Src/test.c **** 	uint8_t x=lcddev.width/2,y=lcddev.height/2,r=20,t,m,i;
 343:Core/Src/test.c **** 
 344:Core/Src/test.c **** 	t = 7*r/10;
 345:Core/Src/test.c **** 	m =100;	//显示速度毫秒值
 346:Core/Src/test.c **** 	
 347:Core/Src/test.c **** 	DrawTestPage("测试12:GUI Loading");
 348:Core/Src/test.c **** 	LCD_Fill(0,20,lcddev.width-1,lcddev.height-20,BLACK);
 349:Core/Src/test.c **** 	POINT_COLOR = WHITE;
 350:Core/Src/test.c **** 	BACK_COLOR = BLACK;
 351:Core/Src/test.c **** 	Show_Str((lcddev.width-96)/2, lcddev.height/2+r+10, POINT_COLOR,BACK_COLOR,"Loading.....",16,1);
 352:Core/Src/test.c **** 	for(i=0;i<2;i++)
 353:Core/Src/test.c **** 	{
 354:Core/Src/test.c **** 		LCD_Draw9Point(x, y-r, WHITE); //画第一个点
 355:Core/Src/test.c **** 		delay_ms(m);
 356:Core/Src/test.c **** 		LCD_Draw9Point(x+t, y-t, WHITE); //画第二个点
 357:Core/Src/test.c **** 		delay_ms(m);
 358:Core/Src/test.c **** 		LCD_Draw9Point(x, y-r, BLACK); //删除第一个点
 359:Core/Src/test.c **** 		delay_ms(m);
 360:Core/Src/test.c **** 		LCD_Draw9Point(x+r, y, WHITE); //画第三个点
 361:Core/Src/test.c **** 		delay_ms(m);
 362:Core/Src/test.c **** 		LCD_Draw9Point(x+t, y-t, BLACK);  //删除第二个点
 363:Core/Src/test.c **** 		delay_ms(m);
 364:Core/Src/test.c **** 		LCD_Draw9Point(x+t, y+t, WHITE);  //画第四个点
 365:Core/Src/test.c **** 		delay_ms(m);
 366:Core/Src/test.c **** 		LCD_Draw9Point(x+r, y, BLACK); //删除第三个点
 367:Core/Src/test.c **** 		delay_ms(m);
 368:Core/Src/test.c **** 		LCD_Draw9Point(x, y+r, WHITE);  //画第五个点
 369:Core/Src/test.c **** 		delay_ms(m);
 370:Core/Src/test.c **** 		LCD_Draw9Point(x+t, y+t, BLACK);  //删除第四个点
 371:Core/Src/test.c **** 		delay_ms(m);
 372:Core/Src/test.c **** 		LCD_Draw9Point(x-t, y+t, WHITE);  //画第六个点
 373:Core/Src/test.c **** 		delay_ms(m);
 374:Core/Src/test.c **** 		LCD_Draw9Point(x, y+r, BLACK);  //删除第五个点
 375:Core/Src/test.c **** 		delay_ms(m);
 376:Core/Src/test.c **** 		LCD_Draw9Point(x-r, y, WHITE);  //画第七个点
 377:Core/Src/test.c **** 		delay_ms(m);
 378:Core/Src/test.c **** 		LCD_Draw9Point(x-t, y+t, BLACK);  //删除第六个点
 379:Core/Src/test.c **** 		delay_ms(m);
 380:Core/Src/test.c **** 		LCD_Draw9Point(x-t, y-t, WHITE);  //画第八个点
 381:Core/Src/test.c **** 		delay_ms(m);
ARM GAS  C:\Users\savao\AppData\Local\Temp\cchWCIjp.s 			page 9


 382:Core/Src/test.c **** 		LCD_Draw9Point(x-r, y, BLACK);  //删除第七个点
 383:Core/Src/test.c **** 		delay_ms(m);
 384:Core/Src/test.c **** 		LCD_Draw9Point(x-t, y-t, BLACK);  //删除第八个点
 385:Core/Src/test.c **** 		delay_ms(m);
 386:Core/Src/test.c **** 	}
 387:Core/Src/test.c **** 	delay_ms(1500);
 388:Core/Src/test.c **** }
 389:Core/Src/test.c **** 
 390:Core/Src/test.c **** /*****************************************************************************
 391:Core/Src/test.c ****  * @name       :void Combo_Test(void)
 392:Core/Src/test.c ****  * @date       :2018-12-29 
 393:Core/Src/test.c ****  * @function   :combo test
 394:Core/Src/test.c ****  * @parameters :None
 395:Core/Src/test.c ****  * @retvalue   :None
 396:Core/Src/test.c **** ******************************************************************************/
 397:Core/Src/test.c **** void Combo_Test(void)
 398:Core/Src/test.c **** {
 399:Core/Src/test.c **** 	DrawTestPage("测试13:GUI Combo");
 400:Core/Src/test.c **** 	LCD_Fill(0,20,lcddev.width-1,lcddev.height-20,GRAY);
 401:Core/Src/test.c **** 	//画一个条形输入框
 402:Core/Src/test.c **** 	Draw_TextBox(50, 50, 200, 73);
 403:Core/Src/test.c **** 	//画下拉列表按钮(19*19)像素
 404:Core/Src/test.c **** 	Draw_Button(179, 52, 198, 71);
 405:Core/Src/test.c **** 	Draw_DirectButton(179,52);
 406:Core/Src/test.c **** 	delay_ms(500);
 407:Core/Src/test.c **** 	delay_ms(500);
 408:Core/Src/test.c **** 	delay_ms(500);
 409:Core/Src/test.c **** 	SetButton(179, 52, 198, 71);
 410:Core/Src/test.c **** 	LCD_Fill(183, 56, 194, 67, LGRAY);
 411:Core/Src/test.c ****    	Draw_DirectButton(180,53);
 412:Core/Src/test.c **** 	delay_ms(500);
 413:Core/Src/test.c **** 	delay_ms(500);
 414:Core/Src/test.c **** 	delay_ms(500);
 415:Core/Src/test.c **** 	EscButton(179, 52, 198, 71);
 416:Core/Src/test.c **** 	LCD_Fill(183, 56, 194, 67, LGRAY);
 417:Core/Src/test.c **** 	Draw_DirectButton(179,52);
 418:Core/Src/test.c **** 	//拉出下拉列表
 419:Core/Src/test.c **** 	POINT_COLOR=BLACK;
 420:Core/Src/test.c **** 	LCD_DrawRectangle(50, 74, 200, 143);
 421:Core/Src/test.c **** 	LCD_Fill(51, 75, 199, 142, WHITE);
 422:Core/Src/test.c **** 	//写列表中的内容
 423:Core/Src/test.c **** 	LCD_Fill(51, 75, 199, 97, DARKBLUE); //第一个默认为选中状态
 424:Core/Src/test.c **** 	POINT_COLOR=WHITE;
 425:Core/Src/test.c **** 	BACK_COLOR=DARKBLUE;
 426:Core/Src/test.c **** 	Show_Str(53, 79, POINT_COLOR,BACK_COLOR,"STM ICP Bridge",16,1);
 427:Core/Src/test.c **** 
 428:Core/Src/test.c **** 	POINT_COLOR=BLACK;
 429:Core/Src/test.c **** 	BACK_COLOR=WHITE;
 430:Core/Src/test.c **** 	Show_Str(53, 101, POINT_COLOR,BACK_COLOR,"STM PP Bridge",16,1);
 431:Core/Src/test.c **** 	Show_Str(53, 124, POINT_COLOR,BACK_COLOR,"None ISP",16,1);
 432:Core/Src/test.c **** 	delay_ms(500);
 433:Core/Src/test.c **** 	delay_ms(500);
 434:Core/Src/test.c **** 	delay_ms(500);
 435:Core/Src/test.c **** 	//选中第二个
 436:Core/Src/test.c **** 	LCD_Fill(51, 75, 199, 97, WHITE);	   //先取消第一个
 437:Core/Src/test.c **** 	POINT_COLOR=BLACK;
 438:Core/Src/test.c **** 	BACK_COLOR=WHITE;
ARM GAS  C:\Users\savao\AppData\Local\Temp\cchWCIjp.s 			page 10


 439:Core/Src/test.c **** 	Show_Str(53, 79, POINT_COLOR,BACK_COLOR,"STM ICP Bridge",16,1);
 440:Core/Src/test.c **** 
 441:Core/Src/test.c **** 	LCD_Fill(51, 98, 199, 120, DARKBLUE);  //选中第二个
 442:Core/Src/test.c **** 	POINT_COLOR=WHITE;
 443:Core/Src/test.c **** 	BACK_COLOR=DARKBLUE;
 444:Core/Src/test.c **** 	Show_Str(53, 101, POINT_COLOR,BACK_COLOR,"STM PP Bridge",16,1);
 445:Core/Src/test.c **** 	delay_ms(500);
 446:Core/Src/test.c **** 	delay_ms(500);
 447:Core/Src/test.c **** 	delay_ms(500);
 448:Core/Src/test.c **** 	//选中第三个
 449:Core/Src/test.c **** 	LCD_Fill(51, 98, 199, 120, WHITE);//先取消选中的第二个
 450:Core/Src/test.c **** 	POINT_COLOR=BLACK;
 451:Core/Src/test.c **** 	BACK_COLOR=WHITE;
 452:Core/Src/test.c **** 	Show_Str(53, 101, POINT_COLOR,BACK_COLOR,"STM PP Bridge",16,1);
 453:Core/Src/test.c **** 
 454:Core/Src/test.c **** 	LCD_Fill(51, 121, 199, 142, DARKBLUE);//选中第三个
 455:Core/Src/test.c **** 	POINT_COLOR=WHITE;
 456:Core/Src/test.c **** 	BACK_COLOR=DARKBLUE;
 457:Core/Src/test.c **** 	Show_Str(53, 124, POINT_COLOR,BACK_COLOR,"None ISP",16,1);
 458:Core/Src/test.c **** 	delay_ms(500);
 459:Core/Src/test.c **** 	delay_ms(500);
 460:Core/Src/test.c **** 	delay_ms(500);
 461:Core/Src/test.c **** 	delay_ms(500);
 462:Core/Src/test.c **** 	//清除
 463:Core/Src/test.c **** 	LCD_Fill(50, 74, 200, 143, GRAY);
 464:Core/Src/test.c **** 	delay_ms(1500);
 465:Core/Src/test.c **** }
 466:Core/Src/test.c **** 
 467:Core/Src/test.c **** /*****************************************************************************
 468:Core/Src/test.c ****  * @name       :void ProgresBar_Test(void)
 469:Core/Src/test.c ****  * @date       :2018-12-29 
 470:Core/Src/test.c ****  * @function   :ProgresBar test
 471:Core/Src/test.c ****  * @parameters :None
 472:Core/Src/test.c ****  * @retvalue   :None
 473:Core/Src/test.c **** ******************************************************************************/
 474:Core/Src/test.c **** void ProgresBar_Test(void)
 475:Core/Src/test.c **** {
 476:Core/Src/test.c **** 	uint8_t i,num=1;
 477:Core/Src/test.c **** 	u16 x1=20;
 478:Core/Src/test.c **** 	u16 y1=30;
 479:Core/Src/test.c **** 	u16 x2=150;//130
 480:Core/Src/test.c **** 	u16 y2=130;//100
 481:Core/Src/test.c **** 			
 482:Core/Src/test.c **** 	DrawTestPage("测试14:GUI ProgresBar");
 483:Core/Src/test.c **** 	LCD_Fill(0,20,lcddev.width-1,lcddev.height-20,WHITE);
 484:Core/Src/test.c **** 	Draw_Button(x1, y1, x2, y2);   // 显示主体窗口
 485:Core/Src/test.c **** 	LCD_Fill(x1+3, y1+3, x2-3, y2-75, DARKBLUE);	 // 显示标题栏 
 486:Core/Src/test.c **** 	Show_Str(x1+25, y1+5, POINT_COLOR,BACK_COLOR,"ProgresBar",16,1); // 按钮上写字
 487:Core/Src/test.c **** 	Draw_Button(x1+5, y1+70, x2-70, y2-5);  // 显示第一个按钮
 488:Core/Src/test.c **** 	Draw_Button(x1+70, y1+70, x2-5, y2-5);  // 显示第二个按钮
 489:Core/Src/test.c **** 	POINT_COLOR=BLACK;	
 490:Core/Src/test.c **** 	BACK_COLOR=LGRAY;
 491:Core/Src/test.c **** 	Show_Str(x1+25, y1+74,POINT_COLOR,BACK_COLOR,"OK",16,1);
 492:Core/Src/test.c **** 	Show_Str(x1+75, y1+74, POINT_COLOR,BACK_COLOR,"Cancel",16,1);
 493:Core/Src/test.c **** 	Show_Str(x1+80, y1+35, POINT_COLOR,BACK_COLOR,"%",16,1);	  
 494:Core/Src/test.c **** 	for(i=x1+26;i<x2-5;i++)
 495:Core/Src/test.c **** 	{
ARM GAS  C:\Users\savao\AppData\Local\Temp\cchWCIjp.s 			page 11


 496:Core/Src/test.c **** 		LCD_Fill(x1+5, y1+53, i, y1+68, RED);
 497:Core/Src/test.c **** 		delay_ms(40);
 498:Core/Src/test.c **** 		LCD_ShowNum(x1+62, y1+35, num,2,16);
 499:Core/Src/test.c **** 		num++;
 500:Core/Src/test.c **** 	}
 501:Core/Src/test.c **** 	LCD_Fill(x1+5, y1+35, x2-5, y1+50, LGRAY);
 502:Core/Src/test.c **** 	Show_Str(x1+25, y1+35, BLUE,BACK_COLOR,"Success!!!",16,1);
 503:Core/Src/test.c **** 	delay_ms(1500);
 504:Core/Src/test.c **** }
 505:Core/Src/test.c **** 
 506:Core/Src/test.c **** /*****************************************************************************
 507:Core/Src/test.c ****  * @name       :void BarReport_Test(void)
 508:Core/Src/test.c ****  * @date       :2018-12-29 
 509:Core/Src/test.c ****  * @function   :BarReport test
 510:Core/Src/test.c ****  * @parameters :None
 511:Core/Src/test.c ****  * @retvalue   :None
 512:Core/Src/test.c **** ******************************************************************************/
 513:Core/Src/test.c **** void BarReport_Test(void)
 514:Core/Src/test.c **** {
 515:Core/Src/test.c **** 	uint16_t i;	
 516:Core/Src/test.c **** 
 517:Core/Src/test.c **** 	DrawTestPage("测试15:GUI BarReport");
 518:Core/Src/test.c **** 	LCD_Fill(0,20,lcddev.width-1,lcddev.height-20,WHITE);
 519:Core/Src/test.c **** 	POINT_COLOR = BLACK;
 520:Core/Src/test.c **** 	//画纵坐标
 521:Core/Src/test.c **** 	LCD_DrawLine(20, 50, 20, 210);
 522:Core/Src/test.c **** 	LCD_DrawLine(10, 60, 20, 50);
 523:Core/Src/test.c **** 	LCD_DrawLine(30, 60, 20, 50);
 524:Core/Src/test.c **** 	//画横坐标
 525:Core/Src/test.c **** 	LCD_DrawLine(20, 210, 220, 210);
 526:Core/Src/test.c **** 	LCD_DrawLine(210, 200, 220, 210);
 527:Core/Src/test.c **** 	LCD_DrawLine(210, 220, 220, 210);
 528:Core/Src/test.c **** 	//画条形
 529:Core/Src/test.c **** 	LCD_Fill(35, 80, 55, 209,RED);
 530:Core/Src/test.c **** 	LCD_Fill(75, 130, 95, 209,YELLOW);
 531:Core/Src/test.c **** 	LCD_Fill(115, 60, 135, 209,BLUE);
 532:Core/Src/test.c **** 	LCD_Fill(155, 90, 175, 209,GREEN);
 533:Core/Src/test.c **** 	//条形渐变
 534:Core/Src/test.c **** 	delay_ms(50);
 535:Core/Src/test.c **** 	for(i=81;i<209;i++) //红色条降低
 536:Core/Src/test.c **** 	{
 537:Core/Src/test.c **** 		LCD_Fill(35, 80, 55, i,WHITE);
 538:Core/Src/test.c **** 		delay_ms(10);
 539:Core/Src/test.c **** 	}
 540:Core/Src/test.c **** 	for(i=208;i>100;i--) //红色条升高
 541:Core/Src/test.c **** 	{
 542:Core/Src/test.c **** 		LCD_Fill(35, i, 55, 209,RED);
 543:Core/Src/test.c **** 		delay_ms(10);
 544:Core/Src/test.c **** 	}
 545:Core/Src/test.c **** 	for(i=129;i>80;i--) //黄色条升高
 546:Core/Src/test.c **** 	{
 547:Core/Src/test.c **** 		LCD_Fill(75, i, 95, 130,YELLOW);
 548:Core/Src/test.c **** 		delay_ms(10);
 549:Core/Src/test.c **** 	}
 550:Core/Src/test.c **** 	for(i=25;i<160;i++) //蓝色条降低
 551:Core/Src/test.c **** 	{
 552:Core/Src/test.c **** 		LCD_Fill(115, 24, 135, i,WHITE);
ARM GAS  C:\Users\savao\AppData\Local\Temp\cchWCIjp.s 			page 12


 553:Core/Src/test.c **** 		delay_ms(10);
 554:Core/Src/test.c **** 	}		
 555:Core/Src/test.c **** 	delay_ms(1500);
 556:Core/Src/test.c **** }
 557:Core/Src/test.c **** 
 558:Core/Src/test.c **** /*****************************************************************************
 559:Core/Src/test.c ****  * @name       :void Window_Test(void)
 560:Core/Src/test.c ****  * @date       :2018-12-29 
 561:Core/Src/test.c ****  * @function   :Window test
 562:Core/Src/test.c ****  * @parameters :None
 563:Core/Src/test.c ****  * @retvalue   :None
 564:Core/Src/test.c **** ******************************************************************************/
 565:Core/Src/test.c **** void Window_Test(void)
 566:Core/Src/test.c **** {
 567:Core/Src/test.c **** 
 568:Core/Src/test.c **** 	uint16_t xstart=2,ystart=30,xend=lcddev.width*2/3,yend=lcddev.height-30;
 569:Core/Src/test.c **** 	uint8_t i=3;
 570:Core/Src/test.c **** 	DrawTestPage("测试16:GUI Window");
 571:Core/Src/test.c **** 	LCD_Fill(0,20,lcddev.width-1,lcddev.height-20,GRAY);
 572:Core/Src/test.c **** 	do
 573:Core/Src/test.c **** 	{
 574:Core/Src/test.c **** 		Draw_Window(xstart,ystart,xend,yend,"OK");
 575:Core/Src/test.c **** 		delay_ms(500);
 576:Core/Src/test.c **** 		delay_ms(500);
 577:Core/Src/test.c **** 		xstart+=15;ystart+=15;xend-=30;yend-=30;
 578:Core/Src/test.c **** 	}while(--i);
 579:Core/Src/test.c **** 	delay_ms(1500);
 580:Core/Src/test.c **** }
 581:Core/Src/test.c **** 
 582:Core/Src/test.c **** /*****************************************************************************
 583:Core/Src/test.c ****  * @name       :void Button_Test(void)
 584:Core/Src/test.c ****  * @date       :2018-12-29 
 585:Core/Src/test.c ****  * @function   :Button test
 586:Core/Src/test.c ****  * @parameters :None
 587:Core/Src/test.c ****  * @retvalue   :None
 588:Core/Src/test.c **** ******************************************************************************/
 589:Core/Src/test.c **** void Button_Test(void)
 590:Core/Src/test.c **** {		  	
 591:Core/Src/test.c **** 	DrawTestPage("测试17:GUI Button");
 592:Core/Src/test.c **** 	LCD_Fill(0,20,lcddev.width-1,lcddev.height-20,WHITE);
 593:Core/Src/test.c **** 	Draw_TextBox(30, 60, 170, 90);	 // 显示一个文字输入框
 594:Core/Src/test.c **** 	Draw_Button(180, 60, 235, 90);			 // 显示1个按钮
 595:Core/Src/test.c **** 	POINT_COLOR = BLACK;
 596:Core/Src/test.c **** 	BACK_COLOR = LGRAY;
 597:Core/Src/test.c **** 	Show_Str(184,67,POINT_COLOR,BACK_COLOR,"Search",16,1);
 598:Core/Src/test.c **** 
 599:Core/Src/test.c **** 	
 600:Core/Src/test.c **** 	POINT_COLOR = BLUE;
 601:Core/Src/test.c **** 	BACK_COLOR = WHITE;
 602:Core/Src/test.c **** 	Show_Str(30,38,POINT_COLOR,BACK_COLOR,"News",16,1);
 603:Core/Src/test.c **** 	LCD_DrawLine(30,55,62,55);
 604:Core/Src/test.c **** 	Show_Str(118,38,POINT_COLOR,BACK_COLOR,"Pic",16,1);
 605:Core/Src/test.c **** 	LCD_DrawLine(118,55,150,55);
 606:Core/Src/test.c **** 	POINT_COLOR = BLACK;
 607:Core/Src/test.c **** 	Show_Str(70,38,POINT_COLOR,BACK_COLOR,"Label",16,1);
 608:Core/Src/test.c **** 	delay_ms(500);
 609:Core/Src/test.c **** 	delay_ms(500);
ARM GAS  C:\Users\savao\AppData\Local\Temp\cchWCIjp.s 			page 13


 610:Core/Src/test.c **** 	delay_ms(500);
 611:Core/Src/test.c **** 	
 612:Core/Src/test.c **** 	LCD_ShowChar(35, 67, POINT_COLOR,BACK_COLOR,'C',16,1);
 613:Core/Src/test.c **** 	delay_ms(500);
 614:Core/Src/test.c **** 	LCD_ShowChar(43, 67, POINT_COLOR,BACK_COLOR,'o',16,1);
 615:Core/Src/test.c **** 	delay_ms(500);
 616:Core/Src/test.c **** 	LCD_ShowChar(51, 67, POINT_COLOR,BACK_COLOR,'r',16,1);
 617:Core/Src/test.c **** 	delay_ms(500);
 618:Core/Src/test.c **** 	LCD_ShowChar(58, 67, POINT_COLOR,BACK_COLOR,'t',16,1);
 619:Core/Src/test.c **** 	delay_ms(500);
 620:Core/Src/test.c **** 	LCD_ShowChar(66, 67, POINT_COLOR,BACK_COLOR,'e',16,1);
 621:Core/Src/test.c **** 	delay_ms(500);
 622:Core/Src/test.c **** 	LCD_ShowChar(74, 67, POINT_COLOR,BACK_COLOR,'x',16,1);
 623:Core/Src/test.c **** 	delay_ms(500);
 624:Core/Src/test.c **** 	LCD_ShowChar(82, 67, POINT_COLOR,BACK_COLOR,'-',16,1);
 625:Core/Src/test.c **** 	delay_ms(500);
 626:Core/Src/test.c **** 	LCD_ShowChar(88, 67, POINT_COLOR,BACK_COLOR,'M',16,1);
 627:Core/Src/test.c **** 	delay_ms(500);
 628:Core/Src/test.c **** 
 629:Core/Src/test.c **** 
 630:Core/Src/test.c **** 	SetButton(180, 60, 235, 90);			 // 按下“搜索”按钮
 631:Core/Src/test.c **** 	POINT_COLOR = BLACK;
 632:Core/Src/test.c **** 	BACK_COLOR = LGRAY;
 633:Core/Src/test.c **** 	Show_Str(184,67,POINT_COLOR,BACK_COLOR,"Search",16,1);
 634:Core/Src/test.c **** 	delay_ms(500);
 635:Core/Src/test.c **** 
 636:Core/Src/test.c **** 	EscButton(180, 60, 235, 90);			 // 放开“搜索”按钮
 637:Core/Src/test.c **** 	POINT_COLOR = BLACK;
 638:Core/Src/test.c **** 	BACK_COLOR = LGRAY;
 639:Core/Src/test.c **** 	Show_Str(184,67,POINT_COLOR,BACK_COLOR,"Search",16,1);
 640:Core/Src/test.c **** 	POINT_COLOR = RED;
 641:Core/Src/test.c **** 	BACK_COLOR = WHITE;		 
 642:Core/Src/test.c **** 	Show_Str(12,100,POINT_COLOR,BACK_COLOR,"The ARM Cortex-M is a group",16,1 );
 643:Core/Src/test.c **** 	Show_Str(12,120,POINT_COLOR,BACK_COLOR,"of 32-bit RISC ARM processor",16,1 );
 644:Core/Src/test.c **** 	Show_Str(12,140,POINT_COLOR,BACK_COLOR,"cores licensed by ARM Holdings.",16,1 );
 645:Core/Src/test.c **** 	Show_Str(12,160,POINT_COLOR,BACK_COLOR,"The cores are intended for ",16,1 );
 646:Core/Src/test.c **** 	Show_Str(12,180,POINT_COLOR,BACK_COLOR,"microcontroller use,and consist",16,1);
 647:Core/Src/test.c **** 	Show_Str(12,200,POINT_COLOR,BACK_COLOR,"of the Cortex-M0/M1/M2/M3/M4.",16,1);
 648:Core/Src/test.c **** 	delay_ms(500);
 649:Core/Src/test.c **** 	delay_ms(500);
 650:Core/Src/test.c **** 	delay_ms(500);
 651:Core/Src/test.c **** 	delay_ms(500);
 652:Core/Src/test.c **** 	delay_ms(500);
 653:Core/Src/test.c **** 	delay_ms(500);
 654:Core/Src/test.c **** 	delay_ms(500);
 655:Core/Src/test.c **** 	delay_ms(500);
 656:Core/Src/test.c **** 	delay_ms(500);
 657:Core/Src/test.c **** 	delay_ms(500);
 658:Core/Src/test.c **** 	delay_ms(500);
 659:Core/Src/test.c **** 	delay_ms(500);
 660:Core/Src/test.c **** }
 661:Core/Src/test.c **** 
 662:Core/Src/test.c **** /*****************************************************************************
 663:Core/Src/test.c ****  * @name       :void Test_Dynamic_Num(void)
 664:Core/Src/test.c ****  * @date       :2018-11-13 
 665:Core/Src/test.c ****  * @function   :Dynamic number test
 666:Core/Src/test.c ****  * @parameters :None
ARM GAS  C:\Users\savao\AppData\Local\Temp\cchWCIjp.s 			page 14


 667:Core/Src/test.c ****  * @retvalue   :None
 668:Core/Src/test.c **** ******************************************************************************/
 669:Core/Src/test.c **** void Test_Dynamic_Num(void)
 670:Core/Src/test.c **** {
 671:Core/Src/test.c **** 		u8 i;
 672:Core/Src/test.c **** 	DrawTestPage("测试9:动态数字显示");
 673:Core/Src/test.c **** 	POINT_COLOR=BLUE;
 674:Core/Src/test.c **** 	srand(123456);
 675:Core/Src/test.c **** 	LCD_ShowString(15,50,16, " HCHO:           ug/m3",1);
 676:Core/Src/test.c **** 	LCD_ShowString(15,70,16, "  CO2:           ppm",1);
 677:Core/Src/test.c **** 	LCD_ShowString(15,90,16, " TVOC:           ug/m3",1);
 678:Core/Src/test.c **** 	LCD_ShowString(15,110,16,"PM2.5:           ug/m3",1);
 679:Core/Src/test.c **** 	LCD_ShowString(15,130,16," PM10:           ug/m3",1);
 680:Core/Src/test.c **** 	LCD_ShowString(15,150,16,"  TEP:           C",1);
 681:Core/Src/test.c **** 	LCD_ShowString(15,170,16,"  HUM:           %",1);
 682:Core/Src/test.c **** 	POINT_COLOR=RED;
 683:Core/Src/test.c **** 	for(i=0;i<15;i++)
 684:Core/Src/test.c **** 	{
 685:Core/Src/test.c **** 		LCD_ShowNum(100,50,rand()%10000,5,16);
 686:Core/Src/test.c **** 		LCD_ShowNum(100,70,rand()%10000,5,16);
 687:Core/Src/test.c **** 		LCD_ShowNum(100,90,rand()%10000,5,16);
 688:Core/Src/test.c **** 		LCD_ShowNum(100,110,rand()%10000,5,16);
 689:Core/Src/test.c **** 		LCD_ShowNum(100,130,rand()%10000,5,16);
 690:Core/Src/test.c **** 		LCD_ShowNum(100,150,rand()%50,5,16);
 691:Core/Src/test.c **** 		LCD_ShowNum(100,170,rand()%100,5,16);
 692:Core/Src/test.c **** 		delay_ms(500);
 693:Core/Src/test.c **** 	}
 694:Core/Src/test.c **** }
 695:Core/Src/test.c **** #endif
 696:Core/Src/test.c **** 
 697:Core/Src/test.c **** /*****************************************************************************
 698:Core/Src/test.c ****  * @name       :void wakeup_test(void)
 699:Core/Src/test.c ****  * @date       :2018-08-09 
 700:Core/Src/test.c ****  * @function   :show Wake up test
 701:Core/Src/test.c ****  * @parameters :None
 702:Core/Src/test.c ****  * @retvalue   :None
 703:Core/Src/test.c **** ******************************************************************************/
 704:Core/Src/test.c **** void wakeup_test(void)
 705:Core/Src/test.c **** {
  52              		.loc 1 705 1 view -0
  53              		.cfi_startproc
  54              		@ args = 0, pretend = 0, frame = 0
  55              		@ frame_needed = 0, uses_anonymous_args = 0
  56 0000 30B5     		push	{r4, r5, lr}
  57              	.LCFI0:
  58              		.cfi_def_cfa_offset 12
  59              		.cfi_offset 4, -12
  60              		.cfi_offset 5, -8
  61              		.cfi_offset 14, -4
  62 0002 85B0     		sub	sp, sp, #20
  63              	.LCFI1:
  64              		.cfi_def_cfa_offset 32
 706:Core/Src/test.c **** 	printf("wake up test\r\n");
  65              		.loc 1 706 2 view .LVU1
  66 0004 2348     		ldr	r0, .L3
  67 0006 FFF7FEFF 		bl	puts
  68              	.LVL0:
ARM GAS  C:\Users\savao\AppData\Local\Temp\cchWCIjp.s 			page 15


 707:Core/Src/test.c **** 	Gui_StrCenter(0,40,RED,BLUE,"STM32F407VxT6最小系统开发板",16,1);//居中显示
  69              		.loc 1 707 2 view .LVU2
  70 000a 0125     		movs	r5, #1
  71 000c 0295     		str	r5, [sp, #8]
  72 000e 1024     		movs	r4, #16
  73 0010 0194     		str	r4, [sp, #4]
  74 0012 214B     		ldr	r3, .L3+4
  75 0014 0093     		str	r3, [sp]
  76 0016 1F23     		movs	r3, #31
  77 0018 4FF47842 		mov	r2, #63488
  78 001c 2821     		movs	r1, #40
  79 001e 0020     		movs	r0, #0
  80 0020 FFF7FEFF 		bl	Gui_StrCenter
  81              	.LVL1:
 708:Core/Src/test.c **** 	Gui_StrCenter(0,65,RED,BLUE,"WAKE UP 测试程序",16,1);//居中显示	
  82              		.loc 1 708 2 view .LVU3
  83 0024 0295     		str	r5, [sp, #8]
  84 0026 0194     		str	r4, [sp, #4]
  85 0028 1C4B     		ldr	r3, .L3+8
  86 002a 0093     		str	r3, [sp]
  87 002c 1F23     		movs	r3, #31
  88 002e 4FF47842 		mov	r2, #63488
  89 0032 4121     		movs	r1, #65
  90 0034 0020     		movs	r0, #0
  91 0036 FFF7FEFF 		bl	Gui_StrCenter
  92              	.LVL2:
 709:Core/Src/test.c **** 	Gui_StrCenter(0,90,RED,BLUE,"press KEY_UP 3s",16,1);//居中显示	
  93              		.loc 1 709 2 view .LVU4
  94 003a 0295     		str	r5, [sp, #8]
  95 003c 0194     		str	r4, [sp, #4]
  96 003e 184B     		ldr	r3, .L3+12
  97 0040 0093     		str	r3, [sp]
  98 0042 1F23     		movs	r3, #31
  99 0044 4FF47842 		mov	r2, #63488
 100 0048 5A21     		movs	r1, #90
 101 004a 0020     		movs	r0, #0
 102 004c FFF7FEFF 		bl	Gui_StrCenter
 103              	.LVL3:
 710:Core/Src/test.c **** 	Gui_StrCenter(0,115,RED,BLUE,"for stand by/wake up",16,1);//居中显示	
 104              		.loc 1 710 2 view .LVU5
 105 0050 0295     		str	r5, [sp, #8]
 106 0052 0194     		str	r4, [sp, #4]
 107 0054 134B     		ldr	r3, .L3+16
 108 0056 0093     		str	r3, [sp]
 109 0058 1F23     		movs	r3, #31
 110 005a 4FF47842 		mov	r2, #63488
 111 005e 7321     		movs	r1, #115
 112 0060 0020     		movs	r0, #0
 113 0062 FFF7FEFF 		bl	Gui_StrCenter
 114              	.LVL4:
 711:Core/Src/test.c **** 	Gui_StrCenter(0,140,BLUE,BLUE,"2020-06-05",16,1);//居中显示
 115              		.loc 1 711 2 view .LVU6
 116 0066 0295     		str	r5, [sp, #8]
 117 0068 0194     		str	r4, [sp, #4]
 118 006a 0F4B     		ldr	r3, .L3+20
 119 006c 0093     		str	r3, [sp]
 120 006e 1F23     		movs	r3, #31
ARM GAS  C:\Users\savao\AppData\Local\Temp\cchWCIjp.s 			page 16


 121 0070 1A46     		mov	r2, r3
 122 0072 8C21     		movs	r1, #140
 123 0074 0020     		movs	r0, #0
 124 0076 FFF7FEFF 		bl	Gui_StrCenter
 125              	.LVL5:
 712:Core/Src/test.c **** 	Gui_StrCenter(0,165,GREEN,BLUE,"http://www.lcdwiki.com",16,1);//居中显示
 126              		.loc 1 712 2 view .LVU7
 127 007a 0295     		str	r5, [sp, #8]
 128 007c 0194     		str	r4, [sp, #4]
 129 007e 0B4B     		ldr	r3, .L3+24
 130 0080 0093     		str	r3, [sp]
 131 0082 1F23     		movs	r3, #31
 132 0084 4FF4FC62 		mov	r2, #2016
 133 0088 A521     		movs	r1, #165
 134 008a 0020     		movs	r0, #0
 135 008c FFF7FEFF 		bl	Gui_StrCenter
 136              	.LVL6:
 713:Core/Src/test.c **** }
 137              		.loc 1 713 1 is_stmt 0 view .LVU8
 138 0090 05B0     		add	sp, sp, #20
 139              	.LCFI2:
 140              		.cfi_def_cfa_offset 12
 141              		@ sp needed
 142 0092 30BD     		pop	{r4, r5, pc}
 143              	.L4:
 144              		.align	2
 145              	.L3:
 146 0094 00000000 		.word	.LC0
 147 0098 10000000 		.word	.LC1
 148 009c 2C000000 		.word	.LC2
 149 00a0 40000000 		.word	.LC3
 150 00a4 50000000 		.word	.LC4
 151 00a8 68000000 		.word	.LC5
 152 00ac 74000000 		.word	.LC6
 153              		.cfi_endproc
 154              	.LFE133:
 156              		.global	gImage_qq
 157              		.section	.rodata.gImage_qq,"a"
 158              		.align	2
 161              	gImage_qq:
 162 0000 FFFFFFFF 		.ascii	"\377\377\377\377\377\377\377\377\377\377\377\377\377"
 162      FFFFFFFF 
 162      FFFFFFFF 
 162      FF
 163 000d FFFFFFFF 		.ascii	"\377\377\377\377\377\377\377\377\377\377\377\377\377"
 163      FFFFFFFF 
 163      FFFFFFFF 
 163      FF
 164 001a FFFFFFFF 		.ascii	"\377\377\377\377\276\367\377\377\336\3778\306\222\214"
 164      BEF7FFFF 
 164      DEFF38C6 
 164      928C
 165 0028 8E6B6E6B 		.ascii	"\216knk\020|\226\255<\347\377\377\377\377\377\377\377"
 165      107C96AD 
 165      3CE7FFFF 
 165      FFFFFFFF 
 165      FF
ARM GAS  C:\Users\savao\AppData\Local\Temp\cchWCIjp.s 			page 17


 166 0039 FFFFFFFF 		.ascii	"\377\377\377\377\377\377\377\377\377\377\377\377\377"
 166      FFFFFFFF 
 166      FFFFFFFF 
 166      FF
 167 0046 FFFFFFFF 		.ascii	"\377\377\377\377\377\377\377\377\377\377\377\377\377"
 167      FFFFFFFF 
 167      FFFFFFFF 
 167      FF
 168 0053 FFFFFFFF 		.ascii	"\377\377\377\377\377\377\377\377\377\377\377\377\377"
 168      FFFFFFFF 
 168      FFFFFFFF 
 168      FF
 169 0060 FFFFFFFF 		.ascii	"\377\377\377\377\377\377\377\377\377\377\377\377\377"
 169      FFFFFFFF 
 169      FFFFFFFF 
 169      FF
 170 006d FF5DEF15 		.ascii	"\377]\357\025\235OclB\0122\210)F\031%\031E!\3501\216"
 170      9D4F636C 
 170      420A3288 
 170      29461925 
 170      194521E8 
 171 0083 6B38C6FF 		.ascii	"k8\306\377\377\377\377\377\377\377\377\377\377\377\377"
 171      FFFFFFFF 
 171      FFFFFFFF 
 171      FFFFFF
 172 0092 FFFFFFFF 		.ascii	"\377\377\377\377\377\377\377\377\377\377\377\377\377"
 172      FFFFFFFF 
 172      FFFFFFFF 
 172      FF
 173 009f FFFFFFFF 		.ascii	"\377\377\377\377\377\377\377\377\377\377\377\377\377"
 173      FFFFFFFF 
 173      FFFFFFFF 
 173      FF
 174 00ac FFFFFFFF 		.ascii	"\377\377\377\377\377\377\377\377\377\377\377\377\377"
 174      FFFFFFFF 
 174      FFFFFFFF 
 174      FF
 175 00b9 FFFFFF36 		.ascii	"\377\377\3776\245\020S\020KQS\017Kl:\3511g!%\031\344"
 175      A5105310 
 175      4B51530F 
 175      4B6C3AE9 
 175      31672125 
 176 00cf 10A30862 		.ascii	"\020\243\010b\000\203\010\313R\232\326\377\377\377\377"
 176      008308CB 
 176      529AD6FF 
 176      FFFFFF
 177 00de FFFFFFFF 		.ascii	"\377\377\377\377\377\377\377\377\377\377\377\377\377"
 177      FFFFFFFF 
 177      FFFFFFFF 
 177      FF
 178 00eb FFFFFFFF 		.ascii	"\377\377\377\377\377\377\377\377\377\377\377\377\377"
 178      FFFFFFFF 
 178      FFFFFFFF 
 178      FF
 179 00f8 FFFFFFFF 		.ascii	"\377\377\377\377\377\377\377\377\377\377\377\377\377"
 179      FFFFFFFF 
 179      FFFFFFFF 
ARM GAS  C:\Users\savao\AppData\Local\Temp\cchWCIjp.s 			page 18


 179      FF
 180 0105 FFFFFF3C 		.ascii	"\377\377\377<\347pc\263c\270|\365c\021CM2\352)\210!"
 180      E77063B3 
 180      63B87CF5 
 180      6311434D 
 180      32EA2988 
 181 011a 26190519 		.ascii	"&\031\005\031\005\031\004\021\004\021\344\020\203\000"
 181      05190411 
 181      0411E410 
 181      8300
 182 0128 A308728C 		.ascii	"\243\010r\214\377\377\377\377\377\377\377\377\377\377"
 182      FFFFFFFF 
 182      FFFFFFFF 
 182      FFFF
 183 0136 FFFFFFFF 		.ascii	"\377\377\377\377\377\377\377\377\377\377\377\377\377"
 183      FFFFFFFF 
 183      FFFFFFFF 
 183      FF
 184 0143 FFFFFFFF 		.ascii	"\377\377\377\377\377\377\377\377\377\377\377\377\377"
 184      FFFFFFFF 
 184      FFFFFFFF 
 184      FF
 185 0150 FFFFFFFF 		.ascii	"\377\377\377\377\377\377\333\336K:\360B5lTK\2612.*\353"
 185      FFFFDBDE 
 185      4B3AF042 
 185      356C544B 
 185      B1322E2A 
 186 0165 21A92167 		.ascii	"!\251!g\031\005\031\004\021\004\021\004\021\004\021"
 186      19051904 
 186      11041104 
 186      110411
 187 0174 04110519 		.ascii	"\004\021\005\031\344\020B\000\257s\377\377\377\377\377"
 187      E4104200 
 187      AF73FFFF 
 187      FFFFFF
 188 0183 FFFFFFFF 		.ascii	"\377\377\377\377\377\377\377\377\377\377\377\377\377"
 188      FFFFFFFF 
 188      FFFFFFFF 
 188      FF
 189 0190 FFFFFFFF 		.ascii	"\377\377\377\377\377\377\377\377\377\377\377\377\377"
 189      FFFFFFFF 
 189      FFFFFFFF 
 189      FF
 190 019d FFFFFFFF 		.ascii	"\377\377\377\377\377\377\377]\357\0112L2\020K\2172O"
 190      FFFFFF5D 
 190      EF09324C 
 190      32104B8F 
 190      324F
 191 01af 2A2E2ACC 		.ascii	"*.*\314\031\211\031\211!G\031\005\031\004\021\004\021"
 191      19891989 
 191      21471905 
 191      19041104 
 191      11
 192 01c0 C410C410 		.ascii	"\304\020\304\020\004\021\004\021\004\021\344\020B\000"
 192      04110411 
 192      0411E410 
 192      4200
ARM GAS  C:\Users\savao\AppData\Local\Temp\cchWCIjp.s 			page 19


 193 01ce 3184FFFF 		.ascii	"1\204\377\377\377\377\377\377\377\377\377\377\377\377"
 193      FFFFFFFF 
 193      FFFFFFFF 
 193      FFFF
 194 01dc FFFFFFFF 		.ascii	"\377\377\377\377\377\377\377\377\377\377\377\377\377"
 194      FFFFFFFF 
 194      FFFFFFFF 
 194      FF
 195 01e9 FFFFFFFF 		.ascii	"\377\377\377\377\377\377\377\377\377\377\377\354RG\031"
 195      FFFFFFFF 
 195      FFFFFFEC 
 195      524719
 196 01f8 4C320B2A 		.ascii	"L2\013*\354!\354!\014\"\221[\356J\006\021&\031\004\031"
 196      EC21EC21 
 196      0C22915B 
 196      EE4A0611 
 196      26190419 
 197 020c E410E410 		.ascii	"\344\020\344\020\247)f!\243\010\005\031\004\021\004"
 197      A7296621 
 197      A3080519 
 197      041104
 198 021b 11E41082 		.ascii	"\021\344\020\202\000\367\275\377\377\377\377\377\377"
 198      00F7BDFF 
 198      FFFFFFFF 
 198      FF
 199 0228 FFFFFFFF 		.ascii	"\377\377\377\377\377\377\377\377\377\377\377\377\377"
 199      FFFFFFFF 
 199      FFFFFFFF 
 199      FF
 200 0235 FFFFFFFF 		.ascii	"\377\377\377\377\377\377\377\377\377\377\377\377\377"
 200      FFFFFFFF 
 200      FFFFFFFF 
 200      FF
 201 0242 35A58308 		.ascii	"5\245\203\010\210!\210!\211!\252!\212!kBq\214\377\377"
 201      88218821 
 201      8921AA21 
 201      8A216B42 
 201      718CFFFF 
 202 0256 728C8308 		.ascii	"r\214\203\010\004\021\304\010)B\373\336]\357\354Z\203"
 202      0411C408 
 202      2942FBDE 
 202      5DEFEC5A 
 202      83
 203 0267 08041104 		.ascii	"\010\004\021\004\021\004\021\203\010\3501\337\377\377"
 203      11041183 
 203      08E831DF 
 203      FFFF
 204 0275 FFFFFFFF 		.ascii	"\377\377\377\377\377\377\377\377\377\377\377\377\377"
 204      FFFFFFFF 
 204      FFFFFFFF 
 204      FF
 205 0282 FFFFFFFF 		.ascii	"\377\377\377\377\377\377\377\377\377\377\377\377\377"
 205      FFFFFFFF 
 205      FFFFFFFF 
 205      FF
 206 028f FFBEF7C7 		.ascii	"\377\276\367\3071\304\020%\031&\031G\031G\031\250)\212"
 206      31C41025 
ARM GAS  C:\Users\savao\AppData\Local\Temp\cchWCIjp.s 			page 20


 206      19261947 
 206      194719A8 
 206      298A
 207 02a1 52284A55 		.ascii	"R(JU\255\377\377\3501\243\010\005\031MkMk\377\377}\357"
 207      ADFFFFE8 
 207      31A30805 
 207      194D6B4D 
 207      6BFFFF7D 
 208 02b6 4521C410 		.ascii	"E!\304\020\004\021\004\021\004\021b\000v\255\377\377"
 208      04110411 
 208      04116200 
 208      76ADFFFF 
 209 02c6 FFFFFFFF 		.ascii	"\377\377\377\377\377\377\377\377\377\377\377\377\377"
 209      FFFFFFFF 
 209      FFFFFFFF 
 209      FF
 210 02d3 FFFFFFFF 		.ascii	"\377\377\377\377\377\377\377\377\377\377\377\377\377"
 210      FFFFFFFF 
 210      FFFFFFFF 
 210      FF
 211 02e0 96B56200 		.ascii	"\226\265b\000\004\021\004\031\005\021\005\031\304\010"
 211      04110419 
 211      05110519 
 211      C408
 212 02ee 8B4AB6B5 		.ascii	"\213J\266\265]\357\367\275\377\377\216kb\000)B\252Z"
 212      5DEFF7BD 
 212      FFFF8E6B 
 212      62002942 
 212      AA5A
 213 0300 0842FFFF 		.ascii	"\010B\377\377\377\377\314R\203\010\004\021\004\021\004"
 213      FFFFCC52 
 213      83080411 
 213      041104
 214 030f 11A308AD 		.ascii	"\021\243\010\255R\377\377\377\377\377\377\377\377\377"
 214      52FFFFFF 
 214      FFFFFFFF 
 214      FFFF
 215 031d FFFFFFFF 		.ascii	"\377\377\377\377\377\377\377\377\377\034\347\377\377"
 215      FFFFFFFF 
 215      FF1CE7FF 
 215      FF
 216 032a FFFFFFFF 		.ascii	"\377\377\377\377\377\377Ncb\000\004\021\004\021\004"
 216      FFFF4E63 
 216      62000411 
 216      041104
 217 0339 11E41062 		.ascii	"\021\344\020b\000\216c\377\377\377\377\377\377\377\377"
 217      008E63FF 
 217      FFFFFFFF 
 217      FFFFFF
 218 0348 CF730100 		.ascii	"\317s\001\000\363\234,c\226\265\377\377\377\377-[\203"
 218      F39C2C63 
 218      96B5FFFF 
 218      FFFF2D5B 
 218      83
 219 0359 00041104 		.ascii	"\000\004\021\004\021\004\021\344\020g!=\357\377\377"
 219      110411E4 
 219      1067213D 
ARM GAS  C:\Users\savao\AppData\Local\Temp\cchWCIjp.s 			page 21


 219      EFFFFF
 220 0368 FFFFFFFF 		.ascii	"\377\377\377\377\377\377\377\377\370\275\267\265\236"
 220      FFFFFFFF 
 220      F8BDB7B5 
 220      9E
 221 0375 EFCB52B3 		.ascii	"\357\313R\263\224\377\377\377\377\337\377\3501\243\010"
 221      94FFFFFF 
 221      FFDFFFE8 
 221      31A308
 222 0384 04110411 		.ascii	"\004\021\004\021\004\021\004\021\243\010IB\377\367\377"
 222      04110411 
 222      A3084942 
 222      FFF7FF
 223 0393 F7FFFFFF 		.ascii	"\367\377\377\377\377jJ\001\000r\204\377\377\377\377"
 223      FF6A4A01 
 223      007284FF 
 223      FFFFFF
 224 03a2 FFF7DFEF 		.ascii	"\377\367\337\357\011:\243\010\004\021\004\021\004\021"
 224      093AA308 
 224      04110411 
 224      0411
 225 03b0 04110511 		.ascii	"\004\021\005\021\030\276\377\377\377\377\377\377\377"
 225      18BEFFFF 
 225      FFFFFFFF 
 225      FF
 226 03bd FFFFFFF0 		.ascii	"\377\377\377\360{b\000\3501\3071A\0005\245\377\377]"
 226      7B6200E8 
 226      31C73141 
 226      0035A5FF 
 226      FF5D
 227 03cf EF4621C4 		.ascii	"\357F!\304\020\004\021\004\021\004\021\004\021\344\020"
 227      10041104 
 227      11041104 
 227      11E410
 228 03de A308769D 		.ascii	"\243\010v\235\377\367\377\377\267\255\243\010\243\010"
 228      FFF7FFFF 
 228      B7ADA308 
 228      A308
 229 03ec C7319EE7 		.ascii	"\3071\236\347\377\367\377\367v\245\243\010\344\020\004"
 229      FFF7FFF7 
 229      76A5A308 
 229      E41004
 230 03fb 11041104 		.ascii	"\021\004\021\004\021\005\021\005\0215\245\377\377\377"
 230      11051105 
 230      1135A5FF 
 230      FFFF
 231 0409 FFFFFFFF 		.ascii	"\377\377\377\377\377\377\377\333\336\247)\203\000\304"
 231      FFFFFFDB 
 231      DEA72983 
 231      00C4
 232 0417 10C410C4 		.ascii	"\020\304\020\304\020\034\347\236\357\005\021\344\020"
 232      101CE79E 
 232      EF0511E4 
 232      10
 233 0424 04110411 		.ascii	"\004\021\004\021\004\021\004\021\004\031\304\010\345"
 233      04110411 
 233      0419C408 
ARM GAS  C:\Users\savao\AppData\Local\Temp\cchWCIjp.s 			page 22


 233      E5
 234 0431 10D16BD1 		.ascii	"\020\321k\321k\305\010d\000\245\010C\000+2w\235\263"
 234      6BC50864 
 234      00A50843 
 234      002B3277 
 234      9DB3
 235 0443 842519C4 		.ascii	"\204%\031\304\020\004\021\004\021\004\021\004\021%\031"
 235      10041104 
 235      11041104 
 235      112519
 236 0452 2609359D 		.ascii	"&\0115\235\377\377\377\377\377\377\377\377\377\377\377"
 236      FFFFFFFF 
 236      FFFFFFFF 
 236      FFFFFF
 237 0461 FFAF7362 		.ascii	"\377\257sb\000\004\031\005\031\202\000\015[\216\233"
 237      00041905 
 237      1982000D 
 237      5B8E9B
 238 0470 62100511 		.ascii	"b\020\005\021\004\021\004\021\004\031\344\020\205\000"
 238      04110411 
 238      0419E410 
 238      8500
 239 047e 0511C439 		.ascii	"\005\021\3049\201Z@{\"\234C\254\003\244\203\233\202"
 239      815A407B 
 239      229C43AC 
 239      03A4839B 
 239      82
 240 048f 728249C2 		.ascii	"r\202I\302\030\244\000\305\000\344\020\004\031\004\021"
 240      18A400C5 
 240      00E41004 
 240      190411
 241 049e 05194719 		.ascii	"\005\031G\031g\021\354Z\276\377\377\377\377\377\377"
 241      6711EC5A 
 241      BEFFFFFF 
 241      FFFFFF
 242 04ad FFFFFFDF 		.ascii	"\377\377\377\337\377\333\336\304\020\344\020\004\021"
 242      FFDBDEC4 
 242      10E41004 
 242      11
 243 04ba 0511A418 		.ascii	"\005\021\244\030\001\300\203\210\344\000\005\031\004"
 243      01C08388 
 243      E4000519 
 243      04
 244 04c7 19C50844 		.ascii	"\031\305\010D!C\203#\325B\376\344\376'\377\007\377\244"
 244      21438323 
 244      D542FEE4 
 244      FE27FF07 
 244      FFA4
 245 04d9 FE64FE03 		.ascii	"\376d\376\003\376\243\375\342\374B\354\203\263$b\345"
 245      FEA3FDE2 
 245      FC42EC83 
 245      B32462E5 
 246 04e9 10C40804 		.ascii	"\020\304\010\004\031&\031\250\031\207!\000\220\323\274"
 246      192619A8 
 246      19872100 
 246      90D3BC
 247 04f8 FFFFFFFF 		.ascii	"\377\377\377\377\377\377\377\377\337\377\377\377\020"
ARM GAS  C:\Users\savao\AppData\Local\Temp\cchWCIjp.s 			page 23


 247      FFFFFFFF 
 247      DFFFFFFF 
 247      10
 248 0505 7C420005 		.ascii	"|B\000\005\031\005\021\203(\001\320D\370\243H\344\000"
 248      19051183 
 248      2801D044 
 248      F8A348E4 
 248      00
 249 0516 C508445A 		.ascii	"\305\010DZ\002\355\342\375\002\376f\376t\377\270\377"
 249      02EDE2FD 
 249      02FE66FE 
 249      74FFB8FF 
 250 0526 73FFE7F6 		.ascii	"s\377\347\366\246\366E\366\244\365\303\374b\374\302"
 250      A6F645F6 
 250      A4F5C3FC 
 250      62FCC2
 251 0535 FCC2FCE3 		.ascii	"\374\302\374\343\313\304I\006\021\210\031\207\001\244"
 251      CBC44906 
 251      11881987 
 251      01A4
 252 0543 9001F8EC 		.ascii	"\220\001\370\354\232\377\377\377\377\377\377\377\377"
 252      9AFFFFFF 
 252      FFFFFFFF 
 252      FF
 253 0550 FFFFFFFF 		.ascii	"\377\377\377\377\276\367\3501\203\000\005\011\202@\001"
 253      BEF7E831 
 253      83000509 
 253      824001
 254 055f C023F885 		.ascii	"\300#\370\205\360\243H\244\000DZ\002\375#\314\302\334"
 254      F0A348A4 
 254      00445A02 
 254      FD23CCC2 
 254      DC
 255 0570 04FE28FE 		.ascii	"\004\376(\376H\366F\366$\366\344\365d\375\343\374b\374"
 255      48F646F6 
 255      24F6E4F5 
 255      64FDE3FC 
 255      62FC
 256 0582 C2FC02E4 		.ascii	"\302\374\002\344\002\334\342\374\244zH\001g\001\304"
 256      02DCE2FC 
 256      A47A4801 
 256      6701C4
 257 0591 7824F802 		.ascii	"x$\370\002\370\204\260}\347\377\377\377\377\377\377"
 257      F884B07D 
 257      E7FFFFFF 
 257      FFFFFF
 258 05a0 FFFFFFFF 		.ascii	"\377\377\377\377\377\377\333\336%\031\243\000\3048\002"
 258      FFFFDBDE 
 258      2519A300 
 258      C43802
 259 05af E022D844 		.ascii	"\340\"\330D\370\246\370\244xc\000C!\203r\2039\202\233"
 259      F8A6F8A4 
 259      78630043 
 259      21837283 
 259      39829B
 260 05c2 21F561FD 		.ascii	"!\365a\375\"\375\342\374\242\374B\374B\374B\374\"\253"
 260      22FDE2FC 
ARM GAS  C:\Users\savao\AppData\Local\Temp\cchWCIjp.s 			page 24


 260      A2FC42FC 
 260      42FC42FC 
 260      22AB
 261 05d4 8341C392 		.ascii	"\203A\303\222\004R&\001%\031\244\230D\370#\370\002\370"
 261      04522601 
 261      2519A498 
 261      44F823F8 
 261      02F8
 262 05e6 A4D09EEF 		.ascii	"\244\320\236\357\377\377\377\377\377\377\377\377\377"
 262      FFFFFFFF 
 262      FFFFFFFF 
 262      FF
 263 05f3 FFFFFFFF 		.ascii	"\377\377\377\377\377\232\326\207)\245\000C\270\"\370"
 263      FF9AD687 
 263      29A50043 
 263      B822F8
 264 0602 23E065F8 		.ascii	"#\340e\370\350\370\007\311\203HB\000\243\000\204\000"
 264      E8F807C9 
 264      83484200 
 264      A3008400 
 265 0612 6329A27A 		.ascii	"c)\242zb\263\242\313b\323\002\273\202\212\2039\244\000"
 265      62B3A2CB 
 265      62D302BB 
 265      828A8339 
 265      A400
 266 0624 E500E500 		.ascii	"\345\000\345\000\345\010\304`d\330D\370$\370#\370\002"
 266      E508C460 
 266      64D844F8 
 266      24F823F8 
 266      02
 267 0635 F88388DB 		.ascii	"\370\203\210\333\306\377\377\377\377\377\377\377\377"
 267      C6FFFFFF 
 267      FFFFFFFF 
 267      FF
 268 0642 FFFFFFFF 		.ascii	"\377\377\377\377\377\377\377\377=\347P[\0101#\350C\370"
 268      FFFFFFFF 
 268      3DE7505B 
 268      083123E8 
 268      43F8
 269 0654 44F065F8 		.ascii	"D\360e\370\011\371\253\371\211\321\006\211\243HB\030"
 269      09F9ABF9 
 269      89D10689 
 269      A3484218 
 270 0664 02004200 		.ascii	"\002\000B\000a\000\202\000b\000b\000\203\000\243 \304"
 270      61008200 
 270      62006200 
 270      8300A320 
 270      C4
 271 0675 50A58885 		.ascii	"P\245\210\205\330e\370D\370D\370#\370#\370\003\320\202"
 271      D865F844 
 271      F844F823 
 271      F823F803 
 271      D082
 272 0687 10C7295D 		.ascii	"\020\307)]\357\377\377\377\377\377\377\377\377\377\377"
 272      EFFFFFFF 
 272      FFFFFFFF 
 272      FFFFFF
ARM GAS  C:\Users\savao\AppData\Local\Temp\cchWCIjp.s 			page 25


 273 0696 FFFFFFFF 		.ascii	"\377\377\377\377\377\377\377\377l2\2458\002\330#\370"
 273      FFFFFFFF 
 273      6C32A538 
 273      02D823F8 
 274 06a6 65F866F8 		.ascii	"e\370f\370\247\370J\371\014\372M\372L\352\013\322\251"
 274      A7F84AF9 
 274      0CFA4DFA 
 274      4CEA0BD2 
 274      A9
 275 06b7 B968B147 		.ascii	"\271h\261G\251'\261\007\271\007\321\347\350\307\370"
 275      A927B107 
 275      B907D1E7 
 275      E8C7F8
 276 06c6 A7F865F8 		.ascii	"\247\370e\370e\370D\370#\370\003\370\002\320\243(\005"
 276      65F844F8 
 276      23F803F8 
 276      02D0A328 
 276      05
 277 06d7 09C408EC 		.ascii	"\011\304\010\354Z\377\377\377\377\377\377\377\377\377"
 277      5AFFFFFF 
 277      FFFFFFFF 
 277      FFFF
 278 06e5 FFFFFFFF 		.ascii	"\377\377\377\377\377\377\377\373\336\005\031\304\000"
 278      FFFFFFFB 
 278      DE0519C4 
 278      00
 279 06f2 A741E6C0 		.ascii	"\247A\346\300\003\370\206\370\247\370\207\370\206\370"
 279      03F886F8 
 279      A7F887F8 
 279      86F8
 280 0700 C7F829F9 		.ascii	"\307\370)\371\212\371\253\371\253\371\213\371j\371)"
 280      8AF9ABF9 
 280      ABF98BF9 
 280      6AF929
 281 070f F908F9C7 		.ascii	"\371\010\371\307\370\246\370\206\370e\370d\370#\370"
 281      F8A6F886 
 281      F865F864 
 281      F823F8
 282 071e 02F006B1 		.ascii	"\002\360\006\261%)\344\000\344\020%\031%\031\024\235"
 282      2529E400 
 282      E4102519 
 282      2519149D 
 283 072e FFFFFFFF 		.ascii	"\377\377\377\377\377\377\377\377\377\377\377\377\377"
 283      FFFFFFFF 
 283      FFFFFFFF 
 283      FF
 284 073b FF96AD62 		.ascii	"\377\226\255b\000\202\0105\225\272\316\213\242D\320"
 284      00820835 
 284      95BACE8B 
 284      A244D0
 285 074a 25F887F8 		.ascii	"%\370\207\370\247\370\307\370\247\370\207\370\206\370"
 285      A7F8C7F8 
 285      A7F887F8 
 285      86F8
 286 0758 86F886F8 		.ascii	"\206\370\206\370\207\370\247\370\247\370\246\370\205"
 286      87F8A7F8 
 286      A7F8A6F8 
ARM GAS  C:\Users\savao\AppData\Local\Temp\cchWCIjp.s 			page 26


 286      85
 287 0765 F865F864 		.ascii	"\370e\370d\370$\360d\270\015\223\273\266\317c\203\010"
 287      F824F064 
 287      B80D93BB 
 287      B6CF6383 
 287      08
 288 0776 0411E410 		.ascii	"\004\021\344\020f!I:]\357\377\377\377\377\377\377\377"
 288      6621493A 
 288      5DEFFFFF 
 288      FFFFFFFF 
 288      FF
 289 0787 FFFFFFFF 		.ascii	"\377\377\377\377\377\323\224B\000\344\020\273\316\377"
 289      FFD39442 
 289      00E410BB 
 289      CEFF
 290 0795 FFBEE776 		.ascii	"\377\276\347v\265\314\252\007\301E\340E\370F\370f\370"
 290      B5CCAA07 
 290      C145E045 
 290      F846F866 
 290      F8
 291 07a6 86F886F8 		.ascii	"\206\370\206\370\206\370\206\370e\370E\370e\370e\350"
 291      86F886F8 
 291      65F845F8 
 291      65F865E8 
 292 07b6 44D043A8 		.ascii	"D\320C\250\001\210\202\220<\327\377\357U\225\203\010"
 292      01888290 
 292      3CD7FFEF 
 292      55958308 
 293 07c6 04110411 		.ascii	"\004\021\004\021\005\031F\031\263\224"
 293      05194619 
 293      B394
 294 07d0 FFFFFFFF 		.ascii	"\377\377\377\377\377\377\377\377\377\377\377\377\263"
 294      FFFFFFFF 
 294      FFFFFFFF 
 294      B3
 295 07dd 94410086 		.ascii	"\224A\000\206!]\337\377\377\377\377\377\377\337\347"
 295      215DDFFF 
 295      FFFFFFFF 
 295      FFDFE7
 296 07ec 7AC6D3B4 		.ascii	"z\306\323\264N\263*\302h\321\346\340\246\350\245\350"
 296      4EB32AC2 
 296      68D1E6E0 
 296      A6E8A5E8 
 297 07fc A5E8E6D8 		.ascii	"\245\350\346\330\210\311\006\251\"\250\002\250\000\240"
 297      88C906A9 
 297      22A802A8 
 297      00A0
 298 080a 00C800D8 		.ascii	"\000\310\000\330\367\345\377\347\370\255\304\020\344"
 298      F7E5FFE7 
 298      F8ADC410 
 298      E4
 299 0817 100411E4 		.ascii	"\020\004\021\344\020\005\021\213J\377\377\377\377\377"
 299      1005118B 
 299      4AFFFFFF 
 299      FFFF
 300 0825 FFFFFFFF 		.ascii	"\377\377\377\377\377\377\377U\245A\000\247)]\337\377"
 300      FFFFFF55 
ARM GAS  C:\Users\savao\AppData\Local\Temp\cchWCIjp.s 			page 27


 300      A54100A7 
 300      295DDFFF 
 301 0835 F7FFFFFF 		.ascii	"\367\377\377\377\377\377\377\377\377\377\377\377\357"
 301      FFFFFFFF 
 301      FFFFFFFF 
 301      EF
 302 0842 7DDFDBCE 		.ascii	"}\337\333\316Y\316\370\315\327\315\367\305y\316\373"
 302      59CEF8CD 
 302      D7CDF7C5 
 302      79CEFB
 303 0851 BEABA203 		.ascii	"\276\253\242\003\360E\370B\320C\350\000\360r\324\377"
 303      F045F842 
 303      D043E800 
 303      F072D4FF 
 304 0861 DF39AEE4 		.ascii	"\3379\256\344\020\344\020\004\021\344\020\005\021\207"
 304      10E41004 
 304      11E41005 
 304      1187
 305 086f 29FFFFFF 		.ascii	")\377\377\377\377\377\377\377\377\377\377\377\377Y\316"
 305      FFFFFFFF 
 305      FFFFFFFF 
 305      FF59CE
 306 087e 83084621 		.ascii	"\203\010F!\034\327\377\367\377\377\377\377\377\377\377"
 306      1CD7FFF7 
 306      FFFFFFFF 
 306      FFFFFF
 307 088d FFFFFFFF 		.ascii	"\377\377\377\377\377\377\377\377\377\377\377\377\377"
 307      FFFFFFFF 
 307      FFFFFFFF 
 307      FF
 308 089a FFFFFFFF 		.ascii	"\377\377\377\377\377\377\377\357\213\272\004\370E\370"
 308      FFFFFFEF 
 308      8BBA04F8 
 308      45F8
 309 08a8 62E044F0 		.ascii	"b\340D\360\000\370\216\333\377\337\370\245\304\020\344"
 309      00F88EDB 
 309      FFDFF8A5 
 309      C410E4
 310 08b7 10E41004 		.ascii	"\020\344\020\004\021\344\020%\031\377\377\377\377\377"
 310      11E41025 
 310      19FFFFFF 
 310      FFFF
 311 08c5 FFFFFFFF 		.ascii	"\377\377\377\377\377\377\377\276\367\207)\203\0109\266"
 311      FFFFFFBE 
 311      F7872983 
 311      0839B6
 312 08d4 FFF7DFF7 		.ascii	"\377\367\337\367\377\377\377\377\377\377\377\377\377"
 312      FFFFFFFF 
 312      FFFFFFFF 
 312      FF
 313 08e1 FFFFFFFF 		.ascii	"\377\377\377\377\377\377\377\377\377\377\377\377\377"
 313      FFFFFFFF 
 313      FFFFFFFF 
 313      FF
 314 08ee FFFFBEE7 		.ascii	"\377\377\276\347J\272\003\370E\370d\370D\370\000\370"
 314      4ABA03F8 
 314      45F864F8 
ARM GAS  C:\Users\savao\AppData\Local\Temp\cchWCIjp.s 			page 28


 314      44F800F8 
 315 08fe 6EE3FFD7 		.ascii	"n\343\377\327\364\214\203\010\004\021\344\020\344\020"
 315      F48C8308 
 315      0411E410 
 315      E410
 316 090c E4100519 		.ascii	"\344\020\005\031\377\377\377\377\377\377\377\377\377"
 316      FFFFFFFF 
 316      FFFFFFFF 
 316      FF
 317 0919 FFFFFFFF 		.ascii	"\377\377\377\377\377\357s\000\000r\204\377\357\276\357"
 317      FFEF7300 
 317      007284FF 
 317      EFBEEF
 318 0928 DFFFFFFF 		.ascii	"\337\377\377\377\377\377\377\377\377\377\377\377\377"
 318      FFFFFFFF 
 318      FFFFFFFF 
 318      FF
 319 0935 FFFFFFFF 		.ascii	"\377\377\377\377\377\377\377\377\377\377\377\337\347"
 319      FFFFFFFF 
 319      FFFFFFDF 
 319      E7
 320 0942 8BBA03F8 		.ascii	"\213\272\003\370E\370E\370#\370\000\370\323\324\377"
 320      45F845F8 
 320      23F800F8 
 320      D3D4FF
 321 0951 D74E5B21 		.ascii	"\327N[!\000):U\245\203\010\304\020%\031\377\377\377"
 321      00293A55 
 321      A58308C4 
 321      102519FF 
 321      FFFF
 322 0963 FFFFFFFF 		.ascii	"\377\377\377\377\377\377\377\377\377\377\377\373\336"
 322      FFFFFFFF 
 322      FFFFFFFB 
 322      DE
 323 0970 A308E831 		.ascii	"\243\010\3501\236\337\236\347\277\357\377\377\377\377"
 323      9EDF9EE7 
 323      BFEFFFFF 
 323      FFFF
 324 097e FFFFFFFF 		.ascii	"\377\377\377\377\377\377\377\377\377\377\377\377\377"
 324      FFFFFFFF 
 324      FFFFFFFF 
 324      FF
 325 098b FFFFFFFF 		.ascii	"\377\377\377\377\377\377\367Q\274\002\340\003\370\003"
 325      FFFFF751 
 325      BC02E003 
 325      F803
 326 0999 F043E0EC 		.ascii	"\360C\340\354\302~\317\374\276F!!\000\323\224\377\377"
 326      C27ECFFC 
 326      BE462121 
 326      00D394FF 
 326      FF
 327 09aa 51840000 		.ascii	"Q\204\000\000\207)\377\377\377\377\377\377\377\377\377"
 327      8729FFFF 
 327      FFFFFFFF 
 327      FFFFFF
 328 09b9 FFFFFFFF 		.ascii	"\377\377\377\377\377\377\377Q\204\000\000\364\214\377"
 328      FFFFFF51 
ARM GAS  C:\Users\savao\AppData\Local\Temp\cchWCIjp.s 			page 29


 328      840000F4 
 328      8CFF
 329 09c7 EF9EE7BF 		.ascii	"\357\236\347\277\357\337\377\377\377\377\377\377\377"
 329      EFDFFFFF 
 329      FFFFFFFF 
 329      FF
 330 09d4 FFFFFFFF 		.ascii	"\377\377\377\377\377\377\377\377\377\377\377\377\377"
 330      FFFFFFFF 
 330      FFFFFFFF 
 330      FF
 331 09e1 FF3DDF55 		.ascii	"\377=\337U\275R\274r\274\267\265]\307\377\337\360k\000"
 331      BD52BC72 
 331      BCB7B55D 
 331      C7FFDFF0 
 331      6B00
 332 09f3 00093ABF 		.ascii	"\000\011:\277\367\377\377\377\377\024\235U\245\377\377"
 332      F7FFFFFF 
 332      FF149D55 
 332      A5FFFF
 333 0a02 FFFFFFFF 		.ascii	"\377\377\377\377\377\377\377\377\377\377\377\377\377"
 333      FFFFFFFF 
 333      FFFFFFFF 
 333      FF
 334 0a0f FFFFFFAC 		.ascii	"\377\377\377\254J\244\010\273\276\337\347~\347\276\357"
 334      4AA408BB 
 334      BEDFE77E 
 334      E7BEEF
 335 0a1e DFF7DFFF 		.ascii	"\337\367\337\377\377\377\377\377\377\377\377\377\377"
 335      FFFFFFFF 
 335      FFFFFFFF 
 335      FF
 336 0a2b FFFFFFFF 		.ascii	"\377\377\377\377\377\337\377\337\367\377\357\337\337"
 336      FFDFFFDF 
 336      F7FFEFDF 
 336      DF
 337 0a38 BFD79ED7 		.ascii	"\277\327\236\327\337\337\330\245\203\010&\021\333\326"
 337      DFDFD8A5 
 337      83082611 
 337      DBD6
 338 0a46 FFFFFFFF 		.ascii	"\377\377\377\377\377\377\377\377\377\377\377\377\377"
 338      FFFFFFFF 
 338      FFFFFFFF 
 338      FF
 339 0a53 FFFFFFFF 		.ascii	"\377\377\377\377\377\377\377\377\377\377\377\377\377"
 339      FFFFFFFF 
 339      FFFFFFFF 
 339      FF
 340 0a60 79EE8BDC 		.ascii	"y\356\213\334!1\251!=\317\277\337~\337\236\347\276\357"
 340      2131A921 
 340      3DCFBFDF 
 340      7EDF9EE7 
 340      BEEF
 341 0a72 BFEFDFF7 		.ascii	"\277\357\337\367\337\367\337\367\337\367\337\367\277"
 341      DFF7DFF7 
 341      DFF7DFF7 
 341      BF
 342 0a7f EFBEEF9E 		.ascii	"\357\276\357\236\347~\337^\327^\327\337\337\232\266"
ARM GAS  C:\Users\savao\AppData\Local\Temp\cchWCIjp.s 			page 30


 342      E77EDF5E 
 342      D75ED7DF 
 342      DF9AB6
 343 0a8e 26194208 		.ascii	"&\031B\010\355\243\277\377\377\377\377\377\377\377\377"
 343      EDA3BFFF 
 343      FFFFFFFF 
 343      FFFFFF
 344 0a9d FFFFFFFF 		.ascii	"\377\377\377\377\377\377\377\377\377\377\377\377\377"
 344      FFFFFFFF 
 344      FFFFFFFF 
 344      FF
 345 0aaa FFFFFFFF 		.ascii	"\377\377\377\377t\335\300\333\000\376B\356\002B\211"
 345      74DDC0DB 
 345      00FE42EE 
 345      024289
 346 0ab9 217BB6DF 		.ascii	"!{\266\337\337~\327~\337~\337\236\347\236\347\236\347"
 346      DF7ED77E 
 346      DF7EDF9E 
 346      E79EE79E 
 346      E7
 347 0aca 9EE79EE7 		.ascii	"\236\347\236\347~\337~\337]\327]\327\236\337\377\347"
 347      7EDF7EDF 
 347      5DD75DD7 
 347      9EDFFFE7 
 348 0ada F8A50711 		.ascii	"\370\245\007\021\343\030\002\305`\375\346\323\333\356"
 348      E31802C5 
 348      60FDE6D3 
 348      DBEE
 349 0ae8 FFFFFFFF 		.ascii	"\377\377\377\377\377\377\377\377\377\377\377\377\377"
 349      FFFFFFFF 
 349      FFFFFFFF 
 349      FF
 350 0af5 FFFFFFFF 		.ascii	"\377\377\377\377\377\377\377\236\367\204\272\301\374"
 350      FFFFFF9E 
 350      F784BAC1 
 350      FC
 351 0b02 42FE82FE 		.ascii	"B\376\202\376\242\376\201\203E!tt^\307\337\337~\327"
 351      A2FE8183 
 351      45217474 
 351      5EC7DFDF 
 351      7ED7
 352 0b14 5ED75DD7 		.ascii	"^\327]\327^\327^\327]\327]\327^\327\236\337\377\347"
 352      5ED75ED7 
 352      5DD75DD7 
 352      5ED79EDF 
 352      FFE7
 353 0b26 3DC7F163 		.ascii	"=\307\361c\204\010BR&\346)\377\206\376\340\363j\303"
 353      84084252 
 353      26E629FF 
 353      86FEE0F3 
 353      6AC3
 354 0b38 FFFFFFFF 		.ascii	"\377\377\377\377\377\377\377\377\377\377\377\377\377"
 354      FFFFFFFF 
 354      FFFFFFFF 
 354      FF
 355 0b45 FFFFFFFF 		.ascii	"\377\377\377\377\377\377\377\030\336\301\322\242\375"
 355      FFFFFF18 
ARM GAS  C:\Users\savao\AppData\Local\Temp\cchWCIjp.s 			page 31


 355      DEC1D2A2 
 355      FD
 356 0b52 22FE42FE 		.ascii	"\"\376B\376B\376b\376\342\324AjIBSt;\246>\307\277\327"
 356      42FE62FE 
 356      E2D4416A 
 356      49425374 
 356      3BA63EC7 
 357 0b68 BFD7BFD7 		.ascii	"\277\327\277\327\277\337\277\327>\307\032\246\362c\247"
 357      BFDFBFD7 
 357      3EC71AA6 
 357      F263A7
 358 0b77 29824122 		.ascii	")\202A\"\264b\376\203\376\252\376\017\377g\375c\272"
 358      B462FE83 
 358      FEAAFE0F 
 358      FF67FD63 
 358      BA
 359 0b88 3CEFFFFF 		.ascii	"<\357\377\377\377\377\377\377\377\377\377\377\377\377"
 359      FFFFFFFF 
 359      FFFFFFFF 
 359      FFFF
 360 0b96 FFFFFFFF 		.ascii	"\377\377\377\377\377\377\232\346\200\322!\375\302\375"
 360      FFFF9AE6 
 360      80D221FD 
 360      C2FD
 361 0ba4 E2F5C2F5 		.ascii	"\342\365\302\365\202\365\202\375b\375a\334!\233\204"
 361      82F582FD 
 361      62FD61DC 
 361      219B84
 362 0bb3 6AE96A2C 		.ascii	"j\351j,c\257c\021tnc,c\211Z\004R\201z\302\313\342\374"
 362      63AF6311 
 362      746E632C 
 362      63895A04 
 362      52817AC2 
 363 0bca 62FD82FD 		.ascii	"b\375\202\375\302\375\302\375\344\375$\375b\312\034"
 363      C2FDC2FD 
 363      E4FD24FD 
 363      62CA1C
 364 0bd9 E7FFFFFF 		.ascii	"\347\377\377\377\377\377\377\377\377\377\377\377\377"
 364      FFFFFFFF 
 364      FFFFFFFF 
 364      FF
 365 0be6 FFFFFFFF 		.ascii	"\377\377\377\377\377\377\377\377\261\314\201\322\300"
 365      FFFFFFFF 
 365      B1CC81D2 
 365      C0
 366 0bf3 F3C1FC02 		.ascii	"\363\301\374\002\375\002\375\342\374\302\374\302\374"
 366      FD02FDE2 
 366      FCC2FCC2 
 366      FC
 367 0c00 81FC80FB 		.ascii	"\201\374\200\373\300\311\244\2015\255Y\316q\234!\201"
 367      C0C9A481 
 367      35AD59CE 
 367      719C2181 
 368 0c10 00DAA1FB 		.ascii	"\000\332\241\373\202\374\242\374\202\374\242\374\002"
 368      82FCA2FC 
 368      82FCA2FC 
 368      02
ARM GAS  C:\Users\savao\AppData\Local\Temp\cchWCIjp.s 			page 32


 369 0c1d FD22FDE2 		.ascii	"\375\"\375\342\374\000\374`\332\220\314\377\377\377"
 369      FC00FC60 
 369      DA90CCFF 
 369      FFFF
 370 0c2b FFFFFFFF 		.ascii	"\377\377\377\377\377\377\377\377\377\377\377\377\377"
 370      FFFFFFFF 
 370      FFFFFFFF 
 370      FF
 371 0c38 FFFFFFFF 		.ascii	"\377\377\377\377\377\377\377\377Y\336\015\304\006\313"
 371      FFFFFFFF 
 371      59DE0DC4 
 371      06CB
 372 0c46 E4D203DB 		.ascii	"\344\322\003\333\003\333\343\332\303\322\244\302\011"
 372      03DBE3DA 
 372      C3D2A4C2 
 372      09
 373 0c53 B3D2BC9E 		.ascii	"\263\322\274\236\367\377\377\377\377\377\377\373\346"
 373      F7FFFFFF 
 373      FFFFFFFB 
 373      E6
 374 0c60 0EB4A6BA 		.ascii	"\016\264\246\272\203\322\343\342\002\353\"\353\"\343"
 374      83D2E3E2 
 374      02EB22EB 
 374      22E3
 375 0c6e 03DBE4D2 		.ascii	"\003\333\344\322j\303\266\325\377\377\377\377\377\377"
 375      6AC3B6D5 
 375      FFFFFFFF 
 375      FFFF
 376 0c7c FFFFFFFF 		.ascii	"\377\377\377\377"
 377              		.text
 378              	.Letext0:
 379              		.file 2 "Core/Inc/pic.h"
 380              		.file 3 "<built-in>"
 381              		.file 4 "Core/Inc/gui.h"
ARM GAS  C:\Users\savao\AppData\Local\Temp\cchWCIjp.s 			page 33

