ARM GAS  C:\Users\savao\AppData\Local\Temp\ccVfuo0d.s 			page 1


   1              		.cpu cortex-m4
   2              		.eabi_attribute 27, 1
   3              		.eabi_attribute 28, 1
   4              		.eabi_attribute 20, 1
   5              		.eabi_attribute 21, 1
   6              		.eabi_attribute 23, 3
   7              		.eabi_attribute 24, 1
   8              		.eabi_attribute 25, 1
   9              		.eabi_attribute 26, 1
  10              		.eabi_attribute 30, 1
  11              		.eabi_attribute 34, 1
  12              		.eabi_attribute 18, 4
  13              		.file	"test.c"
  14              		.section	.rodata.str1.4,"aMS",%progbits,1
  15              		.align	2
  16              	.LC0:
  17 0000 526F7461 		.ascii	"Rotation:0\000"
  17      74696F6E 
  17      3A3000
  18 000b 00       		.align	2
  19              	.LC1:
  20 000c 526F7461 		.ascii	"Rotation:90\000"
  20      74696F6E 
  20      3A393000 
  21              		.align	2
  22              	.LC2:
  23 0018 526F7461 		.ascii	"Rotation:180\000"
  23      74696F6E 
  23      3A313830 
  23      00
  24 0025 000000   		.align	2
  25              	.LC3:
  26 0028 526F7461 		.ascii	"Rotation:270\000"
  26      74696F6E 
  26      3A323730 
  26      00
  27              		.text
  28              	.Ltext0:
  29              		.cfi_sections	.debug_frame
  30              		.section	.rodata.DrawTestPage.str1.4,"aMS",%progbits,1
  31              		.align	2
  32              	.LC5:
  33 0000 68747470 		.ascii	"http://www.lcdwiki.com\000"
  33      3A2F2F77 
  33      77772E6C 
  33      63647769 
  33      6B692E63 
  34              		.section	.text.DrawTestPage,"ax",%progbits
  35              		.align	1
  36              		.global	DrawTestPage
  37              		.arch armv7e-m
  38              		.syntax unified
  39              		.thumb
  40              		.thumb_func
  41              		.fpu fpv4-sp-d16
  43              	DrawTestPage:
  44              	.LVL0:
ARM GAS  C:\Users\savao\AppData\Local\Temp\ccVfuo0d.s 			page 2


  45              	.LFB133:
  46              		.file 1 "Core/Src/test.c"
   1:Core/Src/test.c **** //////////////////////////////////////////////////////////////////////////////////	 
   2:Core/Src/test.c **** //本程序只供学习使用，未经作者许可，不得用于其它商业用途
   3:Core/Src/test.c **** //测试硬件：单片机STM32F407VGT6,STM32F407VxT6最小系统开发板,主频168MHZ，晶振8MHZ
   4:Core/Src/test.c **** //QDtech-TFT液晶驱动 for STM32 FSMC
   5:Core/Src/test.c **** //Chan@ShenZhen QDtech co.,LTD
   6:Core/Src/test.c **** //公司网站:www.qdtft.com
   7:Core/Src/test.c **** //wiki技术资料网站：http://www.lcdwiki.com
   8:Core/Src/test.c **** //我司提供技术支持，任何技术问题欢迎随时交流学习
   9:Core/Src/test.c **** //固话(传真) :+86 0755-21077707 
  10:Core/Src/test.c **** //手机: (销售)18823372746 （技术)15989313508
  11:Core/Src/test.c **** //邮箱:(销售/订单) sales@qdtft.com  (售后/技术服务)service@qdtft.com
  12:Core/Src/test.c **** //QQ:(售前咨询)3002706772 (技术支持)3002778157
  13:Core/Src/test.c **** //技术交流QQ群:778679828
  14:Core/Src/test.c **** //创建日期:2020/06/29
  15:Core/Src/test.c **** //版本：V1.0
  16:Core/Src/test.c **** //版权所有，盗版必究。
  17:Core/Src/test.c **** //Copyright(C) 深圳市全动电子技术有限公司 2018-2028
  18:Core/Src/test.c **** //All rights reserved
  19:Core/Src/test.c **** /************************************************************************************
  20:Core/Src/test.c **** //STM32F407VxT6最小系统开发板TFT LCD示例
  21:Core/Src/test.c **** //支持ILI9341/ILI9486/ILI9488/ST7793/ST7796S/R61509/NT35310/NT35510/SSD1963
  22:Core/Src/test.c **** //TFT LCD可以直接插入STM32F407VxT6最小系统开发板TFTLCD插槽或者通过排线接入TFTLCD插座
  23:Core/Src/test.c **** //STM32连接引脚是指TFTLCD插槽或者插座引脚内部连接的STM32引脚
  24:Core/Src/test.c **** //=================================电源接线=======================================//
  25:Core/Src/test.c **** //     LCD模块                    STM32连接引脚
  26:Core/Src/test.c **** //      VDD           --->           DC5V/3.3V          //电源
  27:Core/Src/test.c **** //      GND           --->             GND              //电源地
  28:Core/Src/test.c **** //=============================液晶屏数据线接线===================================//
  29:Core/Src/test.c **** //     LCD模块                    STM32连接引脚
  30:Core/Src/test.c **** //      DB0           --->            PD14        -|   
  31:Core/Src/test.c **** //      DB1           --->            PD15         |  
  32:Core/Src/test.c **** //      DB2           --->            PD0          | 
  33:Core/Src/test.c **** //      DB3           --->            PD1          | 
  34:Core/Src/test.c **** //      DB4           --->            PE7          |
  35:Core/Src/test.c **** //      DB5           --->            PE8          |
  36:Core/Src/test.c **** //      DB6           --->            PE9          |
  37:Core/Src/test.c **** //      DB7           --->            PE10         |===>液晶屏16位并口数据信号
  38:Core/Src/test.c **** //      DB8           --->            PE11         |
  39:Core/Src/test.c **** //      DB9           --->            PE12         |
  40:Core/Src/test.c **** //      DB10          --->            PE13         |
  41:Core/Src/test.c **** //      DB11          --->            PE14         |
  42:Core/Src/test.c **** //      DB12          --->            PE15         |
  43:Core/Src/test.c **** //      DB13          --->            PD8          |
  44:Core/Src/test.c **** //      DB14          --->            PD9          |
  45:Core/Src/test.c **** //      DB15          --->            PD10        -|
  46:Core/Src/test.c **** //=============================液晶屏控制线接线===================================//
  47:Core/Src/test.c **** //     LCD模块 				            STM32连接引脚 
  48:Core/Src/test.c **** //      WR            --->            PD5             //液晶屏写数据控制信号
  49:Core/Src/test.c **** //      RD            --->            PD4             //液晶屏读数据控制信号
  50:Core/Src/test.c **** //      RS            --->            PD11            //液晶屏数据/命令控制信号
  51:Core/Src/test.c **** //      RST           --->          复位引脚（默认）  //液晶屏复位控制信号（也可选择PD13）
  52:Core/Src/test.c **** //      CS            --->            PD7             //液晶屏片选控制信号
  53:Core/Src/test.c **** //      BL            --->            PB15            //液晶屏背光控制信号
  54:Core/Src/test.c **** *************************************************************************************/	
  55:Core/Src/test.c ****  /* @attention
ARM GAS  C:\Users\savao\AppData\Local\Temp\ccVfuo0d.s 			page 3


  56:Core/Src/test.c ****   *
  57:Core/Src/test.c ****   * THE PRESENT FIRMWARE WHICH IS FOR GUIDANCE ONLY AIMS AT PROVIDING CUSTOMERS
  58:Core/Src/test.c ****   * WITH CODING INFORMATION REGARDING THEIR PRODUCTS IN ORDER FOR THEM TO SAVE
  59:Core/Src/test.c ****   * TIME. AS A RESULT, QD electronic SHALL NOT BE HELD LIABLE FOR ANY
  60:Core/Src/test.c ****   * DIRECT, INDIRECT OR CONSEQUENTIAL DAMAGES WITH RESPECT TO ANY CLAIMS ARISING
  61:Core/Src/test.c ****   * FROM THE CONTENT OF SUCH FIRMWARE AND/OR THE USE MADE BY CUSTOMERS OF THE
  62:Core/Src/test.c ****   * CODING INFORMATION CONTAINED HEREIN IN CONNECTION WITH THEIR PRODUCTS.
  63:Core/Src/test.c **** *************************************************************************************/	
  64:Core/Src/test.c **** #include <stdio.h>
  65:Core/Src/test.c **** #include <string.h>
  66:Core/Src/test.c **** #include "lcd.h"
  67:Core/Src/test.c **** #include "delay.h"
  68:Core/Src/test.c **** #include "gui.h"
  69:Core/Src/test.c **** #include "test.h"
  70:Core/Src/test.c **** #include "led.h"
  71:Core/Src/test.c **** #include "pic.h"
  72:Core/Src/test.c **** 
  73:Core/Src/test.c **** //========================variable==========================//
  74:Core/Src/test.c **** u16 ColorTab[5]={RED,GREEN,BLUE,YELLOW,BRED};//定义颜色数组
  75:Core/Src/test.c **** u16 ColornTab[8]={RED,MAGENTA,GREEN,DARKBLUE,BLUE,BLACK,LIGHTGREEN};
  76:Core/Src/test.c **** //=====================end of variable======================//
  77:Core/Src/test.c **** 
  78:Core/Src/test.c **** /*****************************************************************************
  79:Core/Src/test.c ****  * @name       :void DrawTestPage(u8 *str)
  80:Core/Src/test.c ****  * @date       :2018-08-09 
  81:Core/Src/test.c ****  * @function   :Drawing test interface
  82:Core/Src/test.c ****  * @parameters :str:the start address of the Chinese and English strings
  83:Core/Src/test.c ****  * @retvalue   :None
  84:Core/Src/test.c **** ******************************************************************************/ 
  85:Core/Src/test.c **** void DrawTestPage(u8 *str)
  86:Core/Src/test.c **** {
  47              		.loc 1 86 1 view -0
  48              		.cfi_startproc
  49              		@ args = 0, pretend = 0, frame = 0
  50              		@ frame_needed = 0, uses_anonymous_args = 0
  51              		.loc 1 86 1 is_stmt 0 view .LVU1
  52 0000 2DE9F043 		push	{r4, r5, r6, r7, r8, r9, lr}
  53              	.LCFI0:
  54              		.cfi_def_cfa_offset 28
  55              		.cfi_offset 4, -28
  56              		.cfi_offset 5, -24
  57              		.cfi_offset 6, -20
  58              		.cfi_offset 7, -16
  59              		.cfi_offset 8, -12
  60              		.cfi_offset 9, -8
  61              		.cfi_offset 14, -4
  62 0004 85B0     		sub	sp, sp, #20
  63              	.LCFI1:
  64              		.cfi_def_cfa_offset 48
  65 0006 8146     		mov	r9, r0
  87:Core/Src/test.c **** POINT_COLOR=WHITE;
  66              		.loc 1 87 1 is_stmt 1 view .LVU2
  67              		.loc 1 87 12 is_stmt 0 view .LVU3
  68 0008 4FF6FF75 		movw	r5, #65535
  69 000c 1F4B     		ldr	r3, .L3
  70 000e 1D80     		strh	r5, [r3]	@ movhi
  88:Core/Src/test.c **** //绘制固定栏up
ARM GAS  C:\Users\savao\AppData\Local\Temp\ccVfuo0d.s 			page 4


  89:Core/Src/test.c **** LCD_Fill(0,0,lcddev.width,20,BLUE);
  71              		.loc 1 89 1 is_stmt 1 view .LVU4
  72 0010 1F4C     		ldr	r4, .L3+4
  73 0012 1F26     		movs	r6, #31
  74 0014 0096     		str	r6, [sp]
  75 0016 1423     		movs	r3, #20
  76 0018 A288     		ldrh	r2, [r4, #4]
  77 001a 0021     		movs	r1, #0
  78 001c 0846     		mov	r0, r1
  79              	.LVL1:
  80              		.loc 1 89 1 is_stmt 0 view .LVU5
  81 001e FFF7FEFF 		bl	LCD_Fill
  82              	.LVL2:
  90:Core/Src/test.c **** Gui_StrCenter(0,2,WHITE,BLUE,str,16,1);//居中显示
  83              		.loc 1 90 1 is_stmt 1 view .LVU6
  84 0022 4FF00108 		mov	r8, #1
  85 0026 CDF80880 		str	r8, [sp, #8]
  86 002a 1027     		movs	r7, #16
  87 002c 0197     		str	r7, [sp, #4]
  88 002e CDF80090 		str	r9, [sp]
  89 0032 3346     		mov	r3, r6
  90 0034 2A46     		mov	r2, r5
  91 0036 0221     		movs	r1, #2
  92 0038 0020     		movs	r0, #0
  93 003a FFF7FEFF 		bl	Gui_StrCenter
  94              	.LVL3:
  91:Core/Src/test.c **** //绘制固定栏down
  92:Core/Src/test.c **** LCD_Fill(0,lcddev.height-20,lcddev.width-1,lcddev.height-1,BLUE);
  95              		.loc 1 92 1 view .LVU7
  96              		.loc 1 92 18 is_stmt 0 view .LVU8
  97 003e E188     		ldrh	r1, [r4, #6]
  98              		.loc 1 92 35 view .LVU9
  99 0040 A288     		ldrh	r2, [r4, #4]
 100              		.loc 1 92 1 view .LVU10
 101 0042 4B1E     		subs	r3, r1, #1
 102 0044 013A     		subs	r2, r2, #1
 103 0046 1439     		subs	r1, r1, #20
 104 0048 0096     		str	r6, [sp]
 105 004a 9BB2     		uxth	r3, r3
 106 004c 92B2     		uxth	r2, r2
 107 004e 89B2     		uxth	r1, r1
 108 0050 0020     		movs	r0, #0
 109 0052 FFF7FEFF 		bl	LCD_Fill
 110              	.LVL4:
  93:Core/Src/test.c **** Gui_StrCenter(0,lcddev.height-18,WHITE,BLUE,"http://www.lcdwiki.com",16,1);//居中显示
 111              		.loc 1 93 1 is_stmt 1 view .LVU11
 112              		.loc 1 93 23 is_stmt 0 view .LVU12
 113 0056 E188     		ldrh	r1, [r4, #6]
 114              		.loc 1 93 1 view .LVU13
 115 0058 1239     		subs	r1, r1, #18
 116 005a CDF80880 		str	r8, [sp, #8]
 117 005e 0197     		str	r7, [sp, #4]
 118 0060 0C4B     		ldr	r3, .L3+8
 119 0062 0093     		str	r3, [sp]
 120 0064 3346     		mov	r3, r6
 121 0066 2A46     		mov	r2, r5
 122 0068 89B2     		uxth	r1, r1
ARM GAS  C:\Users\savao\AppData\Local\Temp\ccVfuo0d.s 			page 5


 123 006a 0020     		movs	r0, #0
 124 006c FFF7FEFF 		bl	Gui_StrCenter
 125              	.LVL5:
  94:Core/Src/test.c **** //绘制测试区域
  95:Core/Src/test.c **** LCD_Fill(0,21,lcddev.width-1,lcddev.height-21,WHITE);
 126              		.loc 1 95 1 is_stmt 1 view .LVU14
 127              		.loc 1 95 21 is_stmt 0 view .LVU15
 128 0070 A288     		ldrh	r2, [r4, #4]
 129              		.loc 1 95 36 view .LVU16
 130 0072 E388     		ldrh	r3, [r4, #6]
 131              		.loc 1 95 1 view .LVU17
 132 0074 153B     		subs	r3, r3, #21
 133 0076 013A     		subs	r2, r2, #1
 134 0078 0095     		str	r5, [sp]
 135 007a 9BB2     		uxth	r3, r3
 136 007c 92B2     		uxth	r2, r2
 137 007e 1521     		movs	r1, #21
 138 0080 0020     		movs	r0, #0
 139 0082 FFF7FEFF 		bl	LCD_Fill
 140              	.LVL6:
  96:Core/Src/test.c **** }
 141              		.loc 1 96 1 view .LVU18
 142 0086 05B0     		add	sp, sp, #20
 143              	.LCFI2:
 144              		.cfi_def_cfa_offset 28
 145              		@ sp needed
 146 0088 BDE8F083 		pop	{r4, r5, r6, r7, r8, r9, pc}
 147              	.LVL7:
 148              	.L4:
 149              		.loc 1 96 1 view .LVU19
 150              		.align	2
 151              	.L3:
 152 008c 00000000 		.word	POINT_COLOR
 153 0090 00000000 		.word	lcddev
 154 0094 00000000 		.word	.LC5
 155              		.cfi_endproc
 156              	.LFE133:
 158              		.section	.rodata.main_test.str1.4,"aMS",%progbits,1
 159              		.align	2
 160              	.LC6:
 161 0000 D7EED0A1 		.ascii	"\327\356\320\241\317\265\315\263\327\333\272\317\262"
 161      CFB5CDB3 
 161      D7DBBACF 
 161      B2
 162 000d E2CAD4B3 		.ascii	"\342\312\324\263\314\320\362\000"
 162      CCD0F200 
 163 0015 000000   		.align	2
 164              	.LC7:
 165 0018 53544D33 		.ascii	"STM32F407VxT6\327\356\320\241\317\265\315\263\277\252"
 165      32463430 
 165      37567854 
 165      36D7EED0 
 165      A1CFB5CD 
 166 002f B7A2B0E5 		.ascii	"\267\242\260\345\000"
 166      00
 167              		.align	2
 168              	.LC8:
ARM GAS  C:\Users\savao\AppData\Local\Temp\ccVfuo0d.s 			page 6


 169 0034 D7DBBACF 		.ascii	"\327\333\272\317\262\342\312\324\263\314\320\362\000"
 169      B2E2CAD4 
 169      B3CCD0F2 
 169      00
 170 0041 000000   		.align	2
 171              	.LC9:
 172 0044 494C4939 		.ascii	"ILI9341  ILI9486  ILI9488\000"
 172      33343120 
 172      20494C49 
 172      39343836 
 172      2020494C 
 173 005e 0000     		.align	2
 174              	.LC10:
 175 0060 52363135 		.ascii	"R61509V  ST7793   ST7796S\000"
 175      30395620 
 175      20535437 
 175      37393320 
 175      20205354 
 176 007a 0000     		.align	2
 177              	.LC11:
 178 007c 4E543335 		.ascii	"NT35310  NT35510  SSD1963\000"
 178      33313020 
 178      204E5433 
 178      35353130 
 178      20205353 
 179 0096 0000     		.align	2
 180              	.LC12:
 181 0098 53544D33 		.ascii	"STM32F407VxT6 2020-06-05\000"
 181      32463430 
 181      37567854 
 181      36203230 
 181      32302D30 
 182              		.section	.text.main_test,"ax",%progbits
 183              		.align	1
 184              		.global	main_test
 185              		.syntax unified
 186              		.thumb
 187              		.thumb_func
 188              		.fpu fpv4-sp-d16
 190              	main_test:
 191              	.LFB134:
  97:Core/Src/test.c **** 
  98:Core/Src/test.c **** /*****************************************************************************
  99:Core/Src/test.c ****  * @name       :void main_test(void)
 100:Core/Src/test.c ****  * @date       :2018-08-09 
 101:Core/Src/test.c ****  * @function   :Drawing the main Interface of the Comprehensive Test Program
 102:Core/Src/test.c ****  * @parameters :None
 103:Core/Src/test.c ****  * @retvalue   :None
 104:Core/Src/test.c **** ******************************************************************************/
 105:Core/Src/test.c **** void main_test(void)
 106:Core/Src/test.c **** {
 192              		.loc 1 106 1 is_stmt 1 view -0
 193              		.cfi_startproc
 194              		@ args = 0, pretend = 0, frame = 0
 195              		@ frame_needed = 0, uses_anonymous_args = 0
 196 0000 30B5     		push	{r4, r5, lr}
 197              	.LCFI3:
ARM GAS  C:\Users\savao\AppData\Local\Temp\ccVfuo0d.s 			page 7


 198              		.cfi_def_cfa_offset 12
 199              		.cfi_offset 4, -12
 200              		.cfi_offset 5, -8
 201              		.cfi_offset 14, -4
 202 0002 85B0     		sub	sp, sp, #20
 203              	.LCFI4:
 204              		.cfi_def_cfa_offset 32
 107:Core/Src/test.c **** 	DrawTestPage("最小系统综合测试程序");	
 205              		.loc 1 107 2 view .LVU21
 206 0004 2748     		ldr	r0, .L7
 207 0006 FFF7FEFF 		bl	DrawTestPage
 208              	.LVL8:
 108:Core/Src/test.c **** 	Gui_StrCenter(0,40,RED,BLUE,"STM32F407VxT6最小系统开发板",16,1);//居中显示
 209              		.loc 1 108 2 view .LVU22
 210 000a 0125     		movs	r5, #1
 211 000c 0295     		str	r5, [sp, #8]
 212 000e 1024     		movs	r4, #16
 213 0010 0194     		str	r4, [sp, #4]
 214 0012 254B     		ldr	r3, .L7+4
 215 0014 0093     		str	r3, [sp]
 216 0016 1F23     		movs	r3, #31
 217 0018 4FF47842 		mov	r2, #63488
 218 001c 2821     		movs	r1, #40
 219 001e 0020     		movs	r0, #0
 220 0020 FFF7FEFF 		bl	Gui_StrCenter
 221              	.LVL9:
 109:Core/Src/test.c **** 	Gui_StrCenter(0,70,RED,BLUE,"综合测试程序",16,1);//居中显示	
 222              		.loc 1 109 2 view .LVU23
 223 0024 0295     		str	r5, [sp, #8]
 224 0026 0194     		str	r4, [sp, #4]
 225 0028 204B     		ldr	r3, .L7+8
 226 002a 0093     		str	r3, [sp]
 227 002c 1F23     		movs	r3, #31
 228 002e 4FF47842 		mov	r2, #63488
 229 0032 4621     		movs	r1, #70
 230 0034 0020     		movs	r0, #0
 231 0036 FFF7FEFF 		bl	Gui_StrCenter
 232              	.LVL10:
 110:Core/Src/test.c **** 	Gui_StrCenter(0,100,MAGENTA,BLUE,"ILI9341  ILI9486  ILI9488",16,1);//居中显示
 233              		.loc 1 110 2 view .LVU24
 234 003a 0295     		str	r5, [sp, #8]
 235 003c 0194     		str	r4, [sp, #4]
 236 003e 1C4B     		ldr	r3, .L7+12
 237 0040 0093     		str	r3, [sp]
 238 0042 1F23     		movs	r3, #31
 239 0044 4FF61F02 		movw	r2, #63519
 240 0048 6421     		movs	r1, #100
 241 004a 0020     		movs	r0, #0
 242 004c FFF7FEFF 		bl	Gui_StrCenter
 243              	.LVL11:
 111:Core/Src/test.c **** 	Gui_StrCenter(0,120,MAGENTA,BLUE,"R61509V  ST7793   ST7796S",16,1);//居中显示
 244              		.loc 1 111 2 view .LVU25
 245 0050 0295     		str	r5, [sp, #8]
 246 0052 0194     		str	r4, [sp, #4]
 247 0054 174B     		ldr	r3, .L7+16
 248 0056 0093     		str	r3, [sp]
 249 0058 1F23     		movs	r3, #31
ARM GAS  C:\Users\savao\AppData\Local\Temp\ccVfuo0d.s 			page 8


 250 005a 4FF61F02 		movw	r2, #63519
 251 005e 7821     		movs	r1, #120
 252 0060 0020     		movs	r0, #0
 253 0062 FFF7FEFF 		bl	Gui_StrCenter
 254              	.LVL12:
 112:Core/Src/test.c **** 	Gui_StrCenter(0,140,MAGENTA,BLUE,"NT35310  NT35510  SSD1963",16,1);//居中显示
 255              		.loc 1 112 2 view .LVU26
 256 0066 0295     		str	r5, [sp, #8]
 257 0068 0194     		str	r4, [sp, #4]
 258 006a 134B     		ldr	r3, .L7+20
 259 006c 0093     		str	r3, [sp]
 260 006e 1F23     		movs	r3, #31
 261 0070 4FF61F02 		movw	r2, #63519
 262 0074 8C21     		movs	r1, #140
 263 0076 0020     		movs	r0, #0
 264 0078 FFF7FEFF 		bl	Gui_StrCenter
 265              	.LVL13:
 113:Core/Src/test.c **** 	Gui_StrCenter(0,170,BLUE,BLUE,"STM32F407VxT6 2020-06-05",16,1);//居中显示
 266              		.loc 1 113 2 view .LVU27
 267 007c 0295     		str	r5, [sp, #8]
 268 007e 0194     		str	r4, [sp, #4]
 269 0080 0E4B     		ldr	r3, .L7+24
 270 0082 0093     		str	r3, [sp]
 271 0084 1F23     		movs	r3, #31
 272 0086 1A46     		mov	r2, r3
 273 0088 AA21     		movs	r1, #170
 274 008a 0020     		movs	r0, #0
 275 008c FFF7FEFF 		bl	Gui_StrCenter
 276              	.LVL14:
 114:Core/Src/test.c **** 	delay_ms(1500);		
 277              		.loc 1 114 2 view .LVU28
 278 0090 40F2DC50 		movw	r0, #1500
 279 0094 FFF7FEFF 		bl	delay_ms
 280              	.LVL15:
 115:Core/Src/test.c **** 	delay_ms(1500);
 281              		.loc 1 115 2 view .LVU29
 282 0098 40F2DC50 		movw	r0, #1500
 283 009c FFF7FEFF 		bl	delay_ms
 284              	.LVL16:
 116:Core/Src/test.c **** }
 285              		.loc 1 116 1 is_stmt 0 view .LVU30
 286 00a0 05B0     		add	sp, sp, #20
 287              	.LCFI5:
 288              		.cfi_def_cfa_offset 12
 289              		@ sp needed
 290 00a2 30BD     		pop	{r4, r5, pc}
 291              	.L8:
 292              		.align	2
 293              	.L7:
 294 00a4 00000000 		.word	.LC6
 295 00a8 18000000 		.word	.LC7
 296 00ac 34000000 		.word	.LC8
 297 00b0 44000000 		.word	.LC9
 298 00b4 60000000 		.word	.LC10
 299 00b8 7C000000 		.word	.LC11
 300 00bc 98000000 		.word	.LC12
 301              		.cfi_endproc
ARM GAS  C:\Users\savao\AppData\Local\Temp\ccVfuo0d.s 			page 9


 302              	.LFE134:
 304              		.section	.rodata.Test_Color.str1.4,"aMS",%progbits,1
 305              		.align	2
 306              	.LC13:
 307 0000 424C2054 		.ascii	"BL Test\000"
 307      65737400 
 308              		.align	2
 309              	.LC14:
 310 0008 52454420 		.ascii	"RED \000"
 310      00
 311 000d 000000   		.align	2
 312              	.LC15:
 313 0010 47524545 		.ascii	"GREEN \000"
 313      4E2000
 314 0017 00       		.align	2
 315              	.LC16:
 316 0018 424C5545 		.ascii	"BLUE \000"
 316      2000
 317              		.section	.text.Test_Color,"ax",%progbits
 318              		.align	1
 319              		.global	Test_Color
 320              		.syntax unified
 321              		.thumb
 322              		.thumb_func
 323              		.fpu fpv4-sp-d16
 325              	Test_Color:
 326              	.LFB135:
 117:Core/Src/test.c **** 
 118:Core/Src/test.c **** /*****************************************************************************
 119:Core/Src/test.c ****  * @name       :void Test_Color(void)
 120:Core/Src/test.c ****  * @date       :2018-08-09 
 121:Core/Src/test.c ****  * @function   :Color fill test(white,black,red,green,blue)
 122:Core/Src/test.c ****  * @parameters :None
 123:Core/Src/test.c ****  * @retvalue   :None
 124:Core/Src/test.c **** ******************************************************************************/
 125:Core/Src/test.c **** void Test_Color(void)
 126:Core/Src/test.c **** {
 327              		.loc 1 126 1 is_stmt 1 view -0
 328              		.cfi_startproc
 329              		@ args = 0, pretend = 0, frame = 0
 330              		@ frame_needed = 0, uses_anonymous_args = 0
 331 0000 F0B5     		push	{r4, r5, r6, r7, lr}
 332              	.LCFI6:
 333              		.cfi_def_cfa_offset 20
 334              		.cfi_offset 4, -20
 335              		.cfi_offset 5, -16
 336              		.cfi_offset 6, -12
 337              		.cfi_offset 7, -8
 338              		.cfi_offset 14, -4
 339 0002 85B0     		sub	sp, sp, #20
 340              	.LCFI7:
 341              		.cfi_def_cfa_offset 40
 127:Core/Src/test.c **** 	//DrawTestPage("测试1:纯色填充测试");
 128:Core/Src/test.c **** 	LCD_Fill(0,0,lcddev.width-1,lcddev.height-1,WHITE);
 342              		.loc 1 128 2 view .LVU32
 343              		.loc 1 128 21 is_stmt 0 view .LVU33
 344 0004 394C     		ldr	r4, .L11
ARM GAS  C:\Users\savao\AppData\Local\Temp\ccVfuo0d.s 			page 10


 345 0006 A288     		ldrh	r2, [r4, #4]
 346              		.loc 1 128 36 view .LVU34
 347 0008 E388     		ldrh	r3, [r4, #6]
 348              		.loc 1 128 2 view .LVU35
 349 000a 013B     		subs	r3, r3, #1
 350 000c 013A     		subs	r2, r2, #1
 351 000e 4FF6FF71 		movw	r1, #65535
 352 0012 0091     		str	r1, [sp]
 353 0014 9BB2     		uxth	r3, r3
 354 0016 92B2     		uxth	r2, r2
 355 0018 0021     		movs	r1, #0
 356 001a 0846     		mov	r0, r1
 357 001c FFF7FEFF 		bl	LCD_Fill
 358              	.LVL17:
 129:Core/Src/test.c **** 	Show_Str(20,30,BLUE,YELLOW,"BL Test",16,1);delay_ms(800);
 359              		.loc 1 129 2 is_stmt 1 view .LVU36
 360 0020 0126     		movs	r6, #1
 361 0022 0296     		str	r6, [sp, #8]
 362 0024 1025     		movs	r5, #16
 363 0026 0195     		str	r5, [sp, #4]
 364 0028 314B     		ldr	r3, .L11+4
 365 002a 0093     		str	r3, [sp]
 366 002c 4FF6E073 		movw	r3, #65504
 367 0030 1F22     		movs	r2, #31
 368 0032 1E21     		movs	r1, #30
 369 0034 1420     		movs	r0, #20
 370 0036 FFF7FEFF 		bl	Show_Str
 371              	.LVL18:
 372              		.loc 1 129 45 view .LVU37
 373 003a 4FF44870 		mov	r0, #800
 374 003e FFF7FEFF 		bl	delay_ms
 375              	.LVL19:
 130:Core/Src/test.c **** 	LCD_Fill(0,0,lcddev.width-1,lcddev.height-1,RED);
 376              		.loc 1 130 2 view .LVU38
 377              		.loc 1 130 21 is_stmt 0 view .LVU39
 378 0042 A288     		ldrh	r2, [r4, #4]
 379              		.loc 1 130 36 view .LVU40
 380 0044 E388     		ldrh	r3, [r4, #6]
 381              		.loc 1 130 2 view .LVU41
 382 0046 013B     		subs	r3, r3, #1
 383 0048 013A     		subs	r2, r2, #1
 384 004a 4FF47847 		mov	r7, #63488
 385 004e 0097     		str	r7, [sp]
 386 0050 9BB2     		uxth	r3, r3
 387 0052 92B2     		uxth	r2, r2
 388 0054 0021     		movs	r1, #0
 389 0056 0846     		mov	r0, r1
 390 0058 FFF7FEFF 		bl	LCD_Fill
 391              	.LVL20:
 131:Core/Src/test.c **** 	Show_Str(20,30,BLUE,YELLOW,"RED ",16,1);delay_ms(800);
 392              		.loc 1 131 2 is_stmt 1 view .LVU42
 393 005c 0296     		str	r6, [sp, #8]
 394 005e 0195     		str	r5, [sp, #4]
 395 0060 244B     		ldr	r3, .L11+8
 396 0062 0093     		str	r3, [sp]
 397 0064 4FF6E073 		movw	r3, #65504
 398 0068 1F22     		movs	r2, #31
ARM GAS  C:\Users\savao\AppData\Local\Temp\ccVfuo0d.s 			page 11


 399 006a 1E21     		movs	r1, #30
 400 006c 1420     		movs	r0, #20
 401 006e FFF7FEFF 		bl	Show_Str
 402              	.LVL21:
 403              		.loc 1 131 42 view .LVU43
 404 0072 4FF44870 		mov	r0, #800
 405 0076 FFF7FEFF 		bl	delay_ms
 406              	.LVL22:
 132:Core/Src/test.c **** 	LCD_Fill(0,0,lcddev.width-1,lcddev.height-1,GREEN);
 407              		.loc 1 132 2 view .LVU44
 408              		.loc 1 132 21 is_stmt 0 view .LVU45
 409 007a A288     		ldrh	r2, [r4, #4]
 410              		.loc 1 132 36 view .LVU46
 411 007c E388     		ldrh	r3, [r4, #6]
 412              		.loc 1 132 2 view .LVU47
 413 007e 013B     		subs	r3, r3, #1
 414 0080 013A     		subs	r2, r2, #1
 415 0082 4FF4FC61 		mov	r1, #2016
 416 0086 0091     		str	r1, [sp]
 417 0088 9BB2     		uxth	r3, r3
 418 008a 92B2     		uxth	r2, r2
 419 008c 0021     		movs	r1, #0
 420 008e 0846     		mov	r0, r1
 421 0090 FFF7FEFF 		bl	LCD_Fill
 422              	.LVL23:
 133:Core/Src/test.c **** 	Show_Str(20,30,BLUE,YELLOW,"GREEN ",16,1);delay_ms(800);
 423              		.loc 1 133 2 is_stmt 1 view .LVU48
 424 0094 0296     		str	r6, [sp, #8]
 425 0096 0195     		str	r5, [sp, #4]
 426 0098 174B     		ldr	r3, .L11+12
 427 009a 0093     		str	r3, [sp]
 428 009c 4FF6E073 		movw	r3, #65504
 429 00a0 1F22     		movs	r2, #31
 430 00a2 1E21     		movs	r1, #30
 431 00a4 1420     		movs	r0, #20
 432 00a6 FFF7FEFF 		bl	Show_Str
 433              	.LVL24:
 434              		.loc 1 133 44 view .LVU49
 435 00aa 4FF44870 		mov	r0, #800
 436 00ae FFF7FEFF 		bl	delay_ms
 437              	.LVL25:
 134:Core/Src/test.c **** 	LCD_Fill(0,0,lcddev.width-1,lcddev.height-1,BLUE);
 438              		.loc 1 134 2 view .LVU50
 439              		.loc 1 134 21 is_stmt 0 view .LVU51
 440 00b2 A288     		ldrh	r2, [r4, #4]
 441              		.loc 1 134 36 view .LVU52
 442 00b4 E388     		ldrh	r3, [r4, #6]
 443              		.loc 1 134 2 view .LVU53
 444 00b6 013B     		subs	r3, r3, #1
 445 00b8 013A     		subs	r2, r2, #1
 446 00ba 1F21     		movs	r1, #31
 447 00bc 0091     		str	r1, [sp]
 448 00be 9BB2     		uxth	r3, r3
 449 00c0 92B2     		uxth	r2, r2
 450 00c2 0021     		movs	r1, #0
 451 00c4 0846     		mov	r0, r1
 452 00c6 FFF7FEFF 		bl	LCD_Fill
ARM GAS  C:\Users\savao\AppData\Local\Temp\ccVfuo0d.s 			page 12


 453              	.LVL26:
 135:Core/Src/test.c **** 	Show_Str(20,30,RED,YELLOW,"BLUE ",16,1);delay_ms(800);
 454              		.loc 1 135 2 is_stmt 1 view .LVU54
 455 00ca 0296     		str	r6, [sp, #8]
 456 00cc 0195     		str	r5, [sp, #4]
 457 00ce 0B4B     		ldr	r3, .L11+16
 458 00d0 0093     		str	r3, [sp]
 459 00d2 4FF6E073 		movw	r3, #65504
 460 00d6 3A46     		mov	r2, r7
 461 00d8 1E21     		movs	r1, #30
 462 00da 1420     		movs	r0, #20
 463 00dc FFF7FEFF 		bl	Show_Str
 464              	.LVL27:
 465              		.loc 1 135 42 view .LVU55
 466 00e0 4FF44870 		mov	r0, #800
 467 00e4 FFF7FEFF 		bl	delay_ms
 468              	.LVL28:
 136:Core/Src/test.c **** }
 469              		.loc 1 136 1 is_stmt 0 view .LVU56
 470 00e8 05B0     		add	sp, sp, #20
 471              	.LCFI8:
 472              		.cfi_def_cfa_offset 20
 473              		@ sp needed
 474 00ea F0BD     		pop	{r4, r5, r6, r7, pc}
 475              	.L12:
 476              		.align	2
 477              	.L11:
 478 00ec 00000000 		.word	lcddev
 479 00f0 00000000 		.word	.LC13
 480 00f4 08000000 		.word	.LC14
 481 00f8 10000000 		.word	.LC15
 482 00fc 18000000 		.word	.LC16
 483              		.cfi_endproc
 484              	.LFE135:
 486              		.section	.rodata.Test_FillRec.str1.4,"aMS",%progbits,1
 487              		.align	2
 488              	.LC17:
 489 0000 B2E2CAD4 		.ascii	"\262\342\312\3243:GUI\276\330\320\316\314\356\263\344"
 489      333A4755 
 489      49BED8D0 
 489      CECCEEB3 
 489      E4
 490 0011 B2E2CAD4 		.ascii	"\262\342\312\324\000"
 490      00
 491              		.section	.text.Test_FillRec,"ax",%progbits
 492              		.align	1
 493              		.global	Test_FillRec
 494              		.syntax unified
 495              		.thumb
 496              		.thumb_func
 497              		.fpu fpv4-sp-d16
 499              	Test_FillRec:
 500              	.LFB136:
 137:Core/Src/test.c **** 
 138:Core/Src/test.c **** /*****************************************************************************
 139:Core/Src/test.c ****  * @name       :void Test_FillRec(void)
 140:Core/Src/test.c ****  * @date       :2018-08-09 
ARM GAS  C:\Users\savao\AppData\Local\Temp\ccVfuo0d.s 			page 13


 141:Core/Src/test.c ****  * @function   :Rectangular display and fill test
 142:Core/Src/test.c **** 								Display red,green,blue,yellow,pink rectangular boxes in turn,
 143:Core/Src/test.c **** 								1500 milliseconds later,
 144:Core/Src/test.c **** 								Fill the rectangle in red,green,blue,yellow and pink in turn
 145:Core/Src/test.c ****  * @parameters :None
 146:Core/Src/test.c ****  * @retvalue   :None
 147:Core/Src/test.c **** ******************************************************************************/
 148:Core/Src/test.c **** void Test_FillRec(void)
 149:Core/Src/test.c **** {
 501              		.loc 1 149 1 is_stmt 1 view -0
 502              		.cfi_startproc
 503              		@ args = 0, pretend = 0, frame = 0
 504              		@ frame_needed = 0, uses_anonymous_args = 0
 505 0000 10B5     		push	{r4, lr}
 506              	.LCFI9:
 507              		.cfi_def_cfa_offset 8
 508              		.cfi_offset 4, -8
 509              		.cfi_offset 14, -4
 150:Core/Src/test.c **** 	u8 i=0;
 510              		.loc 1 150 2 view .LVU58
 511              	.LVL29:
 151:Core/Src/test.c **** 	DrawTestPage("测试3:GUI矩形填充测试");
 512              		.loc 1 151 2 view .LVU59
 513 0002 2948     		ldr	r0, .L19
 514 0004 FFF7FEFF 		bl	DrawTestPage
 515              	.LVL30:
 152:Core/Src/test.c **** 	for (i=0; i<5; i++) 
 516              		.loc 1 152 2 view .LVU60
 517              		.loc 1 152 8 is_stmt 0 view .LVU61
 518 0008 0024     		movs	r4, #0
 519              		.loc 1 152 2 view .LVU62
 520 000a 1EE0     		b	.L14
 521              	.LVL31:
 522              	.L15:
 153:Core/Src/test.c **** 	{
 154:Core/Src/test.c **** 		POINT_COLOR=ColorTab[i];
 523              		.loc 1 154 3 is_stmt 1 discriminator 3 view .LVU63
 524              		.loc 1 154 23 is_stmt 0 discriminator 3 view .LVU64
 525 000c 274B     		ldr	r3, .L19+4
 526 000e 33F81420 		ldrh	r2, [r3, r4, lsl #1]
 527              		.loc 1 154 14 discriminator 3 view .LVU65
 528 0012 274B     		ldr	r3, .L19+8
 529 0014 1A80     		strh	r2, [r3]	@ movhi
 155:Core/Src/test.c **** 		LCD_DrawRectangle(lcddev.width/2-80+(i*15),lcddev.height/2-80+(i*15),lcddev.width/2-80+(i*15)+60,
 530              		.loc 1 155 3 is_stmt 1 discriminator 3 view .LVU66
 531              		.loc 1 155 27 is_stmt 0 discriminator 3 view .LVU67
 532 0016 274B     		ldr	r3, .L19+12
 533 0018 9888     		ldrh	r0, [r3, #4]
 534              		.loc 1 155 38 discriminator 3 view .LVU68
 535 001a C4EB0411 		rsb	r1, r4, r4, lsl #4
 536 001e 89B2     		uxth	r1, r1
 537 0020 01EB5000 		add	r0, r1, r0, lsr #1
 538 0024 80B2     		uxth	r0, r0
 539              		.loc 1 155 52 discriminator 3 view .LVU69
 540 0026 DB88     		ldrh	r3, [r3, #6]
 541              		.loc 1 155 64 discriminator 3 view .LVU70
 542 0028 01EB5301 		add	r1, r1, r3, lsr #1
ARM GAS  C:\Users\savao\AppData\Local\Temp\ccVfuo0d.s 			page 14


 543 002c 89B2     		uxth	r1, r1
 544              		.loc 1 155 3 discriminator 3 view .LVU71
 545 002e A1F11403 		sub	r3, r1, #20
 546 0032 A0F11402 		sub	r2, r0, #20
 547 0036 5039     		subs	r1, r1, #80
 548 0038 5038     		subs	r0, r0, #80
 549 003a 9BB2     		uxth	r3, r3
 550 003c 92B2     		uxth	r2, r2
 551 003e 89B2     		uxth	r1, r1
 552 0040 80B2     		uxth	r0, r0
 553 0042 FFF7FEFF 		bl	LCD_DrawRectangle
 554              	.LVL32:
 152:Core/Src/test.c **** 	for (i=0; i<5; i++) 
 555              		.loc 1 152 17 is_stmt 1 discriminator 3 view .LVU72
 152:Core/Src/test.c **** 	for (i=0; i<5; i++) 
 556              		.loc 1 152 18 is_stmt 0 discriminator 3 view .LVU73
 557 0046 0134     		adds	r4, r4, #1
 558              	.LVL33:
 152:Core/Src/test.c **** 	for (i=0; i<5; i++) 
 559              		.loc 1 152 18 discriminator 3 view .LVU74
 560 0048 E4B2     		uxtb	r4, r4
 561              	.LVL34:
 562              	.L14:
 152:Core/Src/test.c **** 	for (i=0; i<5; i++) 
 563              		.loc 1 152 12 is_stmt 1 discriminator 1 view .LVU75
 152:Core/Src/test.c **** 	for (i=0; i<5; i++) 
 564              		.loc 1 152 2 is_stmt 0 discriminator 1 view .LVU76
 565 004a 042C     		cmp	r4, #4
 566 004c DED9     		bls	.L15
 156:Core/Src/test.c **** 	}
 157:Core/Src/test.c **** 	delay_ms(1500);	
 567              		.loc 1 157 2 is_stmt 1 view .LVU77
 568 004e 40F2DC50 		movw	r0, #1500
 569 0052 FFF7FEFF 		bl	delay_ms
 570              	.LVL35:
 158:Core/Src/test.c **** 	for (i=0; i<5; i++) 
 571              		.loc 1 158 2 view .LVU78
 572              		.loc 1 158 8 is_stmt 0 view .LVU79
 573 0056 0024     		movs	r4, #0
 574              		.loc 1 158 2 view .LVU80
 575 0058 1EE0     		b	.L16
 576              	.LVL36:
 577              	.L17:
 159:Core/Src/test.c **** 	{
 160:Core/Src/test.c **** 		POINT_COLOR=ColorTab[i];
 578              		.loc 1 160 3 is_stmt 1 discriminator 3 view .LVU81
 579              		.loc 1 160 23 is_stmt 0 discriminator 3 view .LVU82
 580 005a 144B     		ldr	r3, .L19+4
 581 005c 33F81420 		ldrh	r2, [r3, r4, lsl #1]
 582              		.loc 1 160 14 discriminator 3 view .LVU83
 583 0060 134B     		ldr	r3, .L19+8
 584 0062 1A80     		strh	r2, [r3]	@ movhi
 161:Core/Src/test.c **** 		LCD_DrawFillRectangle(lcddev.width/2-80+(i*15),lcddev.height/2-80+(i*15),lcddev.width/2-80+(i*15)
 585              		.loc 1 161 3 is_stmt 1 discriminator 3 view .LVU84
 586              		.loc 1 161 31 is_stmt 0 discriminator 3 view .LVU85
 587 0064 134B     		ldr	r3, .L19+12
 588 0066 9888     		ldrh	r0, [r3, #4]
ARM GAS  C:\Users\savao\AppData\Local\Temp\ccVfuo0d.s 			page 15


 589              		.loc 1 161 42 discriminator 3 view .LVU86
 590 0068 C4EB0411 		rsb	r1, r4, r4, lsl #4
 591 006c 89B2     		uxth	r1, r1
 592 006e 01EB5000 		add	r0, r1, r0, lsr #1
 593 0072 80B2     		uxth	r0, r0
 594              		.loc 1 161 56 discriminator 3 view .LVU87
 595 0074 DB88     		ldrh	r3, [r3, #6]
 596              		.loc 1 161 68 discriminator 3 view .LVU88
 597 0076 01EB5301 		add	r1, r1, r3, lsr #1
 598 007a 89B2     		uxth	r1, r1
 599              		.loc 1 161 3 discriminator 3 view .LVU89
 600 007c A1F11403 		sub	r3, r1, #20
 601 0080 A0F11402 		sub	r2, r0, #20
 602 0084 5039     		subs	r1, r1, #80
 603 0086 5038     		subs	r0, r0, #80
 604 0088 9BB2     		uxth	r3, r3
 605 008a 92B2     		uxth	r2, r2
 606 008c 89B2     		uxth	r1, r1
 607 008e 80B2     		uxth	r0, r0
 608 0090 FFF7FEFF 		bl	LCD_DrawFillRectangle
 609              	.LVL37:
 158:Core/Src/test.c **** 	for (i=0; i<5; i++) 
 610              		.loc 1 158 17 is_stmt 1 discriminator 3 view .LVU90
 158:Core/Src/test.c **** 	for (i=0; i<5; i++) 
 611              		.loc 1 158 18 is_stmt 0 discriminator 3 view .LVU91
 612 0094 0134     		adds	r4, r4, #1
 613              	.LVL38:
 158:Core/Src/test.c **** 	for (i=0; i<5; i++) 
 614              		.loc 1 158 18 discriminator 3 view .LVU92
 615 0096 E4B2     		uxtb	r4, r4
 616              	.LVL39:
 617              	.L16:
 158:Core/Src/test.c **** 	for (i=0; i<5; i++) 
 618              		.loc 1 158 12 is_stmt 1 discriminator 1 view .LVU93
 158:Core/Src/test.c **** 	for (i=0; i<5; i++) 
 619              		.loc 1 158 2 is_stmt 0 discriminator 1 view .LVU94
 620 0098 042C     		cmp	r4, #4
 621 009a DED9     		bls	.L17
 162:Core/Src/test.c **** 	}
 163:Core/Src/test.c **** 	delay_ms(1500);
 622              		.loc 1 163 2 is_stmt 1 view .LVU95
 623 009c 40F2DC50 		movw	r0, #1500
 624 00a0 FFF7FEFF 		bl	delay_ms
 625              	.LVL40:
 164:Core/Src/test.c **** }
 626              		.loc 1 164 1 is_stmt 0 view .LVU96
 627 00a4 10BD     		pop	{r4, pc}
 628              	.LVL41:
 629              	.L20:
 630              		.loc 1 164 1 view .LVU97
 631 00a6 00BF     		.align	2
 632              	.L19:
 633 00a8 00000000 		.word	.LC17
 634 00ac 00000000 		.word	.LANCHOR0
 635 00b0 00000000 		.word	POINT_COLOR
 636 00b4 00000000 		.word	lcddev
 637              		.cfi_endproc
ARM GAS  C:\Users\savao\AppData\Local\Temp\ccVfuo0d.s 			page 16


 638              	.LFE136:
 640              		.section	.rodata.Test_Circle.str1.4,"aMS",%progbits,1
 641              		.align	2
 642              	.LC18:
 643 0000 B2E2CAD4 		.ascii	"\262\342\312\3244:GUI\273\255\324\262\314\356\263\344"
 643      343A4755 
 643      49BBADD4 
 643      B2CCEEB3 
 643      E4
 644 0011 B2E2CAD4 		.ascii	"\262\342\312\324\000"
 644      00
 645              		.section	.text.Test_Circle,"ax",%progbits
 646              		.align	1
 647              		.global	Test_Circle
 648              		.syntax unified
 649              		.thumb
 650              		.thumb_func
 651              		.fpu fpv4-sp-d16
 653              	Test_Circle:
 654              	.LFB137:
 165:Core/Src/test.c **** 
 166:Core/Src/test.c **** /*****************************************************************************
 167:Core/Src/test.c ****  * @name       :void Test_Circle(void)
 168:Core/Src/test.c ****  * @date       :2018-08-09 
 169:Core/Src/test.c ****  * @function   :circular display and fill test
 170:Core/Src/test.c **** 								Display red,green,blue,yellow,pink circular boxes in turn,
 171:Core/Src/test.c **** 								1500 milliseconds later,
 172:Core/Src/test.c **** 								Fill the circular in red,green,blue,yellow and pink in turn
 173:Core/Src/test.c ****  * @parameters :None
 174:Core/Src/test.c ****  * @retvalue   :None
 175:Core/Src/test.c **** ******************************************************************************/
 176:Core/Src/test.c **** void Test_Circle(void)
 177:Core/Src/test.c **** {
 655              		.loc 1 177 1 is_stmt 1 view -0
 656              		.cfi_startproc
 657              		@ args = 0, pretend = 0, frame = 0
 658              		@ frame_needed = 0, uses_anonymous_args = 0
 659 0000 10B5     		push	{r4, lr}
 660              	.LCFI10:
 661              		.cfi_def_cfa_offset 8
 662              		.cfi_offset 4, -8
 663              		.cfi_offset 14, -4
 664 0002 82B0     		sub	sp, sp, #8
 665              	.LCFI11:
 666              		.cfi_def_cfa_offset 16
 178:Core/Src/test.c **** 	u8 i=0;
 667              		.loc 1 178 2 view .LVU99
 668              	.LVL42:
 179:Core/Src/test.c **** 	DrawTestPage("测试4:GUI画圆填充测试");
 669              		.loc 1 179 2 view .LVU100
 670 0004 2448     		ldr	r0, .L27
 671 0006 FFF7FEFF 		bl	DrawTestPage
 672              	.LVL43:
 180:Core/Src/test.c **** 	for (i=0; i<5; i++)  
 673              		.loc 1 180 2 view .LVU101
 674              		.loc 1 180 8 is_stmt 0 view .LVU102
 675 000a 0024     		movs	r4, #0
ARM GAS  C:\Users\savao\AppData\Local\Temp\ccVfuo0d.s 			page 17


 676              		.loc 1 180 2 view .LVU103
 677 000c 19E0     		b	.L22
 678              	.LVL44:
 679              	.L23:
 181:Core/Src/test.c **** 		gui_circle(lcddev.width/2-80+(i*25),lcddev.height/2-50+(i*25),ColorTab[i],30,0);
 680              		.loc 1 181 3 is_stmt 1 discriminator 3 view .LVU104
 681              		.loc 1 181 20 is_stmt 0 discriminator 3 view .LVU105
 682 000e 234B     		ldr	r3, .L27+4
 683 0010 B3F804C0 		ldrh	ip, [r3, #4]
 684              		.loc 1 181 26 discriminator 3 view .LVU106
 685 0014 4FEA5C0C 		lsr	ip, ip, #1
 686              		.loc 1 181 28 discriminator 3 view .LVU107
 687 0018 ACF1500C 		sub	ip, ip, #80
 688              		.loc 1 181 34 discriminator 3 view .LVU108
 689 001c 04EB8400 		add	r0, r4, r4, lsl #2
 690 0020 00EB8000 		add	r0, r0, r0, lsl #2
 691              		.loc 1 181 45 discriminator 3 view .LVU109
 692 0024 D988     		ldrh	r1, [r3, #6]
 693              		.loc 1 181 52 discriminator 3 view .LVU110
 694 0026 4908     		lsrs	r1, r1, #1
 695              		.loc 1 181 54 discriminator 3 view .LVU111
 696 0028 3239     		subs	r1, r1, #50
 697              		.loc 1 181 3 discriminator 3 view .LVU112
 698 002a 0023     		movs	r3, #0
 699 002c 0093     		str	r3, [sp]
 700 002e 1E23     		movs	r3, #30
 701 0030 1B4A     		ldr	r2, .L27+8
 702 0032 32F81420 		ldrh	r2, [r2, r4, lsl #1]
 703 0036 0144     		add	r1, r1, r0
 704 0038 6044     		add	r0, r0, ip
 705 003a FFF7FEFF 		bl	gui_circle
 706              	.LVL45:
 180:Core/Src/test.c **** 	for (i=0; i<5; i++)  
 707              		.loc 1 180 17 is_stmt 1 discriminator 3 view .LVU113
 180:Core/Src/test.c **** 	for (i=0; i<5; i++)  
 708              		.loc 1 180 18 is_stmt 0 discriminator 3 view .LVU114
 709 003e 0134     		adds	r4, r4, #1
 710              	.LVL46:
 180:Core/Src/test.c **** 	for (i=0; i<5; i++)  
 711              		.loc 1 180 18 discriminator 3 view .LVU115
 712 0040 E4B2     		uxtb	r4, r4
 713              	.LVL47:
 714              	.L22:
 180:Core/Src/test.c **** 	for (i=0; i<5; i++)  
 715              		.loc 1 180 12 is_stmt 1 discriminator 1 view .LVU116
 180:Core/Src/test.c **** 	for (i=0; i<5; i++)  
 716              		.loc 1 180 2 is_stmt 0 discriminator 1 view .LVU117
 717 0042 042C     		cmp	r4, #4
 718 0044 E3D9     		bls	.L23
 182:Core/Src/test.c **** 	delay_ms(1500);	
 719              		.loc 1 182 2 is_stmt 1 view .LVU118
 720 0046 40F2DC50 		movw	r0, #1500
 721 004a FFF7FEFF 		bl	delay_ms
 722              	.LVL48:
 183:Core/Src/test.c **** 	for (i=0; i<5; i++) 
 723              		.loc 1 183 2 view .LVU119
 724              		.loc 1 183 8 is_stmt 0 view .LVU120
ARM GAS  C:\Users\savao\AppData\Local\Temp\ccVfuo0d.s 			page 18


 725 004e 0024     		movs	r4, #0
 726              		.loc 1 183 2 view .LVU121
 727 0050 19E0     		b	.L24
 728              	.LVL49:
 729              	.L25:
 184:Core/Src/test.c **** 	  	gui_circle(lcddev.width/2-80+(i*25),lcddev.height/2-50+(i*25),ColorTab[i],30,1);
 730              		.loc 1 184 5 is_stmt 1 discriminator 3 view .LVU122
 731              		.loc 1 184 22 is_stmt 0 discriminator 3 view .LVU123
 732 0052 124B     		ldr	r3, .L27+4
 733 0054 B3F804C0 		ldrh	ip, [r3, #4]
 734              		.loc 1 184 28 discriminator 3 view .LVU124
 735 0058 4FEA5C0C 		lsr	ip, ip, #1
 736              		.loc 1 184 30 discriminator 3 view .LVU125
 737 005c ACF1500C 		sub	ip, ip, #80
 738              		.loc 1 184 36 discriminator 3 view .LVU126
 739 0060 04EB8400 		add	r0, r4, r4, lsl #2
 740 0064 00EB8000 		add	r0, r0, r0, lsl #2
 741              		.loc 1 184 47 discriminator 3 view .LVU127
 742 0068 D988     		ldrh	r1, [r3, #6]
 743              		.loc 1 184 54 discriminator 3 view .LVU128
 744 006a 4908     		lsrs	r1, r1, #1
 745              		.loc 1 184 56 discriminator 3 view .LVU129
 746 006c 3239     		subs	r1, r1, #50
 747              		.loc 1 184 5 discriminator 3 view .LVU130
 748 006e 0123     		movs	r3, #1
 749 0070 0093     		str	r3, [sp]
 750 0072 1E23     		movs	r3, #30
 751 0074 0A4A     		ldr	r2, .L27+8
 752 0076 32F81420 		ldrh	r2, [r2, r4, lsl #1]
 753 007a 0144     		add	r1, r1, r0
 754 007c 6044     		add	r0, r0, ip
 755 007e FFF7FEFF 		bl	gui_circle
 756              	.LVL50:
 183:Core/Src/test.c **** 	for (i=0; i<5; i++) 
 757              		.loc 1 183 17 is_stmt 1 discriminator 3 view .LVU131
 183:Core/Src/test.c **** 	for (i=0; i<5; i++) 
 758              		.loc 1 183 18 is_stmt 0 discriminator 3 view .LVU132
 759 0082 0134     		adds	r4, r4, #1
 760              	.LVL51:
 183:Core/Src/test.c **** 	for (i=0; i<5; i++) 
 761              		.loc 1 183 18 discriminator 3 view .LVU133
 762 0084 E4B2     		uxtb	r4, r4
 763              	.LVL52:
 764              	.L24:
 183:Core/Src/test.c **** 	for (i=0; i<5; i++) 
 765              		.loc 1 183 12 is_stmt 1 discriminator 1 view .LVU134
 183:Core/Src/test.c **** 	for (i=0; i<5; i++) 
 766              		.loc 1 183 2 is_stmt 0 discriminator 1 view .LVU135
 767 0086 042C     		cmp	r4, #4
 768 0088 E3D9     		bls	.L25
 185:Core/Src/test.c **** 	delay_ms(1500);
 769              		.loc 1 185 2 is_stmt 1 view .LVU136
 770 008a 40F2DC50 		movw	r0, #1500
 771 008e FFF7FEFF 		bl	delay_ms
 772              	.LVL53:
 186:Core/Src/test.c **** }
 773              		.loc 1 186 1 is_stmt 0 view .LVU137
ARM GAS  C:\Users\savao\AppData\Local\Temp\ccVfuo0d.s 			page 19


 774 0092 02B0     		add	sp, sp, #8
 775              	.LCFI12:
 776              		.cfi_def_cfa_offset 8
 777              		@ sp needed
 778 0094 10BD     		pop	{r4, pc}
 779              	.LVL54:
 780              	.L28:
 781              		.loc 1 186 1 view .LVU138
 782 0096 00BF     		.align	2
 783              	.L27:
 784 0098 00000000 		.word	.LC18
 785 009c 00000000 		.word	lcddev
 786 00a0 00000000 		.word	.LANCHOR0
 787              		.cfi_endproc
 788              	.LFE137:
 790              		.section	.rodata.English_Font_test.str1.4,"aMS",%progbits,1
 791              		.align	2
 792              	.LC19:
 793 0000 B2E2CAD4 		.ascii	"\262\342\312\3246:\323\242\316\304\317\324\312\276\262"
 793      363AD3A2 
 793      CEC4CFD4 
 793      CABEB2
 794 000f E2CAD400 		.ascii	"\342\312\324\000"
 795 0013 00       		.align	2
 796              	.LC20:
 797 0014 36583132 		.ascii	"6X12:abcdefghijklmnopqrstuvwxyz0123456789\000"
 797      3A616263 
 797      64656667 
 797      68696A6B 
 797      6C6D6E6F 
 798 003e 0000     		.align	2
 799              	.LC21:
 800 0040 36583132 		.ascii	"6X12:ABCDEFGHIJKLMNOPQRSTUVWXYZ0123456789\000"
 800      3A414243 
 800      44454647 
 800      48494A4B 
 800      4C4D4E4F 
 801 006a 0000     		.align	2
 802              	.LC22:
 803 006c 36583132 		.ascii	"6X12:~!@#$%^&*()_+{}:<>?/|-+.\000"
 803      3A7E2140 
 803      2324255E 
 803      262A2829 
 803      5F2B7B7D 
 804 008a 0000     		.align	2
 805              	.LC23:
 806 008c 38583136 		.ascii	"8X16:abcdefghijklmnopqrstuvwxyz0123456789\000"
 806      3A616263 
 806      64656667 
 806      68696A6B 
 806      6C6D6E6F 
 807 00b6 0000     		.align	2
 808              	.LC24:
 809 00b8 38583136 		.ascii	"8X16:ABCDEFGHIJKLMNOPQRSTUVWXYZ0123456789\000"
 809      3A414243 
 809      44454647 
 809      48494A4B 
ARM GAS  C:\Users\savao\AppData\Local\Temp\ccVfuo0d.s 			page 20


 809      4C4D4E4F 
 810 00e2 0000     		.align	2
 811              	.LC25:
 812 00e4 38583136 		.ascii	"8X16:~!@#$%^&*()_+{}:<>?/|-+.\000"
 812      3A7E2140 
 812      2324255E 
 812      262A2829 
 812      5F2B7B7D 
 813              		.section	.text.English_Font_test,"ax",%progbits
 814              		.align	1
 815              		.global	English_Font_test
 816              		.syntax unified
 817              		.thumb
 818              		.thumb_func
 819              		.fpu fpv4-sp-d16
 821              	English_Font_test:
 822              	.LFB138:
 187:Core/Src/test.c **** 
 188:Core/Src/test.c **** /*****************************************************************************
 189:Core/Src/test.c ****  * @name       :void English_Font_test(void)
 190:Core/Src/test.c ****  * @date       :2018-08-09 
 191:Core/Src/test.c ****  * @function   :English display test
 192:Core/Src/test.c ****  * @parameters :None
 193:Core/Src/test.c ****  * @retvalue   :None
 194:Core/Src/test.c **** ******************************************************************************/
 195:Core/Src/test.c **** void English_Font_test(void)
 196:Core/Src/test.c **** {
 823              		.loc 1 196 1 is_stmt 1 view -0
 824              		.cfi_startproc
 825              		@ args = 0, pretend = 0, frame = 0
 826              		@ frame_needed = 0, uses_anonymous_args = 0
 827 0000 70B5     		push	{r4, r5, r6, lr}
 828              	.LCFI13:
 829              		.cfi_def_cfa_offset 16
 830              		.cfi_offset 4, -16
 831              		.cfi_offset 5, -12
 832              		.cfi_offset 6, -8
 833              		.cfi_offset 14, -4
 834 0002 84B0     		sub	sp, sp, #16
 835              	.LCFI14:
 836              		.cfi_def_cfa_offset 32
 197:Core/Src/test.c **** 	DrawTestPage("测试6:英文显示测试");
 837              		.loc 1 197 2 view .LVU140
 838 0004 2748     		ldr	r0, .L31
 839 0006 FFF7FEFF 		bl	DrawTestPage
 840              	.LVL55:
 198:Core/Src/test.c **** 	Show_Str(10,30,BLUE,YELLOW,"6X12:abcdefghijklmnopqrstuvwxyz0123456789",12,0);
 841              		.loc 1 198 2 view .LVU141
 842 000a 0024     		movs	r4, #0
 843 000c 0294     		str	r4, [sp, #8]
 844 000e 0C25     		movs	r5, #12
 845 0010 0195     		str	r5, [sp, #4]
 846 0012 254B     		ldr	r3, .L31+4
 847 0014 0093     		str	r3, [sp]
 848 0016 4FF6E073 		movw	r3, #65504
 849 001a 1F22     		movs	r2, #31
 850 001c 1E21     		movs	r1, #30
ARM GAS  C:\Users\savao\AppData\Local\Temp\ccVfuo0d.s 			page 21


 851 001e 0A20     		movs	r0, #10
 852 0020 FFF7FEFF 		bl	Show_Str
 853              	.LVL56:
 199:Core/Src/test.c **** 	Show_Str(10,45,BLUE,YELLOW,"6X12:ABCDEFGHIJKLMNOPQRSTUVWXYZ0123456789",12,1);
 854              		.loc 1 199 2 view .LVU142
 855 0024 0126     		movs	r6, #1
 856 0026 0296     		str	r6, [sp, #8]
 857 0028 0195     		str	r5, [sp, #4]
 858 002a 204B     		ldr	r3, .L31+8
 859 002c 0093     		str	r3, [sp]
 860 002e 4FF6E073 		movw	r3, #65504
 861 0032 1F22     		movs	r2, #31
 862 0034 2D21     		movs	r1, #45
 863 0036 0A20     		movs	r0, #10
 864 0038 FFF7FEFF 		bl	Show_Str
 865              	.LVL57:
 200:Core/Src/test.c **** 	Show_Str(10,60,BLUE,YELLOW,"6X12:~!@#$%^&*()_+{}:<>?/|-+.",12,0);
 866              		.loc 1 200 2 view .LVU143
 867 003c 0294     		str	r4, [sp, #8]
 868 003e 0195     		str	r5, [sp, #4]
 869 0040 1B4B     		ldr	r3, .L31+12
 870 0042 0093     		str	r3, [sp]
 871 0044 4FF6E073 		movw	r3, #65504
 872 0048 1F22     		movs	r2, #31
 873 004a 3C21     		movs	r1, #60
 874 004c 0A20     		movs	r0, #10
 875 004e FFF7FEFF 		bl	Show_Str
 876              	.LVL58:
 201:Core/Src/test.c **** 	Show_Str(10,80,BLUE,YELLOW,"8X16:abcdefghijklmnopqrstuvwxyz0123456789",16,0);
 877              		.loc 1 201 2 view .LVU144
 878 0052 0294     		str	r4, [sp, #8]
 879 0054 1025     		movs	r5, #16
 880 0056 0195     		str	r5, [sp, #4]
 881 0058 164B     		ldr	r3, .L31+16
 882 005a 0093     		str	r3, [sp]
 883 005c 4FF6E073 		movw	r3, #65504
 884 0060 1F22     		movs	r2, #31
 885 0062 5021     		movs	r1, #80
 886 0064 0A20     		movs	r0, #10
 887 0066 FFF7FEFF 		bl	Show_Str
 888              	.LVL59:
 202:Core/Src/test.c **** 	Show_Str(10,100,BLUE,YELLOW,"8X16:ABCDEFGHIJKLMNOPQRSTUVWXYZ0123456789",16,1);
 889              		.loc 1 202 2 view .LVU145
 890 006a 0296     		str	r6, [sp, #8]
 891 006c 0195     		str	r5, [sp, #4]
 892 006e 124B     		ldr	r3, .L31+20
 893 0070 0093     		str	r3, [sp]
 894 0072 4FF6E073 		movw	r3, #65504
 895 0076 1F22     		movs	r2, #31
 896 0078 6421     		movs	r1, #100
 897 007a 0A20     		movs	r0, #10
 898 007c FFF7FEFF 		bl	Show_Str
 899              	.LVL60:
 203:Core/Src/test.c **** 	Show_Str(10,120,BLUE,YELLOW,"8X16:~!@#$%^&*()_+{}:<>?/|-+.",16,0); 
 900              		.loc 1 203 2 view .LVU146
 901 0080 0294     		str	r4, [sp, #8]
 902 0082 0195     		str	r5, [sp, #4]
ARM GAS  C:\Users\savao\AppData\Local\Temp\ccVfuo0d.s 			page 22


 903 0084 0D4B     		ldr	r3, .L31+24
 904 0086 0093     		str	r3, [sp]
 905 0088 4FF6E073 		movw	r3, #65504
 906 008c 1F22     		movs	r2, #31
 907 008e 7821     		movs	r1, #120
 908 0090 0A20     		movs	r0, #10
 909 0092 FFF7FEFF 		bl	Show_Str
 910              	.LVL61:
 204:Core/Src/test.c **** 	delay_ms(1200);
 911              		.loc 1 204 2 view .LVU147
 912 0096 4FF49660 		mov	r0, #1200
 913 009a FFF7FEFF 		bl	delay_ms
 914              	.LVL62:
 205:Core/Src/test.c **** }
 915              		.loc 1 205 1 is_stmt 0 view .LVU148
 916 009e 04B0     		add	sp, sp, #16
 917              	.LCFI15:
 918              		.cfi_def_cfa_offset 16
 919              		@ sp needed
 920 00a0 70BD     		pop	{r4, r5, r6, pc}
 921              	.L32:
 922 00a2 00BF     		.align	2
 923              	.L31:
 924 00a4 00000000 		.word	.LC19
 925 00a8 14000000 		.word	.LC20
 926 00ac 40000000 		.word	.LC21
 927 00b0 6C000000 		.word	.LC22
 928 00b4 8C000000 		.word	.LC23
 929 00b8 B8000000 		.word	.LC24
 930 00bc E4000000 		.word	.LC25
 931              		.cfi_endproc
 932              	.LFE138:
 934              		.section	.rodata.Test_Triangle.str1.4,"aMS",%progbits,1
 935              		.align	2
 936              	.LC26:
 937 0000 B2E2CAD4 		.ascii	"\262\342\312\3245:GUI Triangle\314\356\263\344\262\342"
 937      353A4755 
 937      49205472 
 937      69616E67 
 937      6C65CCEE 
 938 0018 CAD400   		.ascii	"\312\324\000"
 939              		.section	.text.Test_Triangle,"ax",%progbits
 940              		.align	1
 941              		.global	Test_Triangle
 942              		.syntax unified
 943              		.thumb
 944              		.thumb_func
 945              		.fpu fpv4-sp-d16
 947              	Test_Triangle:
 948              	.LFB139:
 206:Core/Src/test.c **** 
 207:Core/Src/test.c **** /*****************************************************************************
 208:Core/Src/test.c ****  * @name       :void Test_Triangle(void)
 209:Core/Src/test.c ****  * @date       :2018-08-09 
 210:Core/Src/test.c ****  * @function   :triangle display and fill test
 211:Core/Src/test.c **** 								Display red,green,blue,yellow,pink triangle boxes in turn,
 212:Core/Src/test.c **** 								1500 milliseconds later,
ARM GAS  C:\Users\savao\AppData\Local\Temp\ccVfuo0d.s 			page 23


 213:Core/Src/test.c **** 								Fill the triangle in red,green,blue,yellow and pink in turn
 214:Core/Src/test.c ****  * @parameters :None
 215:Core/Src/test.c ****  * @retvalue   :None
 216:Core/Src/test.c **** ******************************************************************************/
 217:Core/Src/test.c **** void Test_Triangle(void)
 218:Core/Src/test.c **** {
 949              		.loc 1 218 1 is_stmt 1 view -0
 950              		.cfi_startproc
 951              		@ args = 0, pretend = 0, frame = 0
 952              		@ frame_needed = 0, uses_anonymous_args = 0
 953 0000 30B5     		push	{r4, r5, lr}
 954              	.LCFI16:
 955              		.cfi_def_cfa_offset 12
 956              		.cfi_offset 4, -12
 957              		.cfi_offset 5, -8
 958              		.cfi_offset 14, -4
 959 0002 83B0     		sub	sp, sp, #12
 960              	.LCFI17:
 961              		.cfi_def_cfa_offset 24
 219:Core/Src/test.c **** 	u8 i=0;
 962              		.loc 1 219 2 view .LVU150
 963              	.LVL63:
 220:Core/Src/test.c **** 	DrawTestPage("测试5:GUI Triangle填充测试");
 964              		.loc 1 220 2 view .LVU151
 965 0004 3248     		ldr	r0, .L39
 966 0006 FFF7FEFF 		bl	DrawTestPage
 967              	.LVL64:
 221:Core/Src/test.c **** 	for(i=0;i<5;i++)
 968              		.loc 1 221 2 view .LVU152
 969              		.loc 1 221 7 is_stmt 0 view .LVU153
 970 000a 0025     		movs	r5, #0
 971              		.loc 1 221 2 view .LVU154
 972 000c 25E0     		b	.L34
 973              	.LVL65:
 974              	.L35:
 222:Core/Src/test.c **** 	{
 223:Core/Src/test.c **** 		POINT_COLOR=ColorTab[i];
 975              		.loc 1 223 3 is_stmt 1 discriminator 3 view .LVU155
 976              		.loc 1 223 23 is_stmt 0 discriminator 3 view .LVU156
 977 000e 314B     		ldr	r3, .L39+4
 978 0010 33F81520 		ldrh	r2, [r3, r5, lsl #1]
 979              		.loc 1 223 14 discriminator 3 view .LVU157
 980 0014 304B     		ldr	r3, .L39+8
 981 0016 1A80     		strh	r2, [r3]	@ movhi
 224:Core/Src/test.c **** 		Draw_Triangel(lcddev.width/2-80+(i*20),lcddev.height/2-20+(i*15),lcddev.width/2-50-1+(i*20),lcdde
 982              		.loc 1 224 3 is_stmt 1 discriminator 3 view .LVU158
 983              		.loc 1 224 23 is_stmt 0 discriminator 3 view .LVU159
 984 0018 304B     		ldr	r3, .L39+12
 985 001a 9988     		ldrh	r1, [r3, #4]
 986              		.loc 1 224 34 discriminator 3 view .LVU160
 987 001c 05EB8502 		add	r2, r5, r5, lsl #2
 988 0020 9400     		lsls	r4, r2, #2
 989 0022 04EB5104 		add	r4, r4, r1, lsr #1
 990 0026 A4B2     		uxth	r4, r4
 991              		.loc 1 224 48 discriminator 3 view .LVU161
 992 0028 DA88     		ldrh	r2, [r3, #6]
 993              		.loc 1 224 60 discriminator 3 view .LVU162
ARM GAS  C:\Users\savao\AppData\Local\Temp\ccVfuo0d.s 			page 24


 994 002a C5EB0513 		rsb	r3, r5, r5, lsl #4
 995 002e 03EB5203 		add	r3, r3, r2, lsr #1
 996 0032 9BB2     		uxth	r3, r3
 997              		.loc 1 224 3 discriminator 3 view .LVU163
 998 0034 A3F11401 		sub	r1, r3, #20
 999 0038 89B2     		uxth	r1, r1
 1000 003a 493B     		subs	r3, r3, #73
 1001 003c A4F13302 		sub	r2, r4, #51
 1002 0040 A4F15000 		sub	r0, r4, #80
 1003 0044 0191     		str	r1, [sp, #4]
 1004 0046 153C     		subs	r4, r4, #21
 1005 0048 A4B2     		uxth	r4, r4
 1006 004a 0094     		str	r4, [sp]
 1007 004c 9BB2     		uxth	r3, r3
 1008 004e 92B2     		uxth	r2, r2
 1009 0050 80B2     		uxth	r0, r0
 1010 0052 FFF7FEFF 		bl	Draw_Triangel
 1011              	.LVL66:
 221:Core/Src/test.c **** 	for(i=0;i<5;i++)
 1012              		.loc 1 221 14 is_stmt 1 discriminator 3 view .LVU164
 221:Core/Src/test.c **** 	for(i=0;i<5;i++)
 1013              		.loc 1 221 15 is_stmt 0 discriminator 3 view .LVU165
 1014 0056 0135     		adds	r5, r5, #1
 1015              	.LVL67:
 221:Core/Src/test.c **** 	for(i=0;i<5;i++)
 1016              		.loc 1 221 15 discriminator 3 view .LVU166
 1017 0058 EDB2     		uxtb	r5, r5
 1018              	.LVL68:
 1019              	.L34:
 221:Core/Src/test.c **** 	for(i=0;i<5;i++)
 1020              		.loc 1 221 10 is_stmt 1 discriminator 1 view .LVU167
 221:Core/Src/test.c **** 	for(i=0;i<5;i++)
 1021              		.loc 1 221 2 is_stmt 0 discriminator 1 view .LVU168
 1022 005a 042D     		cmp	r5, #4
 1023 005c D7D9     		bls	.L35
 225:Core/Src/test.c **** 	}
 226:Core/Src/test.c **** 	delay_ms(1500);	
 1024              		.loc 1 226 2 is_stmt 1 view .LVU169
 1025 005e 40F2DC50 		movw	r0, #1500
 1026 0062 FFF7FEFF 		bl	delay_ms
 1027              	.LVL69:
 227:Core/Src/test.c **** 	for(i=0;i<5;i++)
 1028              		.loc 1 227 2 view .LVU170
 1029              		.loc 1 227 7 is_stmt 0 view .LVU171
 1030 0066 0025     		movs	r5, #0
 1031              		.loc 1 227 2 view .LVU172
 1032 0068 29E0     		b	.L36
 1033              	.LVL70:
 1034              	.L37:
 228:Core/Src/test.c **** 	{
 229:Core/Src/test.c **** 		POINT_COLOR=ColorTab[i];
 1035              		.loc 1 229 3 is_stmt 1 discriminator 3 view .LVU173
 1036              		.loc 1 229 23 is_stmt 0 discriminator 3 view .LVU174
 1037 006a 1A4B     		ldr	r3, .L39+4
 1038 006c 33F81520 		ldrh	r2, [r3, r5, lsl #1]
 1039              		.loc 1 229 14 discriminator 3 view .LVU175
 1040 0070 194B     		ldr	r3, .L39+8
ARM GAS  C:\Users\savao\AppData\Local\Temp\ccVfuo0d.s 			page 25


 1041 0072 1A80     		strh	r2, [r3]	@ movhi
 230:Core/Src/test.c **** 		Fill_Triangel(lcddev.width/2-80+(i*20),lcddev.height/2-20+(i*15),lcddev.width/2-50-1+(i*20),lcdde
 1042              		.loc 1 230 3 is_stmt 1 discriminator 3 view .LVU176
 1043              		.loc 1 230 23 is_stmt 0 discriminator 3 view .LVU177
 1044 0074 194B     		ldr	r3, .L39+12
 1045 0076 9988     		ldrh	r1, [r3, #4]
 1046              		.loc 1 230 34 discriminator 3 view .LVU178
 1047 0078 05EB8502 		add	r2, r5, r5, lsl #2
 1048 007c 4FEA820C 		lsl	ip, r2, #2
 1049 0080 0CEB510C 		add	ip, ip, r1, lsr #1
 1050 0084 1FFA8CFC 		uxth	ip, ip
 1051              		.loc 1 230 48 discriminator 3 view .LVU179
 1052 0088 DA88     		ldrh	r2, [r3, #6]
 1053              		.loc 1 230 60 discriminator 3 view .LVU180
 1054 008a C5EB0513 		rsb	r3, r5, r5, lsl #4
 1055 008e 03EB5203 		add	r3, r3, r2, lsr #1
 1056 0092 9BB2     		uxth	r3, r3
 1057              		.loc 1 230 3 discriminator 3 view .LVU181
 1058 0094 A3F11401 		sub	r1, r3, #20
 1059 0098 89B2     		uxth	r1, r1
 1060 009a 493B     		subs	r3, r3, #73
 1061 009c ACF13302 		sub	r2, ip, #51
 1062 00a0 ACF15000 		sub	r0, ip, #80
 1063 00a4 0191     		str	r1, [sp, #4]
 1064 00a6 ACF1150C 		sub	ip, ip, #21
 1065 00aa 1FFA8CF4 		uxth	r4, ip
 1066 00ae 0094     		str	r4, [sp]
 1067 00b0 9BB2     		uxth	r3, r3
 1068 00b2 92B2     		uxth	r2, r2
 1069 00b4 80B2     		uxth	r0, r0
 1070 00b6 FFF7FEFF 		bl	Fill_Triangel
 1071              	.LVL71:
 227:Core/Src/test.c **** 	for(i=0;i<5;i++)
 1072              		.loc 1 227 14 is_stmt 1 discriminator 3 view .LVU182
 227:Core/Src/test.c **** 	for(i=0;i<5;i++)
 1073              		.loc 1 227 15 is_stmt 0 discriminator 3 view .LVU183
 1074 00ba 0135     		adds	r5, r5, #1
 1075              	.LVL72:
 227:Core/Src/test.c **** 	for(i=0;i<5;i++)
 1076              		.loc 1 227 15 discriminator 3 view .LVU184
 1077 00bc EDB2     		uxtb	r5, r5
 1078              	.LVL73:
 1079              	.L36:
 227:Core/Src/test.c **** 	for(i=0;i<5;i++)
 1080              		.loc 1 227 10 is_stmt 1 discriminator 1 view .LVU185
 227:Core/Src/test.c **** 	for(i=0;i<5;i++)
 1081              		.loc 1 227 2 is_stmt 0 discriminator 1 view .LVU186
 1082 00be 042D     		cmp	r5, #4
 1083 00c0 D3D9     		bls	.L37
 231:Core/Src/test.c **** 	}
 232:Core/Src/test.c **** 	delay_ms(1500);
 1084              		.loc 1 232 2 is_stmt 1 view .LVU187
 1085 00c2 40F2DC50 		movw	r0, #1500
 1086 00c6 FFF7FEFF 		bl	delay_ms
 1087              	.LVL74:
 233:Core/Src/test.c **** }
 1088              		.loc 1 233 1 is_stmt 0 view .LVU188
ARM GAS  C:\Users\savao\AppData\Local\Temp\ccVfuo0d.s 			page 26


 1089 00ca 03B0     		add	sp, sp, #12
 1090              	.LCFI18:
 1091              		.cfi_def_cfa_offset 12
 1092              		@ sp needed
 1093 00cc 30BD     		pop	{r4, r5, pc}
 1094              	.LVL75:
 1095              	.L40:
 1096              		.loc 1 233 1 view .LVU189
 1097 00ce 00BF     		.align	2
 1098              	.L39:
 1099 00d0 00000000 		.word	.LC26
 1100 00d4 00000000 		.word	.LANCHOR0
 1101 00d8 00000000 		.word	POINT_COLOR
 1102 00dc 00000000 		.word	lcddev
 1103              		.cfi_endproc
 1104              	.LFE139:
 1106              		.section	.rodata.Chinese_Font_test.str1.4,"aMS",%progbits,1
 1107              		.align	2
 1108              	.LC27:
 1109 0000 B2E2CAD4 		.ascii	"\262\342\312\3247:\326\320\316\304\317\324\312\276\262"
 1109      373AD6D0 
 1109      CEC4CFD4 
 1109      CABEB2
 1110 000f E2CAD400 		.ascii	"\342\312\324\000"
 1111 0013 00       		.align	2
 1112              	.LC28:
 1113 0014 31365831 		.ascii	"16X16:\311\356\333\332\273\266\323\255\304\372\000"
 1113      363AC9EE 
 1113      DBDABBB6 
 1113      D3ADC4FA 
 1113      00
 1114 0025 000000   		.align	2
 1115              	.LC29:
 1116 0028 31365831 		.ascii	"16X16:Welcome to \311\356\333\332\000"
 1116      363A5765 
 1116      6C636F6D 
 1116      6520746F 
 1116      20C9EEDB 
 1117 003e 0000     		.align	2
 1118              	.LC30:
 1119 0040 32345832 		.ascii	"24X24:\326\320\316\304\262\342\312\324\000"
 1119      343AD6D0 
 1119      CEC4B2E2 
 1119      CAD400
 1120 004f 00       		.align	2
 1121              	.LC31:
 1122 0050 33325833 		.ascii	"32X32:\327\326\314\345\262\342\312\324\000"
 1122      323AD7D6 
 1122      CCE5B2E2 
 1122      CAD400
 1123              		.section	.text.Chinese_Font_test,"ax",%progbits
 1124              		.align	1
 1125              		.global	Chinese_Font_test
 1126              		.syntax unified
 1127              		.thumb
 1128              		.thumb_func
 1129              		.fpu fpv4-sp-d16
ARM GAS  C:\Users\savao\AppData\Local\Temp\ccVfuo0d.s 			page 27


 1131              	Chinese_Font_test:
 1132              	.LFB140:
 234:Core/Src/test.c **** 
 235:Core/Src/test.c **** /*****************************************************************************
 236:Core/Src/test.c ****  * @name       :void Chinese_Font_test(void)
 237:Core/Src/test.c ****  * @date       :2018-08-09 
 238:Core/Src/test.c ****  * @function   :chinese display test
 239:Core/Src/test.c ****  * @parameters :None
 240:Core/Src/test.c ****  * @retvalue   :None
 241:Core/Src/test.c **** ******************************************************************************/
 242:Core/Src/test.c **** void Chinese_Font_test(void)
 243:Core/Src/test.c **** {	
 1133              		.loc 1 243 1 is_stmt 1 view -0
 1134              		.cfi_startproc
 1135              		@ args = 0, pretend = 0, frame = 0
 1136              		@ frame_needed = 0, uses_anonymous_args = 0
 1137 0000 30B5     		push	{r4, r5, lr}
 1138              	.LCFI19:
 1139              		.cfi_def_cfa_offset 12
 1140              		.cfi_offset 4, -12
 1141              		.cfi_offset 5, -8
 1142              		.cfi_offset 14, -4
 1143 0002 85B0     		sub	sp, sp, #20
 1144              	.LCFI20:
 1145              		.cfi_def_cfa_offset 32
 244:Core/Src/test.c **** 	DrawTestPage("测试7:中文显示测试");
 1146              		.loc 1 244 2 view .LVU191
 1147 0004 1C48     		ldr	r0, .L43
 1148 0006 FFF7FEFF 		bl	DrawTestPage
 1149              	.LVL76:
 245:Core/Src/test.c **** 	Show_Str(10,30,BLUE,YELLOW,"16X16:深圳欢迎您",16,0);
 1150              		.loc 1 245 2 view .LVU192
 1151 000a 0025     		movs	r5, #0
 1152 000c 0295     		str	r5, [sp, #8]
 1153 000e 1024     		movs	r4, #16
 1154 0010 0194     		str	r4, [sp, #4]
 1155 0012 1A4B     		ldr	r3, .L43+4
 1156 0014 0093     		str	r3, [sp]
 1157 0016 4FF6E073 		movw	r3, #65504
 1158 001a 1F22     		movs	r2, #31
 1159 001c 1E21     		movs	r1, #30
 1160 001e 0A20     		movs	r0, #10
 1161 0020 FFF7FEFF 		bl	Show_Str
 1162              	.LVL77:
 246:Core/Src/test.c **** 	Show_Str(10,50,BLUE,YELLOW,"16X16:Welcome to 深圳",16,0);
 1163              		.loc 1 246 2 view .LVU193
 1164 0024 0295     		str	r5, [sp, #8]
 1165 0026 0194     		str	r4, [sp, #4]
 1166 0028 154B     		ldr	r3, .L43+8
 1167 002a 0093     		str	r3, [sp]
 1168 002c 4FF6E073 		movw	r3, #65504
 1169 0030 1F22     		movs	r2, #31
 1170 0032 3221     		movs	r1, #50
 1171 0034 0A20     		movs	r0, #10
 1172 0036 FFF7FEFF 		bl	Show_Str
 1173              	.LVL78:
 247:Core/Src/test.c **** 	Show_Str(10,70,BLUE,YELLOW,"24X24:中文测试",24,1);
ARM GAS  C:\Users\savao\AppData\Local\Temp\ccVfuo0d.s 			page 28


 1174              		.loc 1 247 2 view .LVU194
 1175 003a 0124     		movs	r4, #1
 1176 003c 0294     		str	r4, [sp, #8]
 1177 003e 1823     		movs	r3, #24
 1178 0040 0193     		str	r3, [sp, #4]
 1179 0042 104B     		ldr	r3, .L43+12
 1180 0044 0093     		str	r3, [sp]
 1181 0046 4FF6E073 		movw	r3, #65504
 1182 004a 1F22     		movs	r2, #31
 1183 004c 4621     		movs	r1, #70
 1184 004e 0A20     		movs	r0, #10
 1185 0050 FFF7FEFF 		bl	Show_Str
 1186              	.LVL79:
 248:Core/Src/test.c **** 	Show_Str(10,100,BLUE,YELLOW,"32X32:字体测试",32,1);
 1187              		.loc 1 248 2 view .LVU195
 1188 0054 0294     		str	r4, [sp, #8]
 1189 0056 2023     		movs	r3, #32
 1190 0058 0193     		str	r3, [sp, #4]
 1191 005a 0B4B     		ldr	r3, .L43+16
 1192 005c 0093     		str	r3, [sp]
 1193 005e 4FF6E073 		movw	r3, #65504
 1194 0062 1F22     		movs	r2, #31
 1195 0064 6421     		movs	r1, #100
 1196 0066 0A20     		movs	r0, #10
 1197 0068 FFF7FEFF 		bl	Show_Str
 1198              	.LVL80:
 249:Core/Src/test.c **** 	delay_ms(1200);
 1199              		.loc 1 249 2 view .LVU196
 1200 006c 4FF49660 		mov	r0, #1200
 1201 0070 FFF7FEFF 		bl	delay_ms
 1202              	.LVL81:
 250:Core/Src/test.c **** }
 1203              		.loc 1 250 1 is_stmt 0 view .LVU197
 1204 0074 05B0     		add	sp, sp, #20
 1205              	.LCFI21:
 1206              		.cfi_def_cfa_offset 12
 1207              		@ sp needed
 1208 0076 30BD     		pop	{r4, r5, pc}
 1209              	.L44:
 1210              		.align	2
 1211              	.L43:
 1212 0078 00000000 		.word	.LC27
 1213 007c 14000000 		.word	.LC28
 1214 0080 28000000 		.word	.LC29
 1215 0084 40000000 		.word	.LC30
 1216 0088 50000000 		.word	.LC31
 1217              		.cfi_endproc
 1218              	.LFE140:
 1220              		.section	.rodata.Pic_test.str1.4,"aMS",%progbits,1
 1221              		.align	2
 1222              	.LC32:
 1223 0000 B2E2CAD4 		.ascii	"\262\342\312\3248:\315\274\306\254\317\324\312\276\262"
 1223      383ACDBC 
 1223      C6ACCFD4 
 1223      CABEB2
 1224 000f E2CAD400 		.ascii	"\342\312\324\000"
 1225 0013 00       		.align	2
ARM GAS  C:\Users\savao\AppData\Local\Temp\ccVfuo0d.s 			page 29


 1226              	.LC33:
 1227 0014 515100   		.ascii	"QQ\000"
 1228              		.section	.text.Pic_test,"ax",%progbits
 1229              		.align	1
 1230              		.global	Pic_test
 1231              		.syntax unified
 1232              		.thumb
 1233              		.thumb_func
 1234              		.fpu fpv4-sp-d16
 1236              	Pic_test:
 1237              	.LFB141:
 251:Core/Src/test.c **** 
 252:Core/Src/test.c **** /*****************************************************************************
 253:Core/Src/test.c ****  * @name       :void Pic_test(void)
 254:Core/Src/test.c ****  * @date       :2018-08-09 
 255:Core/Src/test.c ****  * @function   :picture display test
 256:Core/Src/test.c ****  * @parameters :None
 257:Core/Src/test.c ****  * @retvalue   :None
 258:Core/Src/test.c **** ******************************************************************************/
 259:Core/Src/test.c **** void Pic_test(void)
 260:Core/Src/test.c **** {
 1238              		.loc 1 260 1 is_stmt 1 view -0
 1239              		.cfi_startproc
 1240              		@ args = 0, pretend = 0, frame = 0
 1241              		@ frame_needed = 0, uses_anonymous_args = 0
 1242 0000 F0B5     		push	{r4, r5, r6, r7, lr}
 1243              	.LCFI22:
 1244              		.cfi_def_cfa_offset 20
 1245              		.cfi_offset 4, -20
 1246              		.cfi_offset 5, -16
 1247              		.cfi_offset 6, -12
 1248              		.cfi_offset 7, -8
 1249              		.cfi_offset 14, -4
 1250 0002 85B0     		sub	sp, sp, #20
 1251              	.LCFI23:
 1252              		.cfi_def_cfa_offset 40
 261:Core/Src/test.c **** 	DrawTestPage("测试8:图片显示测试");
 1253              		.loc 1 261 2 view .LVU199
 1254 0004 1F48     		ldr	r0, .L47
 1255 0006 FFF7FEFF 		bl	DrawTestPage
 1256              	.LVL82:
 262:Core/Src/test.c **** 	Gui_Drawbmp16(30,30,40,40,gImage_qq);
 1257              		.loc 1 262 2 view .LVU200
 1258 000a 1F4F     		ldr	r7, .L47+4
 1259 000c 0097     		str	r7, [sp]
 1260 000e 2823     		movs	r3, #40
 1261 0010 1A46     		mov	r2, r3
 1262 0012 1E21     		movs	r1, #30
 1263 0014 0846     		mov	r0, r1
 1264 0016 FFF7FEFF 		bl	Gui_Drawbmp16
 1265              	.LVL83:
 263:Core/Src/test.c **** 	Show_Str(30+12,75,BLUE,YELLOW,"QQ",16,1);
 1266              		.loc 1 263 2 view .LVU201
 1267 001a 0126     		movs	r6, #1
 1268 001c 0296     		str	r6, [sp, #8]
 1269 001e 1025     		movs	r5, #16
 1270 0020 0195     		str	r5, [sp, #4]
ARM GAS  C:\Users\savao\AppData\Local\Temp\ccVfuo0d.s 			page 30


 1271 0022 1A4C     		ldr	r4, .L47+8
 1272 0024 0094     		str	r4, [sp]
 1273 0026 4FF6E073 		movw	r3, #65504
 1274 002a 1F22     		movs	r2, #31
 1275 002c 4B21     		movs	r1, #75
 1276 002e 2A20     		movs	r0, #42
 1277 0030 FFF7FEFF 		bl	Show_Str
 1278              	.LVL84:
 264:Core/Src/test.c **** 	Gui_Drawbmp16(90,30,40,40,gImage_qq);
 1279              		.loc 1 264 2 view .LVU202
 1280 0034 0097     		str	r7, [sp]
 1281 0036 2823     		movs	r3, #40
 1282 0038 1A46     		mov	r2, r3
 1283 003a 1E21     		movs	r1, #30
 1284 003c 5A20     		movs	r0, #90
 1285 003e FFF7FEFF 		bl	Gui_Drawbmp16
 1286              	.LVL85:
 265:Core/Src/test.c **** 	Show_Str(90+12,75,BLUE,YELLOW,"QQ",16,1);
 1287              		.loc 1 265 2 view .LVU203
 1288 0042 0296     		str	r6, [sp, #8]
 1289 0044 0195     		str	r5, [sp, #4]
 1290 0046 0094     		str	r4, [sp]
 1291 0048 4FF6E073 		movw	r3, #65504
 1292 004c 1F22     		movs	r2, #31
 1293 004e 4B21     		movs	r1, #75
 1294 0050 6620     		movs	r0, #102
 1295 0052 FFF7FEFF 		bl	Show_Str
 1296              	.LVL86:
 266:Core/Src/test.c **** 	Gui_Drawbmp16(150,30,40,40,gImage_qq);
 1297              		.loc 1 266 2 view .LVU204
 1298 0056 0097     		str	r7, [sp]
 1299 0058 2823     		movs	r3, #40
 1300 005a 1A46     		mov	r2, r3
 1301 005c 1E21     		movs	r1, #30
 1302 005e 9620     		movs	r0, #150
 1303 0060 FFF7FEFF 		bl	Gui_Drawbmp16
 1304              	.LVL87:
 267:Core/Src/test.c **** 	Show_Str(150+12,75,BLUE,YELLOW,"QQ",16,1);
 1305              		.loc 1 267 2 view .LVU205
 1306 0064 0296     		str	r6, [sp, #8]
 1307 0066 0195     		str	r5, [sp, #4]
 1308 0068 0094     		str	r4, [sp]
 1309 006a 4FF6E073 		movw	r3, #65504
 1310 006e 1F22     		movs	r2, #31
 1311 0070 4B21     		movs	r1, #75
 1312 0072 A220     		movs	r0, #162
 1313 0074 FFF7FEFF 		bl	Show_Str
 1314              	.LVL88:
 268:Core/Src/test.c **** 	delay_ms(1200);
 1315              		.loc 1 268 2 view .LVU206
 1316 0078 4FF49660 		mov	r0, #1200
 1317 007c FFF7FEFF 		bl	delay_ms
 1318              	.LVL89:
 269:Core/Src/test.c **** }
 1319              		.loc 1 269 1 is_stmt 0 view .LVU207
 1320 0080 05B0     		add	sp, sp, #20
 1321              	.LCFI24:
ARM GAS  C:\Users\savao\AppData\Local\Temp\ccVfuo0d.s 			page 31


 1322              		.cfi_def_cfa_offset 20
 1323              		@ sp needed
 1324 0082 F0BD     		pop	{r4, r5, r6, r7, pc}
 1325              	.L48:
 1326              		.align	2
 1327              	.L47:
 1328 0084 00000000 		.word	.LC32
 1329 0088 00000000 		.word	.LANCHOR1
 1330 008c 14000000 		.word	.LC33
 1331              		.cfi_endproc
 1332              	.LFE141:
 1334              		.section	.rodata.Rotate_Test.str1.4,"aMS",%progbits,1
 1335              		.align	2
 1336              	.LC35:
 1337 0000 B2E2CAD4 		.ascii	"\262\342\312\32410:\306\301\304\273\320\375\327\252"
 1337      31303AC6 
 1337      C1C4BBD0 
 1337      FDD7AA
 1338 000f B2E2CAD4 		.ascii	"\262\342\312\324\000"
 1338      00
 1339              		.section	.text.Rotate_Test,"ax",%progbits
 1340              		.align	1
 1341              		.global	Rotate_Test
 1342              		.syntax unified
 1343              		.thumb
 1344              		.thumb_func
 1345              		.fpu fpv4-sp-d16
 1347              	Rotate_Test:
 1348              	.LFB142:
 270:Core/Src/test.c **** 
 271:Core/Src/test.c **** /*****************************************************************************
 272:Core/Src/test.c ****  * @name       :void Rotate_Test(void)
 273:Core/Src/test.c ****  * @date       :2018-08-09 
 274:Core/Src/test.c ****  * @function   :rotate test
 275:Core/Src/test.c ****  * @parameters :None
 276:Core/Src/test.c ****  * @retvalue   :None
 277:Core/Src/test.c **** ******************************************************************************/
 278:Core/Src/test.c **** void Rotate_Test(void)
 279:Core/Src/test.c **** {
 1349              		.loc 1 279 1 is_stmt 1 view -0
 1350              		.cfi_startproc
 1351              		@ args = 0, pretend = 0, frame = 16
 1352              		@ frame_needed = 0, uses_anonymous_args = 0
 1353 0000 10B5     		push	{r4, lr}
 1354              	.LCFI25:
 1355              		.cfi_def_cfa_offset 8
 1356              		.cfi_offset 4, -8
 1357              		.cfi_offset 14, -4
 1358 0002 88B0     		sub	sp, sp, #32
 1359              	.LCFI26:
 1360              		.cfi_def_cfa_offset 40
 280:Core/Src/test.c **** 	u8 i=0;
 1361              		.loc 1 280 2 view .LVU209
 1362              	.LVL90:
 281:Core/Src/test.c **** 	u8 *Direction[4]={"Rotation:0","Rotation:90","Rotation:180","Rotation:270"};
 1363              		.loc 1 281 2 view .LVU210
 1364              		.loc 1 281 6 is_stmt 0 view .LVU211
ARM GAS  C:\Users\savao\AppData\Local\Temp\ccVfuo0d.s 			page 32


 1365 0004 1D4B     		ldr	r3, .L53
 1366 0006 0FCB     		ldm	r3, {r0, r1, r2, r3}
 1367 0008 08AC     		add	r4, sp, #32
 1368 000a 04E90F00 		stmdb	r4, {r0, r1, r2, r3}
 282:Core/Src/test.c **** 	
 283:Core/Src/test.c **** 	for(i=0;i<4;i++)
 1369              		.loc 1 283 2 is_stmt 1 view .LVU212
 1370              		.loc 1 283 7 is_stmt 0 view .LVU213
 1371 000e 0024     		movs	r4, #0
 1372              		.loc 1 283 2 view .LVU214
 1373 0010 2CE0     		b	.L50
 1374              	.LVL91:
 1375              	.L51:
 284:Core/Src/test.c **** 	{
 285:Core/Src/test.c **** 		LCD_Clear(WHITE);
 1376              		.loc 1 285 3 is_stmt 1 discriminator 3 view .LVU215
 1377 0012 4FF6FF70 		movw	r0, #65535
 1378 0016 FFF7FEFF 		bl	LCD_Clear
 1379              	.LVL92:
 286:Core/Src/test.c **** 		LCD_direction(i);
 1380              		.loc 1 286 3 discriminator 3 view .LVU216
 1381 001a 2046     		mov	r0, r4
 1382 001c FFF7FEFF 		bl	LCD_direction
 1383              	.LVL93:
 287:Core/Src/test.c **** 		DrawTestPage("测试10:屏幕旋转测试");
 1384              		.loc 1 287 3 discriminator 3 view .LVU217
 1385 0020 1748     		ldr	r0, .L53+4
 1386 0022 FFF7FEFF 		bl	DrawTestPage
 1387              	.LVL94:
 288:Core/Src/test.c **** 		Show_Str(20,30,BLUE,YELLOW,Direction[i],16,1);
 1388              		.loc 1 288 3 discriminator 3 view .LVU218
 1389 0026 0123     		movs	r3, #1
 1390 0028 0293     		str	r3, [sp, #8]
 1391 002a 1023     		movs	r3, #16
 1392 002c 0193     		str	r3, [sp, #4]
 1393 002e 08AB     		add	r3, sp, #32
 1394 0030 03EB8403 		add	r3, r3, r4, lsl #2
 1395 0034 53F8103C 		ldr	r3, [r3, #-16]
 1396 0038 0093     		str	r3, [sp]
 1397 003a 4FF6E073 		movw	r3, #65504
 1398 003e 1F22     		movs	r2, #31
 1399 0040 1E21     		movs	r1, #30
 1400 0042 1420     		movs	r0, #20
 1401 0044 FFF7FEFF 		bl	Show_Str
 1402              	.LVL95:
 289:Core/Src/test.c **** 		Gui_Drawbmp16(30,50,40,40,gImage_qq);
 1403              		.loc 1 289 3 discriminator 3 view .LVU219
 1404 0048 0E4B     		ldr	r3, .L53+8
 1405 004a 0093     		str	r3, [sp]
 1406 004c 2823     		movs	r3, #40
 1407 004e 1A46     		mov	r2, r3
 1408 0050 3221     		movs	r1, #50
 1409 0052 1E20     		movs	r0, #30
 1410 0054 FFF7FEFF 		bl	Gui_Drawbmp16
 1411              	.LVL96:
 290:Core/Src/test.c **** 		delay_ms(1000);delay_ms(1000);
 1412              		.loc 1 290 3 discriminator 3 view .LVU220
ARM GAS  C:\Users\savao\AppData\Local\Temp\ccVfuo0d.s 			page 33


 1413 0058 4FF47A70 		mov	r0, #1000
 1414 005c FFF7FEFF 		bl	delay_ms
 1415              	.LVL97:
 1416              		.loc 1 290 18 discriminator 3 view .LVU221
 1417 0060 4FF47A70 		mov	r0, #1000
 1418 0064 FFF7FEFF 		bl	delay_ms
 1419              	.LVL98:
 283:Core/Src/test.c **** 	{
 1420              		.loc 1 283 14 discriminator 3 view .LVU222
 283:Core/Src/test.c **** 	{
 1421              		.loc 1 283 15 is_stmt 0 discriminator 3 view .LVU223
 1422 0068 0134     		adds	r4, r4, #1
 1423              	.LVL99:
 283:Core/Src/test.c **** 	{
 1424              		.loc 1 283 15 discriminator 3 view .LVU224
 1425 006a E4B2     		uxtb	r4, r4
 1426              	.LVL100:
 1427              	.L50:
 283:Core/Src/test.c **** 	{
 1428              		.loc 1 283 10 is_stmt 1 discriminator 1 view .LVU225
 283:Core/Src/test.c **** 	{
 1429              		.loc 1 283 2 is_stmt 0 discriminator 1 view .LVU226
 1430 006c 032C     		cmp	r4, #3
 1431 006e D0D9     		bls	.L51
 291:Core/Src/test.c **** 	}
 292:Core/Src/test.c **** 	LCD_direction(USE_HORIZONTAL);
 1432              		.loc 1 292 2 is_stmt 1 view .LVU227
 1433 0070 0020     		movs	r0, #0
 1434 0072 FFF7FEFF 		bl	LCD_direction
 1435              	.LVL101:
 293:Core/Src/test.c **** }
 1436              		.loc 1 293 1 is_stmt 0 view .LVU228
 1437 0076 08B0     		add	sp, sp, #32
 1438              	.LCFI27:
 1439              		.cfi_def_cfa_offset 8
 1440              		@ sp needed
 1441 0078 10BD     		pop	{r4, pc}
 1442              	.LVL102:
 1443              	.L54:
 1444              		.loc 1 293 1 view .LVU229
 1445 007a 00BF     		.align	2
 1446              	.L53:
 1447 007c 00000000 		.word	.LANCHOR2
 1448 0080 00000000 		.word	.LC35
 1449 0084 00000000 		.word	.LANCHOR1
 1450              		.cfi_endproc
 1451              	.LFE142:
 1453              		.section	.rodata.Test_Read.str1.4,"aMS",%progbits,1
 1454              		.align	2
 1455              	.LC36:
 1456 0000 B2E2CAD4 		.ascii	"\262\342\312\3242:\266\301ID\272\315\321\325\311\253"
 1456      323AB6C1 
 1456      4944BACD 
 1456      D1D5C9AB 
 1457 0010 D6B5B2E2 		.ascii	"\326\265\262\342\312\324\000"
 1457      CAD400
 1458 0017 00       		.align	2
ARM GAS  C:\Users\savao\AppData\Local\Temp\ccVfuo0d.s 			page 34


 1459              	.LC37:
 1460 0018 49443A30 		.ascii	"ID:0x%x\000"
 1460      78257800 
 1461              		.align	2
 1462              	.LC38:
 1463 0020 4F4B00   		.ascii	"OK\000"
 1464 0023 00       		.align	2
 1465              	.LC39:
 1466 0024 4552524F 		.ascii	"ERROR\000"
 1466      5200
 1467 002a 0000     		.align	2
 1468              	.LC40:
 1469 002c 72656164 		.ascii	"read color:0x%04X  %s\000"
 1469      20636F6C 
 1469      6F723A30 
 1469      78253034 
 1469      58202025 
 1470              		.section	.text.Test_Read,"ax",%progbits
 1471              		.align	1
 1472              		.global	Test_Read
 1473              		.syntax unified
 1474              		.thumb
 1475              		.thumb_func
 1476              		.fpu fpv4-sp-d16
 1478              	Test_Read:
 1479              	.LFB143:
 294:Core/Src/test.c **** 
 295:Core/Src/test.c **** /*****************************************************************************
 296:Core/Src/test.c ****  * @name       :void Test_Read(void)
 297:Core/Src/test.c ****  * @date       :2018-11-13 
 298:Core/Src/test.c ****  * @function   :read test
 299:Core/Src/test.c ****  * @parameters :None
 300:Core/Src/test.c ****  * @retvalue   :None
 301:Core/Src/test.c **** ******************************************************************************/
 302:Core/Src/test.c **** void Test_Read(void)
 303:Core/Src/test.c **** {
 1480              		.loc 1 303 1 is_stmt 1 view -0
 1481              		.cfi_startproc
 1482              		@ args = 0, pretend = 0, frame = 48
 1483              		@ frame_needed = 0, uses_anonymous_args = 0
 1484 0000 70B5     		push	{r4, r5, r6, lr}
 1485              	.LCFI28:
 1486              		.cfi_def_cfa_offset 16
 1487              		.cfi_offset 4, -16
 1488              		.cfi_offset 5, -12
 1489              		.cfi_offset 6, -8
 1490              		.cfi_offset 14, -4
 1491 0002 90B0     		sub	sp, sp, #64
 1492              	.LCFI29:
 1493              		.cfi_def_cfa_offset 80
 304:Core/Src/test.c **** 	u16 color;
 1494              		.loc 1 304 2 view .LVU231
 305:Core/Src/test.c **** 	u8 buf[10] = {0},i;
 1495              		.loc 1 305 2 view .LVU232
 1496              		.loc 1 305 5 is_stmt 0 view .LVU233
 1497 0004 0025     		movs	r5, #0
 1498 0006 0D95     		str	r5, [sp, #52]
ARM GAS  C:\Users\savao\AppData\Local\Temp\ccVfuo0d.s 			page 35


 1499 0008 0E95     		str	r5, [sp, #56]
 1500 000a ADF83C50 		strh	r5, [sp, #60]	@ movhi
 306:Core/Src/test.c **** 	u8 cbuf[35] = {0};
 1501              		.loc 1 306 2 is_stmt 1 view .LVU234
 1502              		.loc 1 306 5 is_stmt 0 view .LVU235
 1503 000e 0495     		str	r5, [sp, #16]
 1504 0010 1F24     		movs	r4, #31
 1505 0012 2246     		mov	r2, r4
 1506 0014 2946     		mov	r1, r5
 1507 0016 05A8     		add	r0, sp, #20
 1508 0018 FFF7FEFF 		bl	memset
 1509              	.LVL103:
 307:Core/Src/test.c **** 	DrawTestPage("测试2:读ID和颜色值测试");
 1510              		.loc 1 307 2 is_stmt 1 view .LVU236
 1511 001c 3048     		ldr	r0, .L63
 1512 001e FFF7FEFF 		bl	DrawTestPage
 1513              	.LVL104:
 308:Core/Src/test.c **** 	sprintf((char *)buf,"ID:0x%x",lcddev.id);
 1514              		.loc 1 308 2 view .LVU237
 1515 0022 0DAE     		add	r6, sp, #52
 1516 0024 2F4B     		ldr	r3, .L63+4
 1517 0026 1A89     		ldrh	r2, [r3, #8]
 1518 0028 2F49     		ldr	r1, .L63+8
 1519 002a 3046     		mov	r0, r6
 1520 002c FFF7FEFF 		bl	sprintf
 1521              	.LVL105:
 309:Core/Src/test.c **** 	Show_Str(50,25,BLUE,YELLOW,buf,16,1);
 1522              		.loc 1 309 2 view .LVU238
 1523 0030 0123     		movs	r3, #1
 1524 0032 0293     		str	r3, [sp, #8]
 1525 0034 1023     		movs	r3, #16
 1526 0036 0193     		str	r3, [sp, #4]
 1527 0038 0096     		str	r6, [sp]
 1528 003a 4FF6E073 		movw	r3, #65504
 1529 003e 2246     		mov	r2, r4
 1530 0040 1921     		movs	r1, #25
 1531 0042 3220     		movs	r0, #50
 1532 0044 FFF7FEFF 		bl	Show_Str
 1533              	.LVL106:
 310:Core/Src/test.c **** 	for (i=0; i<7; i++) 
 1534              		.loc 1 310 2 view .LVU239
 1535              		.loc 1 310 2 is_stmt 0 view .LVU240
 1536 0048 1DE0     		b	.L56
 1537              	.LVL107:
 1538              	.L62:
 311:Core/Src/test.c **** 	{
 312:Core/Src/test.c **** 		POINT_COLOR=ColornTab[i];
 313:Core/Src/test.c **** 		LCD_DrawFillRectangle(20-10,55+i*25-10,20+10,55+i*25+10);
 314:Core/Src/test.c **** 		color = LCD_ReadPoint(20,55+i*25);
 315:Core/Src/test.c **** 		if(POINT_COLOR==color)
 316:Core/Src/test.c **** 		{
 317:Core/Src/test.c **** 			strcpy((char*)buf, "OK");
 1539              		.loc 1 317 4 is_stmt 1 view .LVU241
 1540 004a 284B     		ldr	r3, .L63+12
 1541 004c 1B68     		ldr	r3, [r3]
 1542 004e ADF83430 		strh	r3, [sp, #52]	@ movhi
 1543 0052 1B0C     		lsrs	r3, r3, #16
ARM GAS  C:\Users\savao\AppData\Local\Temp\ccVfuo0d.s 			page 36


 1544 0054 8DF83630 		strb	r3, [sp, #54]
 1545              	.LVL108:
 1546              	.L58:
 318:Core/Src/test.c **** 		}
 319:Core/Src/test.c **** 		else
 320:Core/Src/test.c **** 		{
 321:Core/Src/test.c **** 			strcpy((char*)buf, "ERROR");
 322:Core/Src/test.c **** 		}
 323:Core/Src/test.c **** 		sprintf((char *)cbuf,"read color:0x%04X  %s",color, buf);
 1547              		.loc 1 323 3 discriminator 2 view .LVU242
 1548 0058 04AE     		add	r6, sp, #16
 1549 005a 0DAB     		add	r3, sp, #52
 1550 005c 2449     		ldr	r1, .L63+16
 1551 005e 3046     		mov	r0, r6
 1552 0060 FFF7FEFF 		bl	sprintf
 1553              	.LVL109:
 324:Core/Src/test.c **** 		Show_Str(20+20,55+i*25-8,POINT_COLOR,YELLOW,cbuf,16,1);
 1554              		.loc 1 324 3 discriminator 2 view .LVU243
 1555 0064 04F12F01 		add	r1, r4, #47
 1556 0068 0123     		movs	r3, #1
 1557 006a 0293     		str	r3, [sp, #8]
 1558 006c 1023     		movs	r3, #16
 1559 006e 0193     		str	r3, [sp, #4]
 1560 0070 0096     		str	r6, [sp]
 1561 0072 4FF6E073 		movw	r3, #65504
 1562 0076 1F4A     		ldr	r2, .L63+20
 1563 0078 1288     		ldrh	r2, [r2]
 1564 007a 89B2     		uxth	r1, r1
 1565 007c 2820     		movs	r0, #40
 1566 007e FFF7FEFF 		bl	Show_Str
 1567              	.LVL110:
 310:Core/Src/test.c **** 	{
 1568              		.loc 1 310 17 discriminator 2 view .LVU244
 310:Core/Src/test.c **** 	{
 1569              		.loc 1 310 18 is_stmt 0 discriminator 2 view .LVU245
 1570 0082 0135     		adds	r5, r5, #1
 1571              	.LVL111:
 310:Core/Src/test.c **** 	{
 1572              		.loc 1 310 18 discriminator 2 view .LVU246
 1573 0084 EDB2     		uxtb	r5, r5
 1574              	.LVL112:
 1575              	.L56:
 310:Core/Src/test.c **** 	{
 1576              		.loc 1 310 12 is_stmt 1 discriminator 1 view .LVU247
 310:Core/Src/test.c **** 	{
 1577              		.loc 1 310 2 is_stmt 0 discriminator 1 view .LVU248
 1578 0086 062D     		cmp	r5, #6
 1579 0088 24D8     		bhi	.L61
 312:Core/Src/test.c **** 		LCD_DrawFillRectangle(20-10,55+i*25-10,20+10,55+i*25+10);
 1580              		.loc 1 312 3 is_stmt 1 view .LVU249
 312:Core/Src/test.c **** 		LCD_DrawFillRectangle(20-10,55+i*25-10,20+10,55+i*25+10);
 1581              		.loc 1 312 24 is_stmt 0 view .LVU250
 1582 008a 1B4B     		ldr	r3, .L63+24
 1583 008c 33F81530 		ldrh	r3, [r3, r5, lsl #1]
 312:Core/Src/test.c **** 		LCD_DrawFillRectangle(20-10,55+i*25-10,20+10,55+i*25+10);
 1584              		.loc 1 312 14 view .LVU251
 1585 0090 184E     		ldr	r6, .L63+20
ARM GAS  C:\Users\savao\AppData\Local\Temp\ccVfuo0d.s 			page 37


 1586 0092 3380     		strh	r3, [r6]	@ movhi
 313:Core/Src/test.c **** 		color = LCD_ReadPoint(20,55+i*25);
 1587              		.loc 1 313 3 is_stmt 1 view .LVU252
 1588 0094 05EB8504 		add	r4, r5, r5, lsl #2
 1589 0098 04EB8404 		add	r4, r4, r4, lsl #2
 1590 009c A4B2     		uxth	r4, r4
 1591 009e 04F14103 		add	r3, r4, #65
 1592 00a2 04F12D01 		add	r1, r4, #45
 1593 00a6 9BB2     		uxth	r3, r3
 1594 00a8 1E22     		movs	r2, #30
 1595 00aa 89B2     		uxth	r1, r1
 1596 00ac 0A20     		movs	r0, #10
 1597 00ae FFF7FEFF 		bl	LCD_DrawFillRectangle
 1598              	.LVL113:
 314:Core/Src/test.c **** 		if(POINT_COLOR==color)
 1599              		.loc 1 314 3 view .LVU253
 314:Core/Src/test.c **** 		if(POINT_COLOR==color)
 1600              		.loc 1 314 11 is_stmt 0 view .LVU254
 1601 00b2 04F13701 		add	r1, r4, #55
 1602 00b6 89B2     		uxth	r1, r1
 1603 00b8 1420     		movs	r0, #20
 1604 00ba FFF7FEFF 		bl	LCD_ReadPoint
 1605              	.LVL114:
 1606 00be 0246     		mov	r2, r0
 1607              	.LVL115:
 315:Core/Src/test.c **** 		{
 1608              		.loc 1 315 3 is_stmt 1 view .LVU255
 315:Core/Src/test.c **** 		{
 1609              		.loc 1 315 17 is_stmt 0 view .LVU256
 1610 00c0 3388     		ldrh	r3, [r6]
 315:Core/Src/test.c **** 		{
 1611              		.loc 1 315 5 view .LVU257
 1612 00c2 8342     		cmp	r3, r0
 1613 00c4 C1D0     		beq	.L62
 321:Core/Src/test.c **** 		}
 1614              		.loc 1 321 4 is_stmt 1 view .LVU258
 1615 00c6 0D4B     		ldr	r3, .L63+28
 1616 00c8 93E80300 		ldm	r3, {r0, r1}
 1617              	.LVL116:
 321:Core/Src/test.c **** 		}
 1618              		.loc 1 321 4 is_stmt 0 view .LVU259
 1619 00cc 0D90     		str	r0, [sp, #52]
 1620 00ce ADF83810 		strh	r1, [sp, #56]	@ movhi
 1621 00d2 C1E7     		b	.L58
 1622              	.L61:
 325:Core/Src/test.c **** 	}
 326:Core/Src/test.c **** 	delay_ms(1500);
 1623              		.loc 1 326 2 is_stmt 1 view .LVU260
 1624 00d4 40F2DC50 		movw	r0, #1500
 1625 00d8 FFF7FEFF 		bl	delay_ms
 1626              	.LVL117:
 327:Core/Src/test.c **** }
 1627              		.loc 1 327 1 is_stmt 0 view .LVU261
 1628 00dc 10B0     		add	sp, sp, #64
 1629              	.LCFI30:
 1630              		.cfi_def_cfa_offset 16
 1631              		@ sp needed
ARM GAS  C:\Users\savao\AppData\Local\Temp\ccVfuo0d.s 			page 38


 1632 00de 70BD     		pop	{r4, r5, r6, pc}
 1633              	.LVL118:
 1634              	.L64:
 1635              		.loc 1 327 1 view .LVU262
 1636              		.align	2
 1637              	.L63:
 1638 00e0 00000000 		.word	.LC36
 1639 00e4 00000000 		.word	lcddev
 1640 00e8 18000000 		.word	.LC37
 1641 00ec 20000000 		.word	.LC38
 1642 00f0 2C000000 		.word	.LC40
 1643 00f4 00000000 		.word	POINT_COLOR
 1644 00f8 00000000 		.word	.LANCHOR3
 1645 00fc 24000000 		.word	.LC39
 1646              		.cfi_endproc
 1647              	.LFE143:
 1649              		.section	.rodata.POINT_Test.str1.4,"aMS",%progbits,1
 1650              		.align	2
 1651              	.LC41:
 1652 0000 B2E2CAD4 		.ascii	"\262\342\312\32412:GUI Loading\000"
 1652      31323A47 
 1652      5549204C 
 1652      6F616469 
 1652      6E6700
 1653 0013 00       		.align	2
 1654              	.LC42:
 1655 0014 4C6F6164 		.ascii	"Loading.....\000"
 1655      696E672E 
 1655      2E2E2E2E 
 1655      00
 1656              		.section	.text.POINT_Test,"ax",%progbits
 1657              		.align	1
 1658              		.global	POINT_Test
 1659              		.syntax unified
 1660              		.thumb
 1661              		.thumb_func
 1662              		.fpu fpv4-sp-d16
 1664              	POINT_Test:
 1665              	.LFB144:
 328:Core/Src/test.c **** 
 329:Core/Src/test.c **** /*****************************************************************************
 330:Core/Src/test.c ****  * @name       :void POINT_Test(void)
 331:Core/Src/test.c ****  * @date       :2018-12-29 
 332:Core/Src/test.c ****  * @function   :point test
 333:Core/Src/test.c ****  * @parameters :None
 334:Core/Src/test.c ****  * @retvalue   :None
 335:Core/Src/test.c **** ******************************************************************************/
 336:Core/Src/test.c **** void POINT_Test(void)
 337:Core/Src/test.c **** {
 1666              		.loc 1 337 1 is_stmt 1 view -0
 1667              		.cfi_startproc
 1668              		@ args = 0, pretend = 0, frame = 8
 1669              		@ frame_needed = 0, uses_anonymous_args = 0
 1670 0000 2DE9F04F 		push	{r4, r5, r6, r7, r8, r9, r10, fp, lr}
 1671              	.LCFI31:
 1672              		.cfi_def_cfa_offset 36
 1673              		.cfi_offset 4, -36
ARM GAS  C:\Users\savao\AppData\Local\Temp\ccVfuo0d.s 			page 39


 1674              		.cfi_offset 5, -32
 1675              		.cfi_offset 6, -28
 1676              		.cfi_offset 7, -24
 1677              		.cfi_offset 8, -20
 1678              		.cfi_offset 9, -16
 1679              		.cfi_offset 10, -12
 1680              		.cfi_offset 11, -8
 1681              		.cfi_offset 14, -4
 1682 0004 87B0     		sub	sp, sp, #28
 1683              	.LCFI32:
 1684              		.cfi_def_cfa_offset 64
 338:Core/Src/test.c **** 	uint8_t x=lcddev.width/2,y=lcddev.height/2,r=20,t,m,i;
 1685              		.loc 1 338 2 view .LVU264
 1686              		.loc 1 338 18 is_stmt 0 view .LVU265
 1687 0006 6E4C     		ldr	r4, .L69
 1688 0008 B4F804B0 		ldrh	fp, [r4, #4]
 1689              		.loc 1 338 10 view .LVU266
 1690 000c 4FEA5B0B 		lsr	fp, fp, #1
 1691              	.LVL119:
 1692              		.loc 1 338 35 view .LVU267
 1693 0010 E388     		ldrh	r3, [r4, #6]
 1694              		.loc 1 338 27 view .LVU268
 1695 0012 5B08     		lsrs	r3, r3, #1
 1696 0014 0593     		str	r3, [sp, #20]
 1697              	.LVL120:
 339:Core/Src/test.c **** 
 340:Core/Src/test.c **** 	t = 7*r/10;
 1698              		.loc 1 340 2 is_stmt 1 view .LVU269
 341:Core/Src/test.c **** 	m =100;	//显示速度毫秒值
 1699              		.loc 1 341 2 view .LVU270
 342:Core/Src/test.c **** 	
 343:Core/Src/test.c **** 	DrawTestPage("测试12:GUI Loading");
 1700              		.loc 1 343 2 view .LVU271
 1701 0016 6B48     		ldr	r0, .L69+4
 1702 0018 FFF7FEFF 		bl	DrawTestPage
 1703              	.LVL121:
 344:Core/Src/test.c **** 	LCD_Fill(0,20,lcddev.width-1,lcddev.height-20,BLACK);
 1704              		.loc 1 344 2 view .LVU272
 1705              		.loc 1 344 22 is_stmt 0 view .LVU273
 1706 001c A288     		ldrh	r2, [r4, #4]
 1707              		.loc 1 344 37 view .LVU274
 1708 001e E388     		ldrh	r3, [r4, #6]
 1709              		.loc 1 344 2 view .LVU275
 1710 0020 143B     		subs	r3, r3, #20
 1711 0022 013A     		subs	r2, r2, #1
 1712 0024 0025     		movs	r5, #0
 1713 0026 0095     		str	r5, [sp]
 1714 0028 9BB2     		uxth	r3, r3
 1715 002a 92B2     		uxth	r2, r2
 1716 002c 1421     		movs	r1, #20
 1717 002e 2846     		mov	r0, r5
 1718 0030 FFF7FEFF 		bl	LCD_Fill
 1719              	.LVL122:
 345:Core/Src/test.c **** 	POINT_COLOR = WHITE;
 1720              		.loc 1 345 2 is_stmt 1 view .LVU276
 1721              		.loc 1 345 14 is_stmt 0 view .LVU277
 1722 0034 4FF6FF72 		movw	r2, #65535
ARM GAS  C:\Users\savao\AppData\Local\Temp\ccVfuo0d.s 			page 40


 1723 0038 634B     		ldr	r3, .L69+8
 1724 003a 1A80     		strh	r2, [r3]	@ movhi
 346:Core/Src/test.c **** 	BACK_COLOR = BLACK;
 1725              		.loc 1 346 2 is_stmt 1 view .LVU278
 1726              		.loc 1 346 13 is_stmt 0 view .LVU279
 1727 003c 634B     		ldr	r3, .L69+12
 1728 003e 1D80     		strh	r5, [r3]	@ movhi
 347:Core/Src/test.c **** 	Show_Str((lcddev.width-96)/2, lcddev.height/2+r+10, POINT_COLOR,BACK_COLOR,"Loading.....",16,1);
 1729              		.loc 1 347 2 is_stmt 1 view .LVU280
 1730              		.loc 1 347 18 is_stmt 0 view .LVU281
 1731 0040 A088     		ldrh	r0, [r4, #4]
 1732              		.loc 1 347 24 view .LVU282
 1733 0042 6038     		subs	r0, r0, #96
 1734              		.loc 1 347 28 view .LVU283
 1735 0044 00EBD070 		add	r0, r0, r0, lsr #31
 1736              		.loc 1 347 38 view .LVU284
 1737 0048 E188     		ldrh	r1, [r4, #6]
 1738              		.loc 1 347 47 view .LVU285
 1739 004a 4908     		lsrs	r1, r1, #1
 1740              		.loc 1 347 2 view .LVU286
 1741 004c 0123     		movs	r3, #1
 1742 004e 0293     		str	r3, [sp, #8]
 1743 0050 1023     		movs	r3, #16
 1744 0052 0193     		str	r3, [sp, #4]
 1745 0054 5E4B     		ldr	r3, .L69+16
 1746 0056 0093     		str	r3, [sp]
 1747 0058 2B46     		mov	r3, r5
 1748 005a 1E31     		adds	r1, r1, #30
 1749 005c C0F34F00 		ubfx	r0, r0, #1, #16
 1750 0060 FFF7FEFF 		bl	Show_Str
 1751              	.LVL123:
 348:Core/Src/test.c **** 	for(i=0;i<2;i++)
 1752              		.loc 1 348 2 is_stmt 1 view .LVU287
 1753              		.loc 1 348 2 is_stmt 0 view .LVU288
 1754 0064 A2E0     		b	.L66
 1755              	.LVL124:
 1756              	.L67:
 349:Core/Src/test.c **** 	{
 350:Core/Src/test.c **** 		LCD_Draw9Point(x, y-r, WHITE); //画第一个点
 1757              		.loc 1 350 3 is_stmt 1 discriminator 3 view .LVU289
 1758 0066 5FFA8BF4 		uxtb	r4, fp
 1759 006a 9DF81460 		ldrb	r6, [sp, #20]	@ zero_extendqisi2
 1760 006e A6F11409 		sub	r9, r6, #20
 1761 0072 1FFA89F9 		uxth	r9, r9
 1762 0076 4FF6FF72 		movw	r2, #65535
 1763 007a 4946     		mov	r1, r9
 1764 007c 2046     		mov	r0, r4
 1765 007e FFF7FEFF 		bl	LCD_Draw9Point
 1766              	.LVL125:
 351:Core/Src/test.c **** 		delay_ms(m);
 1767              		.loc 1 351 3 discriminator 3 view .LVU290
 1768 0082 6420     		movs	r0, #100
 1769 0084 FFF7FEFF 		bl	delay_ms
 1770              	.LVL126:
 352:Core/Src/test.c **** 		LCD_Draw9Point(x+t, y-t, WHITE); //画第二个点
 1771              		.loc 1 352 3 discriminator 3 view .LVU291
 1772 0088 04F10E07 		add	r7, r4, #14
ARM GAS  C:\Users\savao\AppData\Local\Temp\ccVfuo0d.s 			page 41


 1773 008c A6F10E08 		sub	r8, r6, #14
 1774 0090 1FFA88F8 		uxth	r8, r8
 1775 0094 4FF6FF72 		movw	r2, #65535
 1776 0098 4146     		mov	r1, r8
 1777 009a 3846     		mov	r0, r7
 1778 009c FFF7FEFF 		bl	LCD_Draw9Point
 1779              	.LVL127:
 353:Core/Src/test.c **** 		delay_ms(m);
 1780              		.loc 1 353 3 discriminator 3 view .LVU292
 1781 00a0 6420     		movs	r0, #100
 1782 00a2 FFF7FEFF 		bl	delay_ms
 1783              	.LVL128:
 354:Core/Src/test.c **** 		LCD_Draw9Point(x, y-r, BLACK); //删除第一个点
 1784              		.loc 1 354 3 discriminator 3 view .LVU293
 1785 00a6 0022     		movs	r2, #0
 1786 00a8 4946     		mov	r1, r9
 1787 00aa 2046     		mov	r0, r4
 1788 00ac FFF7FEFF 		bl	LCD_Draw9Point
 1789              	.LVL129:
 355:Core/Src/test.c **** 		delay_ms(m);
 1790              		.loc 1 355 3 discriminator 3 view .LVU294
 1791 00b0 6420     		movs	r0, #100
 1792 00b2 FFF7FEFF 		bl	delay_ms
 1793              	.LVL130:
 356:Core/Src/test.c **** 		LCD_Draw9Point(x+r, y, WHITE); //画第三个点
 1794              		.loc 1 356 3 discriminator 3 view .LVU295
 1795 00b6 04F1140A 		add	r10, r4, #20
 1796 00ba 4FF6FF72 		movw	r2, #65535
 1797 00be 3146     		mov	r1, r6
 1798 00c0 5046     		mov	r0, r10
 1799 00c2 FFF7FEFF 		bl	LCD_Draw9Point
 1800              	.LVL131:
 357:Core/Src/test.c **** 		delay_ms(m);
 1801              		.loc 1 357 3 discriminator 3 view .LVU296
 1802 00c6 6420     		movs	r0, #100
 1803 00c8 FFF7FEFF 		bl	delay_ms
 1804              	.LVL132:
 358:Core/Src/test.c **** 		LCD_Draw9Point(x+t, y-t, BLACK);  //删除第二个点
 1805              		.loc 1 358 3 discriminator 3 view .LVU297
 1806 00cc 0022     		movs	r2, #0
 1807 00ce 4146     		mov	r1, r8
 1808 00d0 3846     		mov	r0, r7
 1809 00d2 FFF7FEFF 		bl	LCD_Draw9Point
 1810              	.LVL133:
 359:Core/Src/test.c **** 		delay_ms(m);
 1811              		.loc 1 359 3 discriminator 3 view .LVU298
 1812 00d6 6420     		movs	r0, #100
 1813 00d8 FFF7FEFF 		bl	delay_ms
 1814              	.LVL134:
 360:Core/Src/test.c **** 		LCD_Draw9Point(x+t, y+t, WHITE);  //画第四个点
 1815              		.loc 1 360 3 discriminator 3 view .LVU299
 1816 00dc 06F10E09 		add	r9, r6, #14
 1817 00e0 4FF6FF72 		movw	r2, #65535
 1818 00e4 4946     		mov	r1, r9
 1819 00e6 3846     		mov	r0, r7
 1820 00e8 FFF7FEFF 		bl	LCD_Draw9Point
 1821              	.LVL135:
ARM GAS  C:\Users\savao\AppData\Local\Temp\ccVfuo0d.s 			page 42


 361:Core/Src/test.c **** 		delay_ms(m);
 1822              		.loc 1 361 3 discriminator 3 view .LVU300
 1823 00ec 6420     		movs	r0, #100
 1824 00ee FFF7FEFF 		bl	delay_ms
 1825              	.LVL136:
 362:Core/Src/test.c **** 		LCD_Draw9Point(x+r, y, BLACK); //删除第三个点
 1826              		.loc 1 362 3 discriminator 3 view .LVU301
 1827 00f2 0022     		movs	r2, #0
 1828 00f4 3146     		mov	r1, r6
 1829 00f6 5046     		mov	r0, r10
 1830 00f8 FFF7FEFF 		bl	LCD_Draw9Point
 1831              	.LVL137:
 363:Core/Src/test.c **** 		delay_ms(m);
 1832              		.loc 1 363 3 discriminator 3 view .LVU302
 1833 00fc 6420     		movs	r0, #100
 1834 00fe FFF7FEFF 		bl	delay_ms
 1835              	.LVL138:
 364:Core/Src/test.c **** 		LCD_Draw9Point(x, y+r, WHITE);  //画第五个点
 1836              		.loc 1 364 3 discriminator 3 view .LVU303
 1837 0102 06F1140A 		add	r10, r6, #20
 1838 0106 4FF6FF72 		movw	r2, #65535
 1839 010a 5146     		mov	r1, r10
 1840 010c 2046     		mov	r0, r4
 1841 010e FFF7FEFF 		bl	LCD_Draw9Point
 1842              	.LVL139:
 365:Core/Src/test.c **** 		delay_ms(m);
 1843              		.loc 1 365 3 discriminator 3 view .LVU304
 1844 0112 6420     		movs	r0, #100
 1845 0114 FFF7FEFF 		bl	delay_ms
 1846              	.LVL140:
 366:Core/Src/test.c **** 		LCD_Draw9Point(x+t, y+t, BLACK);  //删除第四个点
 1847              		.loc 1 366 3 discriminator 3 view .LVU305
 1848 0118 0022     		movs	r2, #0
 1849 011a 4946     		mov	r1, r9
 1850 011c 3846     		mov	r0, r7
 1851 011e FFF7FEFF 		bl	LCD_Draw9Point
 1852              	.LVL141:
 367:Core/Src/test.c **** 		delay_ms(m);
 1853              		.loc 1 367 3 discriminator 3 view .LVU306
 1854 0122 6420     		movs	r0, #100
 1855 0124 FFF7FEFF 		bl	delay_ms
 1856              	.LVL142:
 368:Core/Src/test.c **** 		LCD_Draw9Point(x-t, y+t, WHITE);  //画第六个点
 1857              		.loc 1 368 3 discriminator 3 view .LVU307
 1858 0128 A4F10E07 		sub	r7, r4, #14
 1859 012c BFB2     		uxth	r7, r7
 1860 012e 4FF6FF72 		movw	r2, #65535
 1861 0132 4946     		mov	r1, r9
 1862 0134 3846     		mov	r0, r7
 1863 0136 FFF7FEFF 		bl	LCD_Draw9Point
 1864              	.LVL143:
 369:Core/Src/test.c **** 		delay_ms(m);
 1865              		.loc 1 369 3 discriminator 3 view .LVU308
 1866 013a 6420     		movs	r0, #100
 1867 013c FFF7FEFF 		bl	delay_ms
 1868              	.LVL144:
 370:Core/Src/test.c **** 		LCD_Draw9Point(x, y+r, BLACK);  //删除第五个点
ARM GAS  C:\Users\savao\AppData\Local\Temp\ccVfuo0d.s 			page 43


 1869              		.loc 1 370 3 discriminator 3 view .LVU309
 1870 0140 0022     		movs	r2, #0
 1871 0142 5146     		mov	r1, r10
 1872 0144 2046     		mov	r0, r4
 1873 0146 FFF7FEFF 		bl	LCD_Draw9Point
 1874              	.LVL145:
 371:Core/Src/test.c **** 		delay_ms(m);
 1875              		.loc 1 371 3 discriminator 3 view .LVU310
 1876 014a 6420     		movs	r0, #100
 1877 014c FFF7FEFF 		bl	delay_ms
 1878              	.LVL146:
 372:Core/Src/test.c **** 		LCD_Draw9Point(x-r, y, WHITE);  //画第七个点
 1879              		.loc 1 372 3 discriminator 3 view .LVU311
 1880 0150 143C     		subs	r4, r4, #20
 1881 0152 A4B2     		uxth	r4, r4
 1882 0154 4FF6FF72 		movw	r2, #65535
 1883 0158 3146     		mov	r1, r6
 1884 015a 2046     		mov	r0, r4
 1885 015c FFF7FEFF 		bl	LCD_Draw9Point
 1886              	.LVL147:
 373:Core/Src/test.c **** 		delay_ms(m);
 1887              		.loc 1 373 3 discriminator 3 view .LVU312
 1888 0160 6420     		movs	r0, #100
 1889 0162 FFF7FEFF 		bl	delay_ms
 1890              	.LVL148:
 374:Core/Src/test.c **** 		LCD_Draw9Point(x-t, y+t, BLACK);  //删除第六个点
 1891              		.loc 1 374 3 discriminator 3 view .LVU313
 1892 0166 0022     		movs	r2, #0
 1893 0168 4946     		mov	r1, r9
 1894 016a 3846     		mov	r0, r7
 1895 016c FFF7FEFF 		bl	LCD_Draw9Point
 1896              	.LVL149:
 375:Core/Src/test.c **** 		delay_ms(m);
 1897              		.loc 1 375 3 discriminator 3 view .LVU314
 1898 0170 6420     		movs	r0, #100
 1899 0172 FFF7FEFF 		bl	delay_ms
 1900              	.LVL150:
 376:Core/Src/test.c **** 		LCD_Draw9Point(x-t, y-t, WHITE);  //画第八个点
 1901              		.loc 1 376 3 discriminator 3 view .LVU315
 1902 0176 4FF6FF72 		movw	r2, #65535
 1903 017a 4146     		mov	r1, r8
 1904 017c 3846     		mov	r0, r7
 1905 017e FFF7FEFF 		bl	LCD_Draw9Point
 1906              	.LVL151:
 377:Core/Src/test.c **** 		delay_ms(m);
 1907              		.loc 1 377 3 discriminator 3 view .LVU316
 1908 0182 6420     		movs	r0, #100
 1909 0184 FFF7FEFF 		bl	delay_ms
 1910              	.LVL152:
 378:Core/Src/test.c **** 		LCD_Draw9Point(x-r, y, BLACK);  //删除第七个点
 1911              		.loc 1 378 3 discriminator 3 view .LVU317
 1912 0188 0022     		movs	r2, #0
 1913 018a 3146     		mov	r1, r6
 1914 018c 2046     		mov	r0, r4
 1915 018e FFF7FEFF 		bl	LCD_Draw9Point
 1916              	.LVL153:
 379:Core/Src/test.c **** 		delay_ms(m);
ARM GAS  C:\Users\savao\AppData\Local\Temp\ccVfuo0d.s 			page 44


 1917              		.loc 1 379 3 discriminator 3 view .LVU318
 1918 0192 6420     		movs	r0, #100
 1919 0194 FFF7FEFF 		bl	delay_ms
 1920              	.LVL154:
 380:Core/Src/test.c **** 		LCD_Draw9Point(x-t, y-t, BLACK);  //删除第八个点
 1921              		.loc 1 380 3 discriminator 3 view .LVU319
 1922 0198 0022     		movs	r2, #0
 1923 019a 4146     		mov	r1, r8
 1924 019c 3846     		mov	r0, r7
 1925 019e FFF7FEFF 		bl	LCD_Draw9Point
 1926              	.LVL155:
 381:Core/Src/test.c **** 		delay_ms(m);
 1927              		.loc 1 381 3 discriminator 3 view .LVU320
 1928 01a2 6420     		movs	r0, #100
 1929 01a4 FFF7FEFF 		bl	delay_ms
 1930              	.LVL156:
 348:Core/Src/test.c **** 	{
 1931              		.loc 1 348 14 discriminator 3 view .LVU321
 348:Core/Src/test.c **** 	{
 1932              		.loc 1 348 15 is_stmt 0 discriminator 3 view .LVU322
 1933 01a8 0135     		adds	r5, r5, #1
 1934              	.LVL157:
 348:Core/Src/test.c **** 	{
 1935              		.loc 1 348 15 discriminator 3 view .LVU323
 1936 01aa EDB2     		uxtb	r5, r5
 1937              	.LVL158:
 1938              	.L66:
 348:Core/Src/test.c **** 	{
 1939              		.loc 1 348 10 is_stmt 1 discriminator 1 view .LVU324
 348:Core/Src/test.c **** 	{
 1940              		.loc 1 348 2 is_stmt 0 discriminator 1 view .LVU325
 1941 01ac 012D     		cmp	r5, #1
 1942 01ae 7FF65AAF 		bls	.L67
 382:Core/Src/test.c **** 	}
 383:Core/Src/test.c **** 	delay_ms(1500);
 1943              		.loc 1 383 2 is_stmt 1 view .LVU326
 1944 01b2 40F2DC50 		movw	r0, #1500
 1945 01b6 FFF7FEFF 		bl	delay_ms
 1946              	.LVL159:
 384:Core/Src/test.c **** }
 1947              		.loc 1 384 1 is_stmt 0 view .LVU327
 1948 01ba 07B0     		add	sp, sp, #28
 1949              	.LCFI33:
 1950              		.cfi_def_cfa_offset 36
 1951              		@ sp needed
 1952 01bc BDE8F08F 		pop	{r4, r5, r6, r7, r8, r9, r10, fp, pc}
 1953              	.LVL160:
 1954              	.L70:
 1955              		.loc 1 384 1 view .LVU328
 1956              		.align	2
 1957              	.L69:
 1958 01c0 00000000 		.word	lcddev
 1959 01c4 00000000 		.word	.LC41
 1960 01c8 00000000 		.word	POINT_COLOR
 1961 01cc 00000000 		.word	BACK_COLOR
 1962 01d0 14000000 		.word	.LC42
 1963              		.cfi_endproc
ARM GAS  C:\Users\savao\AppData\Local\Temp\ccVfuo0d.s 			page 45


 1964              	.LFE144:
 1966              		.section	.rodata.Combo_Test.str1.4,"aMS",%progbits,1
 1967              		.align	2
 1968              	.LC43:
 1969 0000 B2E2CAD4 		.ascii	"\262\342\312\32413:GUI Combo\000"
 1969      31333A47 
 1969      55492043 
 1969      6F6D626F 
 1969      00
 1970 0011 000000   		.align	2
 1971              	.LC44:
 1972 0014 53544D20 		.ascii	"STM ICP Bridge\000"
 1972      49435020 
 1972      42726964 
 1972      676500
 1973 0023 00       		.align	2
 1974              	.LC45:
 1975 0024 53544D20 		.ascii	"STM PP Bridge\000"
 1975      50502042 
 1975      72696467 
 1975      6500
 1976 0032 0000     		.align	2
 1977              	.LC46:
 1978 0034 4E6F6E65 		.ascii	"None ISP\000"
 1978      20495350 
 1978      00
 1979              		.section	.text.Combo_Test,"ax",%progbits
 1980              		.align	1
 1981              		.global	Combo_Test
 1982              		.syntax unified
 1983              		.thumb
 1984              		.thumb_func
 1985              		.fpu fpv4-sp-d16
 1987              	Combo_Test:
 1988              	.LFB145:
 385:Core/Src/test.c **** 
 386:Core/Src/test.c **** /*****************************************************************************
 387:Core/Src/test.c ****  * @name       :void Combo_Test(void)
 388:Core/Src/test.c ****  * @date       :2018-12-29 
 389:Core/Src/test.c ****  * @function   :combo test
 390:Core/Src/test.c ****  * @parameters :None
 391:Core/Src/test.c ****  * @retvalue   :None
 392:Core/Src/test.c **** ******************************************************************************/
 393:Core/Src/test.c **** void Combo_Test(void)
 394:Core/Src/test.c **** {
 1989              		.loc 1 394 1 is_stmt 1 view -0
 1990              		.cfi_startproc
 1991              		@ args = 0, pretend = 0, frame = 0
 1992              		@ frame_needed = 0, uses_anonymous_args = 0
 1993 0000 2DE9F04F 		push	{r4, r5, r6, r7, r8, r9, r10, fp, lr}
 1994              	.LCFI34:
 1995              		.cfi_def_cfa_offset 36
 1996              		.cfi_offset 4, -36
 1997              		.cfi_offset 5, -32
 1998              		.cfi_offset 6, -28
 1999              		.cfi_offset 7, -24
 2000              		.cfi_offset 8, -20
ARM GAS  C:\Users\savao\AppData\Local\Temp\ccVfuo0d.s 			page 46


 2001              		.cfi_offset 9, -16
 2002              		.cfi_offset 10, -12
 2003              		.cfi_offset 11, -8
 2004              		.cfi_offset 14, -4
 2005 0004 85B0     		sub	sp, sp, #20
 2006              	.LCFI35:
 2007              		.cfi_def_cfa_offset 56
 395:Core/Src/test.c **** 	DrawTestPage("测试13:GUI Combo");
 2008              		.loc 1 395 2 view .LVU330
 2009 0006 9C48     		ldr	r0, .L73
 2010 0008 FFF7FEFF 		bl	DrawTestPage
 2011              	.LVL161:
 396:Core/Src/test.c **** 	LCD_Fill(0,20,lcddev.width-1,lcddev.height-20,GRAY);
 2012              		.loc 1 396 2 view .LVU331
 2013              		.loc 1 396 22 is_stmt 0 view .LVU332
 2014 000c 9B4B     		ldr	r3, .L73+4
 2015 000e 9A88     		ldrh	r2, [r3, #4]
 2016              		.loc 1 396 37 view .LVU333
 2017 0010 DB88     		ldrh	r3, [r3, #6]
 2018              		.loc 1 396 2 view .LVU334
 2019 0012 143B     		subs	r3, r3, #20
 2020 0014 013A     		subs	r2, r2, #1
 2021 0016 48F23041 		movw	r1, #33840
 2022 001a 0091     		str	r1, [sp]
 2023 001c 9BB2     		uxth	r3, r3
 2024 001e 92B2     		uxth	r2, r2
 2025 0020 1421     		movs	r1, #20
 2026 0022 0020     		movs	r0, #0
 2027 0024 FFF7FEFF 		bl	LCD_Fill
 2028              	.LVL162:
 397:Core/Src/test.c **** 	//画一个条形输入框
 398:Core/Src/test.c **** 	Draw_TextBox(50, 50, 200, 73);
 2029              		.loc 1 398 2 is_stmt 1 view .LVU335
 2030 0028 4923     		movs	r3, #73
 2031 002a C822     		movs	r2, #200
 2032 002c 3221     		movs	r1, #50
 2033 002e 0846     		mov	r0, r1
 2034 0030 FFF7FEFF 		bl	Draw_TextBox
 2035              	.LVL163:
 399:Core/Src/test.c **** 	//画下拉列表按钮(19*19)像素
 400:Core/Src/test.c **** 	Draw_Button(179, 52, 198, 71);
 2036              		.loc 1 400 2 view .LVU336
 2037 0034 4723     		movs	r3, #71
 2038 0036 C622     		movs	r2, #198
 2039 0038 3421     		movs	r1, #52
 2040 003a B320     		movs	r0, #179
 2041 003c FFF7FEFF 		bl	Draw_Button
 2042              	.LVL164:
 401:Core/Src/test.c **** 	Draw_DirectButton(179,52);
 2043              		.loc 1 401 2 view .LVU337
 2044 0040 3421     		movs	r1, #52
 2045 0042 B320     		movs	r0, #179
 2046 0044 FFF7FEFF 		bl	Draw_DirectButton
 2047              	.LVL165:
 402:Core/Src/test.c **** 	delay_ms(500);
 2048              		.loc 1 402 2 view .LVU338
 2049 0048 4FF4FA70 		mov	r0, #500
ARM GAS  C:\Users\savao\AppData\Local\Temp\ccVfuo0d.s 			page 47


 2050 004c FFF7FEFF 		bl	delay_ms
 2051              	.LVL166:
 403:Core/Src/test.c **** 	delay_ms(500);
 2052              		.loc 1 403 2 view .LVU339
 2053 0050 4FF4FA70 		mov	r0, #500
 2054 0054 FFF7FEFF 		bl	delay_ms
 2055              	.LVL167:
 404:Core/Src/test.c **** 	delay_ms(500);
 2056              		.loc 1 404 2 view .LVU340
 2057 0058 4FF4FA70 		mov	r0, #500
 2058 005c FFF7FEFF 		bl	delay_ms
 2059              	.LVL168:
 405:Core/Src/test.c **** 	SetButton(179, 52, 198, 71);
 2060              		.loc 1 405 2 view .LVU341
 2061 0060 4723     		movs	r3, #71
 2062 0062 C622     		movs	r2, #198
 2063 0064 3421     		movs	r1, #52
 2064 0066 B320     		movs	r0, #179
 2065 0068 FFF7FEFF 		bl	SetButton
 2066              	.LVL169:
 406:Core/Src/test.c **** 	LCD_Fill(183, 56, 194, 67, LGRAY);
 2067              		.loc 1 406 2 view .LVU342
 2068 006c 4CF21864 		movw	r4, #50712
 2069 0070 0094     		str	r4, [sp]
 2070 0072 4323     		movs	r3, #67
 2071 0074 C222     		movs	r2, #194
 2072 0076 3821     		movs	r1, #56
 2073 0078 B720     		movs	r0, #183
 2074 007a FFF7FEFF 		bl	LCD_Fill
 2075              	.LVL170:
 407:Core/Src/test.c ****    	Draw_DirectButton(180,53);
 2076              		.loc 1 407 5 view .LVU343
 2077 007e 3521     		movs	r1, #53
 2078 0080 B420     		movs	r0, #180
 2079 0082 FFF7FEFF 		bl	Draw_DirectButton
 2080              	.LVL171:
 408:Core/Src/test.c **** 	delay_ms(500);
 2081              		.loc 1 408 2 view .LVU344
 2082 0086 4FF4FA70 		mov	r0, #500
 2083 008a FFF7FEFF 		bl	delay_ms
 2084              	.LVL172:
 409:Core/Src/test.c **** 	delay_ms(500);
 2085              		.loc 1 409 2 view .LVU345
 2086 008e 4FF4FA70 		mov	r0, #500
 2087 0092 FFF7FEFF 		bl	delay_ms
 2088              	.LVL173:
 410:Core/Src/test.c **** 	delay_ms(500);
 2089              		.loc 1 410 2 view .LVU346
 2090 0096 4FF4FA70 		mov	r0, #500
 2091 009a FFF7FEFF 		bl	delay_ms
 2092              	.LVL174:
 411:Core/Src/test.c **** 	EscButton(179, 52, 198, 71);
 2093              		.loc 1 411 2 view .LVU347
 2094 009e 4723     		movs	r3, #71
 2095 00a0 C622     		movs	r2, #198
 2096 00a2 3421     		movs	r1, #52
 2097 00a4 B320     		movs	r0, #179
ARM GAS  C:\Users\savao\AppData\Local\Temp\ccVfuo0d.s 			page 48


 2098 00a6 FFF7FEFF 		bl	EscButton
 2099              	.LVL175:
 412:Core/Src/test.c **** 	LCD_Fill(183, 56, 194, 67, LGRAY);
 2100              		.loc 1 412 2 view .LVU348
 2101 00aa 0094     		str	r4, [sp]
 2102 00ac 4323     		movs	r3, #67
 2103 00ae C222     		movs	r2, #194
 2104 00b0 3821     		movs	r1, #56
 2105 00b2 B720     		movs	r0, #183
 2106 00b4 FFF7FEFF 		bl	LCD_Fill
 2107              	.LVL176:
 413:Core/Src/test.c **** 	Draw_DirectButton(179,52);
 2108              		.loc 1 413 2 view .LVU349
 2109 00b8 3421     		movs	r1, #52
 2110 00ba B320     		movs	r0, #179
 2111 00bc FFF7FEFF 		bl	Draw_DirectButton
 2112              	.LVL177:
 414:Core/Src/test.c **** 	//拉出下拉列表
 415:Core/Src/test.c **** 	POINT_COLOR=BLACK;
 2113              		.loc 1 415 2 view .LVU350
 2114              		.loc 1 415 13 is_stmt 0 view .LVU351
 2115 00c0 6F4E     		ldr	r6, .L73+8
 2116 00c2 4FF0000A 		mov	r10, #0
 2117 00c6 A6F800A0 		strh	r10, [r6]	@ movhi
 416:Core/Src/test.c **** 	LCD_DrawRectangle(50, 74, 200, 143);
 2118              		.loc 1 416 2 is_stmt 1 view .LVU352
 2119 00ca 8F23     		movs	r3, #143
 2120 00cc C822     		movs	r2, #200
 2121 00ce 4A21     		movs	r1, #74
 2122 00d0 3220     		movs	r0, #50
 2123 00d2 FFF7FEFF 		bl	LCD_DrawRectangle
 2124              	.LVL178:
 417:Core/Src/test.c **** 	LCD_Fill(51, 75, 199, 142, WHITE);
 2125              		.loc 1 417 2 view .LVU353
 2126 00d6 4FF6FF74 		movw	r4, #65535
 2127 00da 0094     		str	r4, [sp]
 2128 00dc 8E23     		movs	r3, #142
 2129 00de C722     		movs	r2, #199
 2130 00e0 4B21     		movs	r1, #75
 2131 00e2 3320     		movs	r0, #51
 2132 00e4 FFF7FEFF 		bl	LCD_Fill
 2133              	.LVL179:
 418:Core/Src/test.c **** 	//写列表中的内容
 419:Core/Src/test.c **** 	LCD_Fill(51, 75, 199, 97, DARKBLUE); //第一个默认为选中状态
 2134              		.loc 1 419 2 view .LVU354
 2135 00e8 40F2CF15 		movw	r5, #463
 2136 00ec 0095     		str	r5, [sp]
 2137 00ee 6123     		movs	r3, #97
 2138 00f0 C722     		movs	r2, #199
 2139 00f2 4B21     		movs	r1, #75
 2140 00f4 3320     		movs	r0, #51
 2141 00f6 FFF7FEFF 		bl	LCD_Fill
 2142              	.LVL180:
 420:Core/Src/test.c **** 	POINT_COLOR=WHITE;
 2143              		.loc 1 420 2 view .LVU355
 2144              		.loc 1 420 13 is_stmt 0 view .LVU356
 2145 00fa 3480     		strh	r4, [r6]	@ movhi
ARM GAS  C:\Users\savao\AppData\Local\Temp\ccVfuo0d.s 			page 49


 421:Core/Src/test.c **** 	BACK_COLOR=DARKBLUE;
 2146              		.loc 1 421 2 is_stmt 1 view .LVU357
 2147              		.loc 1 421 12 is_stmt 0 view .LVU358
 2148 00fc DFF88C91 		ldr	r9, .L73+20
 2149 0100 A9F80050 		strh	r5, [r9]	@ movhi
 422:Core/Src/test.c **** 	Show_Str(53, 79, POINT_COLOR,BACK_COLOR,"STM ICP Bridge",16,1);
 2150              		.loc 1 422 2 is_stmt 1 view .LVU359
 2151 0104 4FF00108 		mov	r8, #1
 2152 0108 CDF80880 		str	r8, [sp, #8]
 2153 010c 1027     		movs	r7, #16
 2154 010e 0197     		str	r7, [sp, #4]
 2155 0110 5C4B     		ldr	r3, .L73+12
 2156 0112 0093     		str	r3, [sp]
 2157 0114 2B46     		mov	r3, r5
 2158 0116 2246     		mov	r2, r4
 2159 0118 4F21     		movs	r1, #79
 2160 011a 3520     		movs	r0, #53
 2161 011c FFF7FEFF 		bl	Show_Str
 2162              	.LVL181:
 423:Core/Src/test.c **** 
 424:Core/Src/test.c **** 	POINT_COLOR=BLACK;
 2163              		.loc 1 424 2 view .LVU360
 2164              		.loc 1 424 13 is_stmt 0 view .LVU361
 2165 0120 A6F800A0 		strh	r10, [r6]	@ movhi
 425:Core/Src/test.c **** 	BACK_COLOR=WHITE;
 2166              		.loc 1 425 2 is_stmt 1 view .LVU362
 2167              		.loc 1 425 12 is_stmt 0 view .LVU363
 2168 0124 A9F80040 		strh	r4, [r9]	@ movhi
 426:Core/Src/test.c **** 	Show_Str(53, 101, POINT_COLOR,BACK_COLOR,"STM PP Bridge",16,1);
 2169              		.loc 1 426 2 is_stmt 1 view .LVU364
 2170 0128 CDF80880 		str	r8, [sp, #8]
 2171 012c 0197     		str	r7, [sp, #4]
 2172 012e DFF860B1 		ldr	fp, .L73+24
 2173 0132 CDF800B0 		str	fp, [sp]
 2174 0136 2346     		mov	r3, r4
 2175 0138 5246     		mov	r2, r10
 2176 013a 6521     		movs	r1, #101
 2177 013c 3520     		movs	r0, #53
 2178 013e FFF7FEFF 		bl	Show_Str
 2179              	.LVL182:
 427:Core/Src/test.c **** 	Show_Str(53, 124, POINT_COLOR,BACK_COLOR,"None ISP",16,1);
 2180              		.loc 1 427 2 view .LVU365
 2181 0142 CDF80880 		str	r8, [sp, #8]
 2182 0146 0197     		str	r7, [sp, #4]
 2183 0148 4F4A     		ldr	r2, .L73+16
 2184 014a 0092     		str	r2, [sp]
 2185 014c B9F80030 		ldrh	r3, [r9]
 2186 0150 3288     		ldrh	r2, [r6]
 2187 0152 7C21     		movs	r1, #124
 2188 0154 3520     		movs	r0, #53
 2189 0156 FFF7FEFF 		bl	Show_Str
 2190              	.LVL183:
 428:Core/Src/test.c **** 	delay_ms(500);
 2191              		.loc 1 428 2 view .LVU366
 2192 015a 4FF4FA70 		mov	r0, #500
 2193 015e FFF7FEFF 		bl	delay_ms
 2194              	.LVL184:
ARM GAS  C:\Users\savao\AppData\Local\Temp\ccVfuo0d.s 			page 50


 429:Core/Src/test.c **** 	delay_ms(500);
 2195              		.loc 1 429 2 view .LVU367
 2196 0162 4FF4FA70 		mov	r0, #500
 2197 0166 FFF7FEFF 		bl	delay_ms
 2198              	.LVL185:
 430:Core/Src/test.c **** 	delay_ms(500);
 2199              		.loc 1 430 2 view .LVU368
 2200 016a 4FF4FA70 		mov	r0, #500
 2201 016e FFF7FEFF 		bl	delay_ms
 2202              	.LVL186:
 431:Core/Src/test.c **** 	//选中第二个
 432:Core/Src/test.c **** 	LCD_Fill(51, 75, 199, 97, WHITE);	   //先取消第一个
 2203              		.loc 1 432 2 view .LVU369
 2204 0172 0094     		str	r4, [sp]
 2205 0174 6123     		movs	r3, #97
 2206 0176 C722     		movs	r2, #199
 2207 0178 4B21     		movs	r1, #75
 2208 017a 3320     		movs	r0, #51
 2209 017c FFF7FEFF 		bl	LCD_Fill
 2210              	.LVL187:
 433:Core/Src/test.c **** 	POINT_COLOR=BLACK;
 2211              		.loc 1 433 2 view .LVU370
 2212              		.loc 1 433 13 is_stmt 0 view .LVU371
 2213 0180 A6F800A0 		strh	r10, [r6]	@ movhi
 434:Core/Src/test.c **** 	BACK_COLOR=WHITE;
 2214              		.loc 1 434 2 is_stmt 1 view .LVU372
 2215              		.loc 1 434 12 is_stmt 0 view .LVU373
 2216 0184 A9F80040 		strh	r4, [r9]	@ movhi
 435:Core/Src/test.c **** 	Show_Str(53, 79, POINT_COLOR,BACK_COLOR,"STM ICP Bridge",16,1);
 2217              		.loc 1 435 2 is_stmt 1 view .LVU374
 2218 0188 CDF80880 		str	r8, [sp, #8]
 2219 018c 0197     		str	r7, [sp, #4]
 2220 018e 3D4B     		ldr	r3, .L73+12
 2221 0190 0093     		str	r3, [sp]
 2222 0192 2346     		mov	r3, r4
 2223 0194 5246     		mov	r2, r10
 2224 0196 4F21     		movs	r1, #79
 2225 0198 3520     		movs	r0, #53
 2226 019a FFF7FEFF 		bl	Show_Str
 2227              	.LVL188:
 436:Core/Src/test.c **** 
 437:Core/Src/test.c **** 	LCD_Fill(51, 98, 199, 120, DARKBLUE);  //选中第二个
 2228              		.loc 1 437 2 view .LVU375
 2229 019e 0095     		str	r5, [sp]
 2230 01a0 7823     		movs	r3, #120
 2231 01a2 C722     		movs	r2, #199
 2232 01a4 6221     		movs	r1, #98
 2233 01a6 3320     		movs	r0, #51
 2234 01a8 FFF7FEFF 		bl	LCD_Fill
 2235              	.LVL189:
 438:Core/Src/test.c **** 	POINT_COLOR=WHITE;
 2236              		.loc 1 438 2 view .LVU376
 2237              		.loc 1 438 13 is_stmt 0 view .LVU377
 2238 01ac 3480     		strh	r4, [r6]	@ movhi
 439:Core/Src/test.c **** 	BACK_COLOR=DARKBLUE;
 2239              		.loc 1 439 2 is_stmt 1 view .LVU378
 2240              		.loc 1 439 12 is_stmt 0 view .LVU379
ARM GAS  C:\Users\savao\AppData\Local\Temp\ccVfuo0d.s 			page 51


 2241 01ae A9F80050 		strh	r5, [r9]	@ movhi
 440:Core/Src/test.c **** 	Show_Str(53, 101, POINT_COLOR,BACK_COLOR,"STM PP Bridge",16,1);
 2242              		.loc 1 440 2 is_stmt 1 view .LVU380
 2243 01b2 CDF80880 		str	r8, [sp, #8]
 2244 01b6 0197     		str	r7, [sp, #4]
 2245 01b8 CDF800B0 		str	fp, [sp]
 2246 01bc 2B46     		mov	r3, r5
 2247 01be 2246     		mov	r2, r4
 2248 01c0 6521     		movs	r1, #101
 2249 01c2 3520     		movs	r0, #53
 2250 01c4 FFF7FEFF 		bl	Show_Str
 2251              	.LVL190:
 441:Core/Src/test.c **** 	delay_ms(500);
 2252              		.loc 1 441 2 view .LVU381
 2253 01c8 4FF4FA70 		mov	r0, #500
 2254 01cc FFF7FEFF 		bl	delay_ms
 2255              	.LVL191:
 442:Core/Src/test.c **** 	delay_ms(500);
 2256              		.loc 1 442 2 view .LVU382
 2257 01d0 4FF4FA70 		mov	r0, #500
 2258 01d4 FFF7FEFF 		bl	delay_ms
 2259              	.LVL192:
 443:Core/Src/test.c **** 	delay_ms(500);
 2260              		.loc 1 443 2 view .LVU383
 2261 01d8 4FF4FA70 		mov	r0, #500
 2262 01dc FFF7FEFF 		bl	delay_ms
 2263              	.LVL193:
 444:Core/Src/test.c **** 	//选中第三个
 445:Core/Src/test.c **** 	LCD_Fill(51, 98, 199, 120, WHITE);//先取消选中的第二个
 2264              		.loc 1 445 2 view .LVU384
 2265 01e0 0094     		str	r4, [sp]
 2266 01e2 7823     		movs	r3, #120
 2267 01e4 C722     		movs	r2, #199
 2268 01e6 6221     		movs	r1, #98
 2269 01e8 3320     		movs	r0, #51
 2270 01ea FFF7FEFF 		bl	LCD_Fill
 2271              	.LVL194:
 446:Core/Src/test.c **** 	POINT_COLOR=BLACK;
 2272              		.loc 1 446 2 view .LVU385
 2273              		.loc 1 446 13 is_stmt 0 view .LVU386
 2274 01ee A6F800A0 		strh	r10, [r6]	@ movhi
 447:Core/Src/test.c **** 	BACK_COLOR=WHITE;
 2275              		.loc 1 447 2 is_stmt 1 view .LVU387
 2276              		.loc 1 447 12 is_stmt 0 view .LVU388
 2277 01f2 A9F80040 		strh	r4, [r9]	@ movhi
 448:Core/Src/test.c **** 	Show_Str(53, 101, POINT_COLOR,BACK_COLOR,"STM PP Bridge",16,1);
 2278              		.loc 1 448 2 is_stmt 1 view .LVU389
 2279 01f6 CDF80880 		str	r8, [sp, #8]
 2280 01fa 0197     		str	r7, [sp, #4]
 2281 01fc CDF800B0 		str	fp, [sp]
 2282 0200 2346     		mov	r3, r4
 2283 0202 5246     		mov	r2, r10
 2284 0204 6521     		movs	r1, #101
 2285 0206 3520     		movs	r0, #53
 2286 0208 FFF7FEFF 		bl	Show_Str
 2287              	.LVL195:
 449:Core/Src/test.c **** 
ARM GAS  C:\Users\savao\AppData\Local\Temp\ccVfuo0d.s 			page 52


 450:Core/Src/test.c **** 	LCD_Fill(51, 121, 199, 142, DARKBLUE);//选中第三个
 2288              		.loc 1 450 2 view .LVU390
 2289 020c 0095     		str	r5, [sp]
 2290 020e 8E23     		movs	r3, #142
 2291 0210 C722     		movs	r2, #199
 2292 0212 7921     		movs	r1, #121
 2293 0214 3320     		movs	r0, #51
 2294 0216 FFF7FEFF 		bl	LCD_Fill
 2295              	.LVL196:
 451:Core/Src/test.c **** 	POINT_COLOR=WHITE;
 2296              		.loc 1 451 2 view .LVU391
 2297              		.loc 1 451 13 is_stmt 0 view .LVU392
 2298 021a 3480     		strh	r4, [r6]	@ movhi
 452:Core/Src/test.c **** 	BACK_COLOR=DARKBLUE;
 2299              		.loc 1 452 2 is_stmt 1 view .LVU393
 2300              		.loc 1 452 12 is_stmt 0 view .LVU394
 2301 021c A9F80050 		strh	r5, [r9]	@ movhi
 453:Core/Src/test.c **** 	Show_Str(53, 124, POINT_COLOR,BACK_COLOR,"None ISP",16,1);
 2302              		.loc 1 453 2 is_stmt 1 view .LVU395
 2303 0220 CDF80880 		str	r8, [sp, #8]
 2304 0224 0197     		str	r7, [sp, #4]
 2305 0226 184A     		ldr	r2, .L73+16
 2306 0228 0092     		str	r2, [sp]
 2307 022a 2B46     		mov	r3, r5
 2308 022c 2246     		mov	r2, r4
 2309 022e 7C21     		movs	r1, #124
 2310 0230 3520     		movs	r0, #53
 2311 0232 FFF7FEFF 		bl	Show_Str
 2312              	.LVL197:
 454:Core/Src/test.c **** 	delay_ms(500);
 2313              		.loc 1 454 2 view .LVU396
 2314 0236 4FF4FA70 		mov	r0, #500
 2315 023a FFF7FEFF 		bl	delay_ms
 2316              	.LVL198:
 455:Core/Src/test.c **** 	delay_ms(500);
 2317              		.loc 1 455 2 view .LVU397
 2318 023e 4FF4FA70 		mov	r0, #500
 2319 0242 FFF7FEFF 		bl	delay_ms
 2320              	.LVL199:
 456:Core/Src/test.c **** 	delay_ms(500);
 2321              		.loc 1 456 2 view .LVU398
 2322 0246 4FF4FA70 		mov	r0, #500
 2323 024a FFF7FEFF 		bl	delay_ms
 2324              	.LVL200:
 457:Core/Src/test.c **** 	delay_ms(500);
 2325              		.loc 1 457 2 view .LVU399
 2326 024e 4FF4FA70 		mov	r0, #500
 2327 0252 FFF7FEFF 		bl	delay_ms
 2328              	.LVL201:
 458:Core/Src/test.c **** 	//清除
 459:Core/Src/test.c **** 	LCD_Fill(50, 74, 200, 143, GRAY);
 2329              		.loc 1 459 2 view .LVU400
 2330 0256 48F23043 		movw	r3, #33840
 2331 025a 0093     		str	r3, [sp]
 2332 025c 8F23     		movs	r3, #143
 2333 025e C822     		movs	r2, #200
 2334 0260 4A21     		movs	r1, #74
ARM GAS  C:\Users\savao\AppData\Local\Temp\ccVfuo0d.s 			page 53


 2335 0262 3220     		movs	r0, #50
 2336 0264 FFF7FEFF 		bl	LCD_Fill
 2337              	.LVL202:
 460:Core/Src/test.c **** 	delay_ms(1500);
 2338              		.loc 1 460 2 view .LVU401
 2339 0268 40F2DC50 		movw	r0, #1500
 2340 026c FFF7FEFF 		bl	delay_ms
 2341              	.LVL203:
 461:Core/Src/test.c **** }
 2342              		.loc 1 461 1 is_stmt 0 view .LVU402
 2343 0270 05B0     		add	sp, sp, #20
 2344              	.LCFI36:
 2345              		.cfi_def_cfa_offset 36
 2346              		@ sp needed
 2347 0272 BDE8F08F 		pop	{r4, r5, r6, r7, r8, r9, r10, fp, pc}
 2348              	.L74:
 2349 0276 00BF     		.align	2
 2350              	.L73:
 2351 0278 00000000 		.word	.LC43
 2352 027c 00000000 		.word	lcddev
 2353 0280 00000000 		.word	POINT_COLOR
 2354 0284 14000000 		.word	.LC44
 2355 0288 34000000 		.word	.LC46
 2356 028c 00000000 		.word	BACK_COLOR
 2357 0290 24000000 		.word	.LC45
 2358              		.cfi_endproc
 2359              	.LFE145:
 2361              		.section	.rodata.ProgresBar_Test.str1.4,"aMS",%progbits,1
 2362              		.align	2
 2363              	.LC47:
 2364 0000 B2E2CAD4 		.ascii	"\262\342\312\32414:GUI ProgresBar\000"
 2364      31343A47 
 2364      55492050 
 2364      726F6772 
 2364      65734261 
 2365 0016 0000     		.align	2
 2366              	.LC48:
 2367 0018 50726F67 		.ascii	"ProgresBar\000"
 2367      72657342 
 2367      617200
 2368 0023 00       		.align	2
 2369              	.LC49:
 2370 0024 43616E63 		.ascii	"Cancel\000"
 2370      656C00
 2371 002b 00       		.align	2
 2372              	.LC50:
 2373 002c 2500     		.ascii	"%\000"
 2374 002e 0000     		.align	2
 2375              	.LC51:
 2376 0030 53756363 		.ascii	"Success!!!\000"
 2376      65737321 
 2376      212100
 2377              		.section	.text.ProgresBar_Test,"ax",%progbits
 2378              		.align	1
 2379              		.global	ProgresBar_Test
 2380              		.syntax unified
 2381              		.thumb
ARM GAS  C:\Users\savao\AppData\Local\Temp\ccVfuo0d.s 			page 54


 2382              		.thumb_func
 2383              		.fpu fpv4-sp-d16
 2385              	ProgresBar_Test:
 2386              	.LFB146:
 462:Core/Src/test.c **** 
 463:Core/Src/test.c **** /*****************************************************************************
 464:Core/Src/test.c ****  * @name       :void ProgresBar_Test(void)
 465:Core/Src/test.c ****  * @date       :2018-12-29 
 466:Core/Src/test.c ****  * @function   :ProgresBar test
 467:Core/Src/test.c ****  * @parameters :None
 468:Core/Src/test.c ****  * @retvalue   :None
 469:Core/Src/test.c **** ******************************************************************************/
 470:Core/Src/test.c **** void ProgresBar_Test(void)
 471:Core/Src/test.c **** {
 2387              		.loc 1 471 1 is_stmt 1 view -0
 2388              		.cfi_startproc
 2389              		@ args = 0, pretend = 0, frame = 0
 2390              		@ frame_needed = 0, uses_anonymous_args = 0
 2391 0000 F0B5     		push	{r4, r5, r6, r7, lr}
 2392              	.LCFI37:
 2393              		.cfi_def_cfa_offset 20
 2394              		.cfi_offset 4, -20
 2395              		.cfi_offset 5, -16
 2396              		.cfi_offset 6, -12
 2397              		.cfi_offset 7, -8
 2398              		.cfi_offset 14, -4
 2399 0002 85B0     		sub	sp, sp, #20
 2400              	.LCFI38:
 2401              		.cfi_def_cfa_offset 40
 472:Core/Src/test.c **** 	uint8_t i,num=1;
 2402              		.loc 1 472 2 view .LVU404
 2403              	.LVL204:
 473:Core/Src/test.c **** 	u16 x1=20;
 2404              		.loc 1 473 2 view .LVU405
 474:Core/Src/test.c **** 	u16 y1=30;
 2405              		.loc 1 474 2 view .LVU406
 475:Core/Src/test.c **** 	u16 x2=150;//130
 2406              		.loc 1 475 2 view .LVU407
 476:Core/Src/test.c **** 	u16 y2=130;//100
 2407              		.loc 1 476 2 view .LVU408
 477:Core/Src/test.c **** 			
 478:Core/Src/test.c **** 	DrawTestPage("测试14:GUI ProgresBar");
 2408              		.loc 1 478 2 view .LVU409
 2409 0004 4948     		ldr	r0, .L79
 2410 0006 FFF7FEFF 		bl	DrawTestPage
 2411              	.LVL205:
 479:Core/Src/test.c **** 	LCD_Fill(0,20,lcddev.width-1,lcddev.height-20,WHITE);
 2412              		.loc 1 479 2 view .LVU410
 2413              		.loc 1 479 22 is_stmt 0 view .LVU411
 2414 000a 494B     		ldr	r3, .L79+4
 2415 000c 9A88     		ldrh	r2, [r3, #4]
 2416              		.loc 1 479 37 view .LVU412
 2417 000e DB88     		ldrh	r3, [r3, #6]
 2418              		.loc 1 479 2 view .LVU413
 2419 0010 143B     		subs	r3, r3, #20
 2420 0012 013A     		subs	r2, r2, #1
 2421 0014 4FF6FF71 		movw	r1, #65535
ARM GAS  C:\Users\savao\AppData\Local\Temp\ccVfuo0d.s 			page 55


 2422 0018 0091     		str	r1, [sp]
 2423 001a 9BB2     		uxth	r3, r3
 2424 001c 92B2     		uxth	r2, r2
 2425 001e 1421     		movs	r1, #20
 2426 0020 0020     		movs	r0, #0
 2427 0022 FFF7FEFF 		bl	LCD_Fill
 2428              	.LVL206:
 480:Core/Src/test.c **** 	Draw_Button(x1, y1, x2, y2);   // 显示主体窗口
 2429              		.loc 1 480 2 is_stmt 1 view .LVU414
 2430 0026 8223     		movs	r3, #130
 2431 0028 9622     		movs	r2, #150
 2432 002a 1E21     		movs	r1, #30
 2433 002c 1420     		movs	r0, #20
 2434 002e FFF7FEFF 		bl	Draw_Button
 2435              	.LVL207:
 481:Core/Src/test.c **** 	LCD_Fill(x1+3, y1+3, x2-3, y2-75, DARKBLUE);	 // 显示标题栏 
 2436              		.loc 1 481 2 view .LVU415
 2437 0032 40F2CF13 		movw	r3, #463
 2438 0036 0093     		str	r3, [sp]
 2439 0038 3723     		movs	r3, #55
 2440 003a 9322     		movs	r2, #147
 2441 003c 2121     		movs	r1, #33
 2442 003e 1720     		movs	r0, #23
 2443 0040 FFF7FEFF 		bl	LCD_Fill
 2444              	.LVL208:
 482:Core/Src/test.c **** 	Show_Str(x1+25, y1+5, POINT_COLOR,BACK_COLOR,"ProgresBar",16,1); // 按钮上写字
 2445              		.loc 1 482 2 view .LVU416
 2446 0044 3B4E     		ldr	r6, .L79+8
 2447 0046 3C4C     		ldr	r4, .L79+12
 2448 0048 0125     		movs	r5, #1
 2449 004a 0295     		str	r5, [sp, #8]
 2450 004c 1027     		movs	r7, #16
 2451 004e 0197     		str	r7, [sp, #4]
 2452 0050 3A4B     		ldr	r3, .L79+16
 2453 0052 0093     		str	r3, [sp]
 2454 0054 3388     		ldrh	r3, [r6]
 2455 0056 2288     		ldrh	r2, [r4]
 2456 0058 2321     		movs	r1, #35
 2457 005a 2D20     		movs	r0, #45
 2458 005c FFF7FEFF 		bl	Show_Str
 2459              	.LVL209:
 483:Core/Src/test.c **** 	Draw_Button(x1+5, y1+70, x2-70, y2-5);  // 显示第一个按钮
 2460              		.loc 1 483 2 view .LVU417
 2461 0060 7D23     		movs	r3, #125
 2462 0062 5022     		movs	r2, #80
 2463 0064 6421     		movs	r1, #100
 2464 0066 1920     		movs	r0, #25
 2465 0068 FFF7FEFF 		bl	Draw_Button
 2466              	.LVL210:
 484:Core/Src/test.c **** 	Draw_Button(x1+70, y1+70, x2-5, y2-5);  // 显示第二个按钮
 2467              		.loc 1 484 2 view .LVU418
 2468 006c 7D23     		movs	r3, #125
 2469 006e 9122     		movs	r2, #145
 2470 0070 6421     		movs	r1, #100
 2471 0072 5A20     		movs	r0, #90
 2472 0074 FFF7FEFF 		bl	Draw_Button
 2473              	.LVL211:
ARM GAS  C:\Users\savao\AppData\Local\Temp\ccVfuo0d.s 			page 56


 485:Core/Src/test.c **** 	POINT_COLOR=BLACK;	
 2474              		.loc 1 485 2 view .LVU419
 2475              		.loc 1 485 13 is_stmt 0 view .LVU420
 2476 0078 0022     		movs	r2, #0
 2477 007a 2280     		strh	r2, [r4]	@ movhi
 486:Core/Src/test.c **** 	BACK_COLOR=LGRAY;
 2478              		.loc 1 486 2 is_stmt 1 view .LVU421
 2479              		.loc 1 486 12 is_stmt 0 view .LVU422
 2480 007c 4CF21863 		movw	r3, #50712
 2481 0080 3380     		strh	r3, [r6]	@ movhi
 487:Core/Src/test.c **** 	Show_Str(x1+25, y1+74,POINT_COLOR,BACK_COLOR,"OK",16,1);
 2482              		.loc 1 487 2 is_stmt 1 view .LVU423
 2483 0082 0295     		str	r5, [sp, #8]
 2484 0084 0197     		str	r7, [sp, #4]
 2485 0086 2E49     		ldr	r1, .L79+20
 2486 0088 0091     		str	r1, [sp]
 2487 008a 6821     		movs	r1, #104
 2488 008c 2D20     		movs	r0, #45
 2489 008e FFF7FEFF 		bl	Show_Str
 2490              	.LVL212:
 488:Core/Src/test.c **** 	Show_Str(x1+75, y1+74, POINT_COLOR,BACK_COLOR,"Cancel",16,1);
 2491              		.loc 1 488 2 view .LVU424
 2492 0092 0295     		str	r5, [sp, #8]
 2493 0094 0197     		str	r7, [sp, #4]
 2494 0096 2B4B     		ldr	r3, .L79+24
 2495 0098 0093     		str	r3, [sp]
 2496 009a 3388     		ldrh	r3, [r6]
 2497 009c 2288     		ldrh	r2, [r4]
 2498 009e 6821     		movs	r1, #104
 2499 00a0 5F20     		movs	r0, #95
 2500 00a2 FFF7FEFF 		bl	Show_Str
 2501              	.LVL213:
 489:Core/Src/test.c **** 	Show_Str(x1+80, y1+35, POINT_COLOR,BACK_COLOR,"%",16,1);	  
 2502              		.loc 1 489 2 view .LVU425
 2503 00a6 0295     		str	r5, [sp, #8]
 2504 00a8 0197     		str	r7, [sp, #4]
 2505 00aa 274B     		ldr	r3, .L79+28
 2506 00ac 0093     		str	r3, [sp]
 2507 00ae 3388     		ldrh	r3, [r6]
 2508 00b0 2288     		ldrh	r2, [r4]
 2509 00b2 4121     		movs	r1, #65
 2510 00b4 6420     		movs	r0, #100
 2511 00b6 FFF7FEFF 		bl	Show_Str
 2512              	.LVL214:
 490:Core/Src/test.c **** 	for(i=x1+26;i<x2-5;i++)
 2513              		.loc 1 490 2 view .LVU426
 2514              		.loc 1 490 7 is_stmt 0 view .LVU427
 2515 00ba 2E24     		movs	r4, #46
 2516              		.loc 1 490 2 view .LVU428
 2517 00bc 17E0     		b	.L76
 2518              	.LVL215:
 2519              	.L77:
 491:Core/Src/test.c **** 	{
 492:Core/Src/test.c **** 		LCD_Fill(x1+5, y1+53, i, y1+68, RED);
 2520              		.loc 1 492 3 is_stmt 1 discriminator 3 view .LVU429
 2521 00be 4FF47843 		mov	r3, #63488
 2522 00c2 0093     		str	r3, [sp]
ARM GAS  C:\Users\savao\AppData\Local\Temp\ccVfuo0d.s 			page 57


 2523 00c4 6223     		movs	r3, #98
 2524 00c6 2246     		mov	r2, r4
 2525 00c8 5321     		movs	r1, #83
 2526 00ca 1920     		movs	r0, #25
 2527 00cc FFF7FEFF 		bl	LCD_Fill
 2528              	.LVL216:
 493:Core/Src/test.c **** 		delay_ms(40);
 2529              		.loc 1 493 3 discriminator 3 view .LVU430
 2530 00d0 2820     		movs	r0, #40
 2531 00d2 FFF7FEFF 		bl	delay_ms
 2532              	.LVL217:
 494:Core/Src/test.c **** 		LCD_ShowNum(x1+62, y1+35, num,2,16);
 2533              		.loc 1 494 3 discriminator 3 view .LVU431
 2534 00d6 1023     		movs	r3, #16
 2535 00d8 0093     		str	r3, [sp]
 2536 00da 0223     		movs	r3, #2
 2537 00dc 2A46     		mov	r2, r5
 2538 00de 4121     		movs	r1, #65
 2539 00e0 5220     		movs	r0, #82
 2540 00e2 FFF7FEFF 		bl	LCD_ShowNum
 2541              	.LVL218:
 495:Core/Src/test.c **** 		num++;
 2542              		.loc 1 495 3 discriminator 3 view .LVU432
 2543              		.loc 1 495 6 is_stmt 0 discriminator 3 view .LVU433
 2544 00e6 0135     		adds	r5, r5, #1
 2545              	.LVL219:
 2546              		.loc 1 495 6 discriminator 3 view .LVU434
 2547 00e8 EDB2     		uxtb	r5, r5
 2548              	.LVL220:
 490:Core/Src/test.c **** 	{
 2549              		.loc 1 490 21 is_stmt 1 discriminator 3 view .LVU435
 490:Core/Src/test.c **** 	{
 2550              		.loc 1 490 22 is_stmt 0 discriminator 3 view .LVU436
 2551 00ea 0134     		adds	r4, r4, #1
 2552              	.LVL221:
 490:Core/Src/test.c **** 	{
 2553              		.loc 1 490 22 discriminator 3 view .LVU437
 2554 00ec E4B2     		uxtb	r4, r4
 2555              	.LVL222:
 2556              	.L76:
 490:Core/Src/test.c **** 	{
 2557              		.loc 1 490 14 is_stmt 1 discriminator 1 view .LVU438
 490:Core/Src/test.c **** 	{
 2558              		.loc 1 490 2 is_stmt 0 discriminator 1 view .LVU439
 2559 00ee 902C     		cmp	r4, #144
 2560 00f0 E5D9     		bls	.L77
 496:Core/Src/test.c **** 	}
 497:Core/Src/test.c **** 	LCD_Fill(x1+5, y1+35, x2-5, y1+50, LGRAY);
 2561              		.loc 1 497 2 is_stmt 1 view .LVU440
 2562 00f2 4CF21863 		movw	r3, #50712
 2563 00f6 0093     		str	r3, [sp]
 2564 00f8 5023     		movs	r3, #80
 2565 00fa 9122     		movs	r2, #145
 2566 00fc 4121     		movs	r1, #65
 2567 00fe 1920     		movs	r0, #25
 2568 0100 FFF7FEFF 		bl	LCD_Fill
 2569              	.LVL223:
ARM GAS  C:\Users\savao\AppData\Local\Temp\ccVfuo0d.s 			page 58


 498:Core/Src/test.c **** 	Show_Str(x1+25, y1+35, BLUE,BACK_COLOR,"Success!!!",16,1);
 2570              		.loc 1 498 2 view .LVU441
 2571 0104 0123     		movs	r3, #1
 2572 0106 0293     		str	r3, [sp, #8]
 2573 0108 1023     		movs	r3, #16
 2574 010a 0193     		str	r3, [sp, #4]
 2575 010c 0F4B     		ldr	r3, .L79+32
 2576 010e 0093     		str	r3, [sp]
 2577 0110 084B     		ldr	r3, .L79+8
 2578 0112 1B88     		ldrh	r3, [r3]
 2579 0114 1F22     		movs	r2, #31
 2580 0116 4121     		movs	r1, #65
 2581 0118 2D20     		movs	r0, #45
 2582 011a FFF7FEFF 		bl	Show_Str
 2583              	.LVL224:
 499:Core/Src/test.c **** 	delay_ms(1500);
 2584              		.loc 1 499 2 view .LVU442
 2585 011e 40F2DC50 		movw	r0, #1500
 2586 0122 FFF7FEFF 		bl	delay_ms
 2587              	.LVL225:
 500:Core/Src/test.c **** }
 2588              		.loc 1 500 1 is_stmt 0 view .LVU443
 2589 0126 05B0     		add	sp, sp, #20
 2590              	.LCFI39:
 2591              		.cfi_def_cfa_offset 20
 2592              		@ sp needed
 2593 0128 F0BD     		pop	{r4, r5, r6, r7, pc}
 2594              	.LVL226:
 2595              	.L80:
 2596              		.loc 1 500 1 view .LVU444
 2597 012a 00BF     		.align	2
 2598              	.L79:
 2599 012c 00000000 		.word	.LC47
 2600 0130 00000000 		.word	lcddev
 2601 0134 00000000 		.word	BACK_COLOR
 2602 0138 00000000 		.word	POINT_COLOR
 2603 013c 18000000 		.word	.LC48
 2604 0140 20000000 		.word	.LC38
 2605 0144 24000000 		.word	.LC49
 2606 0148 2C000000 		.word	.LC50
 2607 014c 30000000 		.word	.LC51
 2608              		.cfi_endproc
 2609              	.LFE146:
 2611              		.section	.rodata.BarReport_Test.str1.4,"aMS",%progbits,1
 2612              		.align	2
 2613              	.LC52:
 2614 0000 B2E2CAD4 		.ascii	"\262\342\312\32415:GUI BarReport\000"
 2614      31353A47 
 2614      55492042 
 2614      61725265 
 2614      706F7274 
 2615              		.section	.text.BarReport_Test,"ax",%progbits
 2616              		.align	1
 2617              		.global	BarReport_Test
 2618              		.syntax unified
 2619              		.thumb
 2620              		.thumb_func
ARM GAS  C:\Users\savao\AppData\Local\Temp\ccVfuo0d.s 			page 59


 2621              		.fpu fpv4-sp-d16
 2623              	BarReport_Test:
 2624              	.LFB147:
 501:Core/Src/test.c **** 
 502:Core/Src/test.c **** /*****************************************************************************
 503:Core/Src/test.c ****  * @name       :void BarReport_Test(void)
 504:Core/Src/test.c ****  * @date       :2018-12-29 
 505:Core/Src/test.c ****  * @function   :BarReport test
 506:Core/Src/test.c ****  * @parameters :None
 507:Core/Src/test.c ****  * @retvalue   :None
 508:Core/Src/test.c **** ******************************************************************************/
 509:Core/Src/test.c **** void BarReport_Test(void)
 510:Core/Src/test.c **** {
 2625              		.loc 1 510 1 is_stmt 1 view -0
 2626              		.cfi_startproc
 2627              		@ args = 0, pretend = 0, frame = 0
 2628              		@ frame_needed = 0, uses_anonymous_args = 0
 2629 0000 10B5     		push	{r4, lr}
 2630              	.LCFI40:
 2631              		.cfi_def_cfa_offset 8
 2632              		.cfi_offset 4, -8
 2633              		.cfi_offset 14, -4
 2634 0002 82B0     		sub	sp, sp, #8
 2635              	.LCFI41:
 2636              		.cfi_def_cfa_offset 16
 511:Core/Src/test.c **** 	uint16_t i;	
 2637              		.loc 1 511 2 view .LVU446
 512:Core/Src/test.c **** 
 513:Core/Src/test.c **** 	DrawTestPage("测试15:GUI BarReport");
 2638              		.loc 1 513 2 view .LVU447
 2639 0004 5548     		ldr	r0, .L91
 2640 0006 FFF7FEFF 		bl	DrawTestPage
 2641              	.LVL227:
 514:Core/Src/test.c **** 	LCD_Fill(0,20,lcddev.width-1,lcddev.height-20,WHITE);
 2642              		.loc 1 514 2 view .LVU448
 2643              		.loc 1 514 22 is_stmt 0 view .LVU449
 2644 000a 554B     		ldr	r3, .L91+4
 2645 000c 9A88     		ldrh	r2, [r3, #4]
 2646              		.loc 1 514 37 view .LVU450
 2647 000e DB88     		ldrh	r3, [r3, #6]
 2648              		.loc 1 514 2 view .LVU451
 2649 0010 143B     		subs	r3, r3, #20
 2650 0012 013A     		subs	r2, r2, #1
 2651 0014 4FF6FF71 		movw	r1, #65535
 2652 0018 0091     		str	r1, [sp]
 2653 001a 9BB2     		uxth	r3, r3
 2654 001c 92B2     		uxth	r2, r2
 2655 001e 1421     		movs	r1, #20
 2656 0020 0020     		movs	r0, #0
 2657 0022 FFF7FEFF 		bl	LCD_Fill
 2658              	.LVL228:
 515:Core/Src/test.c **** 	POINT_COLOR = BLACK;
 2659              		.loc 1 515 2 is_stmt 1 view .LVU452
 2660              		.loc 1 515 14 is_stmt 0 view .LVU453
 2661 0026 4F4B     		ldr	r3, .L91+8
 2662 0028 0022     		movs	r2, #0
 2663 002a 1A80     		strh	r2, [r3]	@ movhi
ARM GAS  C:\Users\savao\AppData\Local\Temp\ccVfuo0d.s 			page 60


 516:Core/Src/test.c **** 	//画纵坐标
 517:Core/Src/test.c **** 	LCD_DrawLine(20, 50, 20, 210);
 2664              		.loc 1 517 2 is_stmt 1 view .LVU454
 2665 002c D223     		movs	r3, #210
 2666 002e 1422     		movs	r2, #20
 2667 0030 3221     		movs	r1, #50
 2668 0032 1046     		mov	r0, r2
 2669 0034 FFF7FEFF 		bl	LCD_DrawLine
 2670              	.LVL229:
 518:Core/Src/test.c **** 	LCD_DrawLine(10, 60, 20, 50);
 2671              		.loc 1 518 2 view .LVU455
 2672 0038 3223     		movs	r3, #50
 2673 003a 1422     		movs	r2, #20
 2674 003c 3C21     		movs	r1, #60
 2675 003e 0A20     		movs	r0, #10
 2676 0040 FFF7FEFF 		bl	LCD_DrawLine
 2677              	.LVL230:
 519:Core/Src/test.c **** 	LCD_DrawLine(30, 60, 20, 50);
 2678              		.loc 1 519 2 view .LVU456
 2679 0044 3223     		movs	r3, #50
 2680 0046 1422     		movs	r2, #20
 2681 0048 3C21     		movs	r1, #60
 2682 004a 1E20     		movs	r0, #30
 2683 004c FFF7FEFF 		bl	LCD_DrawLine
 2684              	.LVL231:
 520:Core/Src/test.c **** 	//画横坐标
 521:Core/Src/test.c **** 	LCD_DrawLine(20, 210, 220, 210);
 2685              		.loc 1 521 2 view .LVU457
 2686 0050 D223     		movs	r3, #210
 2687 0052 DC22     		movs	r2, #220
 2688 0054 1946     		mov	r1, r3
 2689 0056 1420     		movs	r0, #20
 2690 0058 FFF7FEFF 		bl	LCD_DrawLine
 2691              	.LVL232:
 522:Core/Src/test.c **** 	LCD_DrawLine(210, 200, 220, 210);
 2692              		.loc 1 522 2 view .LVU458
 2693 005c D223     		movs	r3, #210
 2694 005e DC22     		movs	r2, #220
 2695 0060 C821     		movs	r1, #200
 2696 0062 1846     		mov	r0, r3
 2697 0064 FFF7FEFF 		bl	LCD_DrawLine
 2698              	.LVL233:
 523:Core/Src/test.c **** 	LCD_DrawLine(210, 220, 220, 210);
 2699              		.loc 1 523 2 view .LVU459
 2700 0068 D223     		movs	r3, #210
 2701 006a DC22     		movs	r2, #220
 2702 006c 1146     		mov	r1, r2
 2703 006e 1846     		mov	r0, r3
 2704 0070 FFF7FEFF 		bl	LCD_DrawLine
 2705              	.LVL234:
 524:Core/Src/test.c **** 	//画条形
 525:Core/Src/test.c **** 	LCD_Fill(35, 80, 55, 209,RED);
 2706              		.loc 1 525 2 view .LVU460
 2707 0074 4FF47843 		mov	r3, #63488
 2708 0078 0093     		str	r3, [sp]
 2709 007a D123     		movs	r3, #209
 2710 007c 3722     		movs	r2, #55
ARM GAS  C:\Users\savao\AppData\Local\Temp\ccVfuo0d.s 			page 61


 2711 007e 5021     		movs	r1, #80
 2712 0080 2320     		movs	r0, #35
 2713 0082 FFF7FEFF 		bl	LCD_Fill
 2714              	.LVL235:
 526:Core/Src/test.c **** 	LCD_Fill(75, 130, 95, 209,YELLOW);
 2715              		.loc 1 526 2 view .LVU461
 2716 0086 4FF6E073 		movw	r3, #65504
 2717 008a 0093     		str	r3, [sp]
 2718 008c D123     		movs	r3, #209
 2719 008e 5F22     		movs	r2, #95
 2720 0090 8221     		movs	r1, #130
 2721 0092 4B20     		movs	r0, #75
 2722 0094 FFF7FEFF 		bl	LCD_Fill
 2723              	.LVL236:
 527:Core/Src/test.c **** 	LCD_Fill(115, 60, 135, 209,BLUE);
 2724              		.loc 1 527 2 view .LVU462
 2725 0098 1F23     		movs	r3, #31
 2726 009a 0093     		str	r3, [sp]
 2727 009c D123     		movs	r3, #209
 2728 009e 8722     		movs	r2, #135
 2729 00a0 3C21     		movs	r1, #60
 2730 00a2 7320     		movs	r0, #115
 2731 00a4 FFF7FEFF 		bl	LCD_Fill
 2732              	.LVL237:
 528:Core/Src/test.c **** 	LCD_Fill(155, 90, 175, 209,GREEN);
 2733              		.loc 1 528 2 view .LVU463
 2734 00a8 4FF4FC63 		mov	r3, #2016
 2735 00ac 0093     		str	r3, [sp]
 2736 00ae D123     		movs	r3, #209
 2737 00b0 AF22     		movs	r2, #175
 2738 00b2 5A21     		movs	r1, #90
 2739 00b4 9B20     		movs	r0, #155
 2740 00b6 FFF7FEFF 		bl	LCD_Fill
 2741              	.LVL238:
 529:Core/Src/test.c **** 	//条形渐变
 530:Core/Src/test.c **** 	delay_ms(50);
 2742              		.loc 1 530 2 view .LVU464
 2743 00ba 3220     		movs	r0, #50
 2744 00bc FFF7FEFF 		bl	delay_ms
 2745              	.LVL239:
 531:Core/Src/test.c **** 	for(i=81;i<209;i++) //红色条降低
 2746              		.loc 1 531 2 view .LVU465
 2747              		.loc 1 531 7 is_stmt 0 view .LVU466
 2748 00c0 5124     		movs	r4, #81
 2749              		.loc 1 531 2 view .LVU467
 2750 00c2 0DE0     		b	.L82
 2751              	.LVL240:
 2752              	.L83:
 532:Core/Src/test.c **** 	{
 533:Core/Src/test.c **** 		LCD_Fill(35, 80, 55, i,WHITE);
 2753              		.loc 1 533 3 is_stmt 1 discriminator 3 view .LVU468
 2754 00c4 4FF6FF73 		movw	r3, #65535
 2755 00c8 0093     		str	r3, [sp]
 2756 00ca 2346     		mov	r3, r4
 2757 00cc 3722     		movs	r2, #55
 2758 00ce 5021     		movs	r1, #80
 2759 00d0 2320     		movs	r0, #35
ARM GAS  C:\Users\savao\AppData\Local\Temp\ccVfuo0d.s 			page 62


 2760 00d2 FFF7FEFF 		bl	LCD_Fill
 2761              	.LVL241:
 534:Core/Src/test.c **** 		delay_ms(10);
 2762              		.loc 1 534 3 discriminator 3 view .LVU469
 2763 00d6 0A20     		movs	r0, #10
 2764 00d8 FFF7FEFF 		bl	delay_ms
 2765              	.LVL242:
 531:Core/Src/test.c **** 	for(i=81;i<209;i++) //红色条降低
 2766              		.loc 1 531 17 discriminator 3 view .LVU470
 531:Core/Src/test.c **** 	for(i=81;i<209;i++) //红色条降低
 2767              		.loc 1 531 18 is_stmt 0 discriminator 3 view .LVU471
 2768 00dc 0134     		adds	r4, r4, #1
 2769              	.LVL243:
 531:Core/Src/test.c **** 	for(i=81;i<209;i++) //红色条降低
 2770              		.loc 1 531 18 discriminator 3 view .LVU472
 2771 00de A4B2     		uxth	r4, r4
 2772              	.LVL244:
 2773              	.L82:
 531:Core/Src/test.c **** 	for(i=81;i<209;i++) //红色条降低
 2774              		.loc 1 531 11 is_stmt 1 discriminator 1 view .LVU473
 531:Core/Src/test.c **** 	for(i=81;i<209;i++) //红色条降低
 2775              		.loc 1 531 2 is_stmt 0 discriminator 1 view .LVU474
 2776 00e0 D02C     		cmp	r4, #208
 2777 00e2 EFD9     		bls	.L83
 535:Core/Src/test.c **** 	}
 536:Core/Src/test.c **** 	for(i=208;i>100;i--) //红色条升高
 2778              		.loc 1 536 7 view .LVU475
 2779 00e4 D024     		movs	r4, #208
 2780              	.LVL245:
 2781              		.loc 1 536 7 view .LVU476
 2782 00e6 0DE0     		b	.L84
 2783              	.LVL246:
 2784              	.L85:
 537:Core/Src/test.c **** 	{
 538:Core/Src/test.c **** 		LCD_Fill(35, i, 55, 209,RED);
 2785              		.loc 1 538 3 is_stmt 1 discriminator 3 view .LVU477
 2786 00e8 4FF47843 		mov	r3, #63488
 2787 00ec 0093     		str	r3, [sp]
 2788 00ee D123     		movs	r3, #209
 2789 00f0 3722     		movs	r2, #55
 2790 00f2 2146     		mov	r1, r4
 2791 00f4 2320     		movs	r0, #35
 2792 00f6 FFF7FEFF 		bl	LCD_Fill
 2793              	.LVL247:
 539:Core/Src/test.c **** 		delay_ms(10);
 2794              		.loc 1 539 3 discriminator 3 view .LVU478
 2795 00fa 0A20     		movs	r0, #10
 2796 00fc FFF7FEFF 		bl	delay_ms
 2797              	.LVL248:
 536:Core/Src/test.c **** 	{
 2798              		.loc 1 536 18 discriminator 3 view .LVU479
 536:Core/Src/test.c **** 	{
 2799              		.loc 1 536 19 is_stmt 0 discriminator 3 view .LVU480
 2800 0100 013C     		subs	r4, r4, #1
 2801              	.LVL249:
 536:Core/Src/test.c **** 	{
 2802              		.loc 1 536 19 discriminator 3 view .LVU481
ARM GAS  C:\Users\savao\AppData\Local\Temp\ccVfuo0d.s 			page 63


 2803 0102 A4B2     		uxth	r4, r4
 2804              	.LVL250:
 2805              	.L84:
 536:Core/Src/test.c **** 	{
 2806              		.loc 1 536 12 is_stmt 1 discriminator 1 view .LVU482
 536:Core/Src/test.c **** 	{
 2807              		.loc 1 536 2 is_stmt 0 discriminator 1 view .LVU483
 2808 0104 642C     		cmp	r4, #100
 2809 0106 EFD8     		bhi	.L85
 540:Core/Src/test.c **** 	}
 541:Core/Src/test.c **** 	for(i=129;i>80;i--) //黄色条升高
 2810              		.loc 1 541 7 view .LVU484
 2811 0108 8124     		movs	r4, #129
 2812              	.LVL251:
 2813              		.loc 1 541 7 view .LVU485
 2814 010a 0DE0     		b	.L86
 2815              	.LVL252:
 2816              	.L87:
 542:Core/Src/test.c **** 	{
 543:Core/Src/test.c **** 		LCD_Fill(75, i, 95, 130,YELLOW);
 2817              		.loc 1 543 3 is_stmt 1 discriminator 3 view .LVU486
 2818 010c 4FF6E073 		movw	r3, #65504
 2819 0110 0093     		str	r3, [sp]
 2820 0112 8223     		movs	r3, #130
 2821 0114 5F22     		movs	r2, #95
 2822 0116 2146     		mov	r1, r4
 2823 0118 4B20     		movs	r0, #75
 2824 011a FFF7FEFF 		bl	LCD_Fill
 2825              	.LVL253:
 544:Core/Src/test.c **** 		delay_ms(10);
 2826              		.loc 1 544 3 discriminator 3 view .LVU487
 2827 011e 0A20     		movs	r0, #10
 2828 0120 FFF7FEFF 		bl	delay_ms
 2829              	.LVL254:
 541:Core/Src/test.c **** 	{
 2830              		.loc 1 541 17 discriminator 3 view .LVU488
 541:Core/Src/test.c **** 	{
 2831              		.loc 1 541 18 is_stmt 0 discriminator 3 view .LVU489
 2832 0124 013C     		subs	r4, r4, #1
 2833              	.LVL255:
 541:Core/Src/test.c **** 	{
 2834              		.loc 1 541 18 discriminator 3 view .LVU490
 2835 0126 A4B2     		uxth	r4, r4
 2836              	.LVL256:
 2837              	.L86:
 541:Core/Src/test.c **** 	{
 2838              		.loc 1 541 12 is_stmt 1 discriminator 1 view .LVU491
 541:Core/Src/test.c **** 	{
 2839              		.loc 1 541 2 is_stmt 0 discriminator 1 view .LVU492
 2840 0128 502C     		cmp	r4, #80
 2841 012a EFD8     		bhi	.L87
 545:Core/Src/test.c **** 	}
 546:Core/Src/test.c **** 	for(i=25;i<160;i++) //蓝色条降低
 2842              		.loc 1 546 7 view .LVU493
 2843 012c 1924     		movs	r4, #25
 2844              	.LVL257:
 2845              		.loc 1 546 7 view .LVU494
ARM GAS  C:\Users\savao\AppData\Local\Temp\ccVfuo0d.s 			page 64


 2846 012e 0DE0     		b	.L88
 2847              	.LVL258:
 2848              	.L89:
 547:Core/Src/test.c **** 	{
 548:Core/Src/test.c **** 		LCD_Fill(115, 24, 135, i,WHITE);
 2849              		.loc 1 548 3 is_stmt 1 discriminator 3 view .LVU495
 2850 0130 4FF6FF73 		movw	r3, #65535
 2851 0134 0093     		str	r3, [sp]
 2852 0136 2346     		mov	r3, r4
 2853 0138 8722     		movs	r2, #135
 2854 013a 1821     		movs	r1, #24
 2855 013c 7320     		movs	r0, #115
 2856 013e FFF7FEFF 		bl	LCD_Fill
 2857              	.LVL259:
 549:Core/Src/test.c **** 		delay_ms(10);
 2858              		.loc 1 549 3 discriminator 3 view .LVU496
 2859 0142 0A20     		movs	r0, #10
 2860 0144 FFF7FEFF 		bl	delay_ms
 2861              	.LVL260:
 546:Core/Src/test.c **** 	{
 2862              		.loc 1 546 17 discriminator 3 view .LVU497
 546:Core/Src/test.c **** 	{
 2863              		.loc 1 546 18 is_stmt 0 discriminator 3 view .LVU498
 2864 0148 0134     		adds	r4, r4, #1
 2865              	.LVL261:
 546:Core/Src/test.c **** 	{
 2866              		.loc 1 546 18 discriminator 3 view .LVU499
 2867 014a A4B2     		uxth	r4, r4
 2868              	.LVL262:
 2869              	.L88:
 546:Core/Src/test.c **** 	{
 2870              		.loc 1 546 11 is_stmt 1 discriminator 1 view .LVU500
 546:Core/Src/test.c **** 	{
 2871              		.loc 1 546 2 is_stmt 0 discriminator 1 view .LVU501
 2872 014c 9F2C     		cmp	r4, #159
 2873 014e EFD9     		bls	.L89
 550:Core/Src/test.c **** 	}		
 551:Core/Src/test.c **** 	delay_ms(1500);
 2874              		.loc 1 551 2 is_stmt 1 view .LVU502
 2875 0150 40F2DC50 		movw	r0, #1500
 2876 0154 FFF7FEFF 		bl	delay_ms
 2877              	.LVL263:
 552:Core/Src/test.c **** }
 2878              		.loc 1 552 1 is_stmt 0 view .LVU503
 2879 0158 02B0     		add	sp, sp, #8
 2880              	.LCFI42:
 2881              		.cfi_def_cfa_offset 8
 2882              		@ sp needed
 2883 015a 10BD     		pop	{r4, pc}
 2884              	.LVL264:
 2885              	.L92:
 2886              		.loc 1 552 1 view .LVU504
 2887              		.align	2
 2888              	.L91:
 2889 015c 00000000 		.word	.LC52
 2890 0160 00000000 		.word	lcddev
 2891 0164 00000000 		.word	POINT_COLOR
ARM GAS  C:\Users\savao\AppData\Local\Temp\ccVfuo0d.s 			page 65


 2892              		.cfi_endproc
 2893              	.LFE147:
 2895              		.section	.rodata.Window_Test.str1.4,"aMS",%progbits,1
 2896              		.align	2
 2897              	.LC53:
 2898 0000 B2E2CAD4 		.ascii	"\262\342\312\32416:GUI Window\000"
 2898      31363A47 
 2898      55492057 
 2898      696E646F 
 2898      7700
 2899              		.section	.text.Window_Test,"ax",%progbits
 2900              		.align	1
 2901              		.global	Window_Test
 2902              		.syntax unified
 2903              		.thumb
 2904              		.thumb_func
 2905              		.fpu fpv4-sp-d16
 2907              	Window_Test:
 2908              	.LFB148:
 553:Core/Src/test.c **** 
 554:Core/Src/test.c **** /*****************************************************************************
 555:Core/Src/test.c ****  * @name       :void Window_Test(void)
 556:Core/Src/test.c ****  * @date       :2018-12-29 
 557:Core/Src/test.c ****  * @function   :Window test
 558:Core/Src/test.c ****  * @parameters :None
 559:Core/Src/test.c ****  * @retvalue   :None
 560:Core/Src/test.c **** ******************************************************************************/
 561:Core/Src/test.c **** void Window_Test(void)
 562:Core/Src/test.c **** {
 2909              		.loc 1 562 1 is_stmt 1 view -0
 2910              		.cfi_startproc
 2911              		@ args = 0, pretend = 0, frame = 0
 2912              		@ frame_needed = 0, uses_anonymous_args = 0
 2913 0000 2DE9F041 		push	{r4, r5, r6, r7, r8, lr}
 2914              	.LCFI43:
 2915              		.cfi_def_cfa_offset 24
 2916              		.cfi_offset 4, -24
 2917              		.cfi_offset 5, -20
 2918              		.cfi_offset 6, -16
 2919              		.cfi_offset 7, -12
 2920              		.cfi_offset 8, -8
 2921              		.cfi_offset 14, -4
 2922 0004 82B0     		sub	sp, sp, #8
 2923              	.LCFI44:
 2924              		.cfi_def_cfa_offset 32
 563:Core/Src/test.c **** 
 564:Core/Src/test.c **** 	uint16_t xstart=2,ystart=30,xend=lcddev.width*2/3,yend=lcddev.height-30;
 2925              		.loc 1 564 2 view .LVU506
 2926              	.LVL265:
 2927              		.loc 1 564 41 is_stmt 0 view .LVU507
 2928 0006 214E     		ldr	r6, .L96
 2929 0008 B488     		ldrh	r4, [r6, #4]
 2930              		.loc 1 564 47 view .LVU508
 2931 000a 6400     		lsls	r4, r4, #1
 2932              		.loc 1 564 49 view .LVU509
 2933 000c 204B     		ldr	r3, .L96+4
 2934 000e 83FB0434 		smull	r3, r4, r3, r4
ARM GAS  C:\Users\savao\AppData\Local\Temp\ccVfuo0d.s 			page 66


 2935              		.loc 1 564 30 view .LVU510
 2936 0012 A4B2     		uxth	r4, r4
 2937              	.LVL266:
 2938              		.loc 1 564 63 view .LVU511
 2939 0014 F588     		ldrh	r5, [r6, #6]
 2940              		.loc 1 564 52 view .LVU512
 2941 0016 1E3D     		subs	r5, r5, #30
 2942 0018 ADB2     		uxth	r5, r5
 2943              	.LVL267:
 565:Core/Src/test.c **** 	uint8_t i=3;
 2944              		.loc 1 565 2 is_stmt 1 view .LVU513
 566:Core/Src/test.c **** 	DrawTestPage("测试16:GUI Window");
 2945              		.loc 1 566 2 view .LVU514
 2946 001a 1E48     		ldr	r0, .L96+8
 2947 001c FFF7FEFF 		bl	DrawTestPage
 2948              	.LVL268:
 567:Core/Src/test.c **** 	LCD_Fill(0,20,lcddev.width-1,lcddev.height-20,GRAY);
 2949              		.loc 1 567 2 view .LVU515
 2950              		.loc 1 567 22 is_stmt 0 view .LVU516
 2951 0020 B288     		ldrh	r2, [r6, #4]
 2952              		.loc 1 567 37 view .LVU517
 2953 0022 F388     		ldrh	r3, [r6, #6]
 2954              		.loc 1 567 2 view .LVU518
 2955 0024 143B     		subs	r3, r3, #20
 2956 0026 013A     		subs	r2, r2, #1
 2957 0028 48F23041 		movw	r1, #33840
 2958 002c 0091     		str	r1, [sp]
 2959 002e 9BB2     		uxth	r3, r3
 2960 0030 92B2     		uxth	r2, r2
 2961 0032 1421     		movs	r1, #20
 2962 0034 0020     		movs	r0, #0
 2963 0036 FFF7FEFF 		bl	LCD_Fill
 2964              	.LVL269:
 565:Core/Src/test.c **** 	uint8_t i=3;
 2965              		.loc 1 565 10 view .LVU519
 2966 003a 4FF00308 		mov	r8, #3
 564:Core/Src/test.c **** 	uint8_t i=3;
 2967              		.loc 1 564 20 view .LVU520
 2968 003e 1E26     		movs	r6, #30
 564:Core/Src/test.c **** 	uint8_t i=3;
 2969              		.loc 1 564 11 view .LVU521
 2970 0040 0227     		movs	r7, #2
 2971              	.LVL270:
 2972              	.L94:
 568:Core/Src/test.c **** 	do
 2973              		.loc 1 568 2 is_stmt 1 discriminator 1 view .LVU522
 569:Core/Src/test.c **** 	{
 570:Core/Src/test.c **** 		Draw_Window(xstart,ystart,xend,yend,"OK");
 2974              		.loc 1 570 3 discriminator 1 view .LVU523
 2975 0042 154B     		ldr	r3, .L96+12
 2976 0044 0093     		str	r3, [sp]
 2977 0046 2B46     		mov	r3, r5
 2978 0048 2246     		mov	r2, r4
 2979 004a 3146     		mov	r1, r6
 2980 004c 3846     		mov	r0, r7
 2981 004e FFF7FEFF 		bl	Draw_Window
 2982              	.LVL271:
ARM GAS  C:\Users\savao\AppData\Local\Temp\ccVfuo0d.s 			page 67


 571:Core/Src/test.c **** 		delay_ms(500);
 2983              		.loc 1 571 3 discriminator 1 view .LVU524
 2984 0052 4FF4FA70 		mov	r0, #500
 2985 0056 FFF7FEFF 		bl	delay_ms
 2986              	.LVL272:
 572:Core/Src/test.c **** 		delay_ms(500);
 2987              		.loc 1 572 3 discriminator 1 view .LVU525
 2988 005a 4FF4FA70 		mov	r0, #500
 2989 005e FFF7FEFF 		bl	delay_ms
 2990              	.LVL273:
 573:Core/Src/test.c **** 		xstart+=15;ystart+=15;xend-=30;yend-=30;
 2991              		.loc 1 573 3 discriminator 1 view .LVU526
 2992              		.loc 1 573 9 is_stmt 0 discriminator 1 view .LVU527
 2993 0062 0F37     		adds	r7, r7, #15
 2994              	.LVL274:
 2995              		.loc 1 573 9 discriminator 1 view .LVU528
 2996 0064 BFB2     		uxth	r7, r7
 2997              	.LVL275:
 2998              		.loc 1 573 14 is_stmt 1 discriminator 1 view .LVU529
 2999              		.loc 1 573 20 is_stmt 0 discriminator 1 view .LVU530
 3000 0066 0F36     		adds	r6, r6, #15
 3001              	.LVL276:
 3002              		.loc 1 573 20 discriminator 1 view .LVU531
 3003 0068 B6B2     		uxth	r6, r6
 3004              	.LVL277:
 3005              		.loc 1 573 25 is_stmt 1 discriminator 1 view .LVU532
 3006              		.loc 1 573 29 is_stmt 0 discriminator 1 view .LVU533
 3007 006a 1E3C     		subs	r4, r4, #30
 3008              	.LVL278:
 3009              		.loc 1 573 29 discriminator 1 view .LVU534
 3010 006c A4B2     		uxth	r4, r4
 3011              	.LVL279:
 3012              		.loc 1 573 34 is_stmt 1 discriminator 1 view .LVU535
 3013              		.loc 1 573 38 is_stmt 0 discriminator 1 view .LVU536
 3014 006e 1E3D     		subs	r5, r5, #30
 3015              	.LVL280:
 3016              		.loc 1 573 38 discriminator 1 view .LVU537
 3017 0070 ADB2     		uxth	r5, r5
 3018              	.LVL281:
 574:Core/Src/test.c **** 	}while(--i);
 3019              		.loc 1 574 8 is_stmt 1 discriminator 1 view .LVU538
 3020              		.loc 1 574 2 is_stmt 0 discriminator 1 view .LVU539
 3021 0072 08F1FF33 		add	r3, r8, #-1
 3022              	.LVL282:
 3023              		.loc 1 574 2 discriminator 1 view .LVU540
 3024 0076 13F0FF08 		ands	r8, r3, #255
 3025 007a E2D1     		bne	.L94
 575:Core/Src/test.c **** 	delay_ms(1500);
 3026              		.loc 1 575 2 is_stmt 1 view .LVU541
 3027 007c 40F2DC50 		movw	r0, #1500
 3028 0080 FFF7FEFF 		bl	delay_ms
 3029              	.LVL283:
 576:Core/Src/test.c **** }
 3030              		.loc 1 576 1 is_stmt 0 view .LVU542
 3031 0084 02B0     		add	sp, sp, #8
 3032              	.LCFI45:
 3033              		.cfi_def_cfa_offset 24
ARM GAS  C:\Users\savao\AppData\Local\Temp\ccVfuo0d.s 			page 68


 3034              		@ sp needed
 3035 0086 BDE8F081 		pop	{r4, r5, r6, r7, r8, pc}
 3036              	.LVL284:
 3037              	.L97:
 3038              		.loc 1 576 1 view .LVU543
 3039 008a 00BF     		.align	2
 3040              	.L96:
 3041 008c 00000000 		.word	lcddev
 3042 0090 56555555 		.word	1431655766
 3043 0094 00000000 		.word	.LC53
 3044 0098 20000000 		.word	.LC38
 3045              		.cfi_endproc
 3046              	.LFE148:
 3048              		.section	.rodata.Button_Test.str1.4,"aMS",%progbits,1
 3049              		.align	2
 3050              	.LC54:
 3051 0000 B2E2CAD4 		.ascii	"\262\342\312\32417:GUI Button\000"
 3051      31373A47 
 3051      55492042 
 3051      7574746F 
 3051      6E00
 3052 0012 0000     		.align	2
 3053              	.LC55:
 3054 0014 53656172 		.ascii	"Search\000"
 3054      636800
 3055 001b 00       		.align	2
 3056              	.LC56:
 3057 001c 4E657773 		.ascii	"News\000"
 3057      00
 3058 0021 000000   		.align	2
 3059              	.LC57:
 3060 0024 50696300 		.ascii	"Pic\000"
 3061              		.align	2
 3062              	.LC58:
 3063 0028 4C616265 		.ascii	"Label\000"
 3063      6C00
 3064 002e 0000     		.align	2
 3065              	.LC59:
 3066 0030 54686520 		.ascii	"The ARM Cortex-M is a group\000"
 3066      41524D20 
 3066      436F7274 
 3066      65782D4D 
 3066      20697320 
 3067              		.align	2
 3068              	.LC60:
 3069 004c 6F662033 		.ascii	"of 32-bit RISC ARM processor\000"
 3069      322D6269 
 3069      74205249 
 3069      53432041 
 3069      524D2070 
 3070 0069 000000   		.align	2
 3071              	.LC61:
 3072 006c 636F7265 		.ascii	"cores licensed by ARM Holdings.\000"
 3072      73206C69 
 3072      63656E73 
 3072      65642062 
 3072      79204152 
ARM GAS  C:\Users\savao\AppData\Local\Temp\ccVfuo0d.s 			page 69


 3073              		.align	2
 3074              	.LC62:
 3075 008c 54686520 		.ascii	"The cores are intended for \000"
 3075      636F7265 
 3075      73206172 
 3075      6520696E 
 3075      74656E64 
 3076              		.align	2
 3077              	.LC63:
 3078 00a8 6D696372 		.ascii	"microcontroller use,and consist\000"
 3078      6F636F6E 
 3078      74726F6C 
 3078      6C657220 
 3078      7573652C 
 3079              		.align	2
 3080              	.LC64:
 3081 00c8 6F662074 		.ascii	"of the Cortex-M0/M1/M2/M3/M4.\000"
 3081      68652043 
 3081      6F727465 
 3081      782D4D30 
 3081      2F4D312F 
 3082              		.section	.text.Button_Test,"ax",%progbits
 3083              		.align	1
 3084              		.global	Button_Test
 3085              		.syntax unified
 3086              		.thumb
 3087              		.thumb_func
 3088              		.fpu fpv4-sp-d16
 3090              	Button_Test:
 3091              	.LFB149:
 577:Core/Src/test.c **** 
 578:Core/Src/test.c **** /*****************************************************************************
 579:Core/Src/test.c ****  * @name       :void Button_Test(void)
 580:Core/Src/test.c ****  * @date       :2018-12-29 
 581:Core/Src/test.c ****  * @function   :Button test
 582:Core/Src/test.c ****  * @parameters :None
 583:Core/Src/test.c ****  * @retvalue   :None
 584:Core/Src/test.c **** ******************************************************************************/
 585:Core/Src/test.c **** void Button_Test(void)
 586:Core/Src/test.c **** {		  	
 3092              		.loc 1 586 1 is_stmt 1 view -0
 3093              		.cfi_startproc
 3094              		@ args = 0, pretend = 0, frame = 0
 3095              		@ frame_needed = 0, uses_anonymous_args = 0
 3096 0000 2DE9F04F 		push	{r4, r5, r6, r7, r8, r9, r10, fp, lr}
 3097              	.LCFI46:
 3098              		.cfi_def_cfa_offset 36
 3099              		.cfi_offset 4, -36
 3100              		.cfi_offset 5, -32
 3101              		.cfi_offset 6, -28
 3102              		.cfi_offset 7, -24
 3103              		.cfi_offset 8, -20
 3104              		.cfi_offset 9, -16
 3105              		.cfi_offset 10, -12
 3106              		.cfi_offset 11, -8
 3107              		.cfi_offset 14, -4
 3108 0004 85B0     		sub	sp, sp, #20
ARM GAS  C:\Users\savao\AppData\Local\Temp\ccVfuo0d.s 			page 70


 3109              	.LCFI47:
 3110              		.cfi_def_cfa_offset 56
 587:Core/Src/test.c **** 	DrawTestPage("测试17:GUI Button");
 3111              		.loc 1 587 2 view .LVU545
 3112 0006 C048     		ldr	r0, .L100
 3113 0008 FFF7FEFF 		bl	DrawTestPage
 3114              	.LVL285:
 588:Core/Src/test.c **** 	LCD_Fill(0,20,lcddev.width-1,lcddev.height-20,WHITE);
 3115              		.loc 1 588 2 view .LVU546
 3116              		.loc 1 588 22 is_stmt 0 view .LVU547
 3117 000c BF4B     		ldr	r3, .L100+4
 3118 000e 9A88     		ldrh	r2, [r3, #4]
 3119              		.loc 1 588 37 view .LVU548
 3120 0010 DB88     		ldrh	r3, [r3, #6]
 3121              		.loc 1 588 2 view .LVU549
 3122 0012 143B     		subs	r3, r3, #20
 3123 0014 013A     		subs	r2, r2, #1
 3124 0016 4FF6FF7B 		movw	fp, #65535
 3125 001a CDF800B0 		str	fp, [sp]
 3126 001e 9BB2     		uxth	r3, r3
 3127 0020 92B2     		uxth	r2, r2
 3128 0022 1421     		movs	r1, #20
 3129 0024 0020     		movs	r0, #0
 3130 0026 FFF7FEFF 		bl	LCD_Fill
 3131              	.LVL286:
 589:Core/Src/test.c **** 	Draw_TextBox(30, 60, 170, 90);	 // 显示一个文字输入框
 3132              		.loc 1 589 2 is_stmt 1 view .LVU550
 3133 002a 5A23     		movs	r3, #90
 3134 002c AA22     		movs	r2, #170
 3135 002e 3C21     		movs	r1, #60
 3136 0030 1E20     		movs	r0, #30
 3137 0032 FFF7FEFF 		bl	Draw_TextBox
 3138              	.LVL287:
 590:Core/Src/test.c **** 	Draw_Button(180, 60, 235, 90);			 // 显示1个按钮
 3139              		.loc 1 590 2 view .LVU551
 3140 0036 5A23     		movs	r3, #90
 3141 0038 EB22     		movs	r2, #235
 3142 003a 3C21     		movs	r1, #60
 3143 003c B420     		movs	r0, #180
 3144 003e FFF7FEFF 		bl	Draw_Button
 3145              	.LVL288:
 591:Core/Src/test.c **** 	POINT_COLOR = BLACK;
 3146              		.loc 1 591 2 view .LVU552
 3147              		.loc 1 591 14 is_stmt 0 view .LVU553
 3148 0042 B34C     		ldr	r4, .L100+8
 3149 0044 4FF00009 		mov	r9, #0
 3150 0048 A4F80090 		strh	r9, [r4]	@ movhi
 592:Core/Src/test.c **** 	BACK_COLOR = LGRAY;
 3151              		.loc 1 592 2 is_stmt 1 view .LVU554
 3152              		.loc 1 592 13 is_stmt 0 view .LVU555
 3153 004c B14D     		ldr	r5, .L100+12
 3154 004e 4CF2186A 		movw	r10, #50712
 3155 0052 A5F800A0 		strh	r10, [r5]	@ movhi
 593:Core/Src/test.c **** 	Show_Str(184,67,POINT_COLOR,BACK_COLOR,"Search",16,1);
 3156              		.loc 1 593 2 is_stmt 1 view .LVU556
 3157 0056 0127     		movs	r7, #1
 3158 0058 0297     		str	r7, [sp, #8]
ARM GAS  C:\Users\savao\AppData\Local\Temp\ccVfuo0d.s 			page 71


 3159 005a 1026     		movs	r6, #16
 3160 005c 0196     		str	r6, [sp, #4]
 3161 005e AE4B     		ldr	r3, .L100+16
 3162 0060 0093     		str	r3, [sp]
 3163 0062 5346     		mov	r3, r10
 3164 0064 4A46     		mov	r2, r9
 3165 0066 4321     		movs	r1, #67
 3166 0068 B820     		movs	r0, #184
 3167 006a FFF7FEFF 		bl	Show_Str
 3168              	.LVL289:
 594:Core/Src/test.c **** 
 595:Core/Src/test.c **** 	
 596:Core/Src/test.c **** 	POINT_COLOR = BLUE;
 3169              		.loc 1 596 2 view .LVU557
 3170              		.loc 1 596 14 is_stmt 0 view .LVU558
 3171 006e 1F22     		movs	r2, #31
 3172 0070 2280     		strh	r2, [r4]	@ movhi
 597:Core/Src/test.c **** 	BACK_COLOR = WHITE;
 3173              		.loc 1 597 2 is_stmt 1 view .LVU559
 3174              		.loc 1 597 13 is_stmt 0 view .LVU560
 3175 0072 A5F800B0 		strh	fp, [r5]	@ movhi
 598:Core/Src/test.c **** 	Show_Str(30,38,POINT_COLOR,BACK_COLOR,"News",16,1);
 3176              		.loc 1 598 2 is_stmt 1 view .LVU561
 3177 0076 0297     		str	r7, [sp, #8]
 3178 0078 0196     		str	r6, [sp, #4]
 3179 007a A84B     		ldr	r3, .L100+20
 3180 007c 0093     		str	r3, [sp]
 3181 007e 5B46     		mov	r3, fp
 3182 0080 2621     		movs	r1, #38
 3183 0082 1E20     		movs	r0, #30
 3184 0084 FFF7FEFF 		bl	Show_Str
 3185              	.LVL290:
 599:Core/Src/test.c **** 	LCD_DrawLine(30,55,62,55);
 3186              		.loc 1 599 2 view .LVU562
 3187 0088 3723     		movs	r3, #55
 3188 008a 3E22     		movs	r2, #62
 3189 008c 1946     		mov	r1, r3
 3190 008e 1E20     		movs	r0, #30
 3191 0090 FFF7FEFF 		bl	LCD_DrawLine
 3192              	.LVL291:
 600:Core/Src/test.c **** 	Show_Str(118,38,POINT_COLOR,BACK_COLOR,"Pic",16,1);
 3193              		.loc 1 600 2 view .LVU563
 3194 0094 0297     		str	r7, [sp, #8]
 3195 0096 0196     		str	r6, [sp, #4]
 3196 0098 A14B     		ldr	r3, .L100+24
 3197 009a 0093     		str	r3, [sp]
 3198 009c 2B88     		ldrh	r3, [r5]
 3199 009e 2288     		ldrh	r2, [r4]
 3200 00a0 2621     		movs	r1, #38
 3201 00a2 7620     		movs	r0, #118
 3202 00a4 FFF7FEFF 		bl	Show_Str
 3203              	.LVL292:
 601:Core/Src/test.c **** 	LCD_DrawLine(118,55,150,55);
 3204              		.loc 1 601 2 view .LVU564
 3205 00a8 3723     		movs	r3, #55
 3206 00aa 9622     		movs	r2, #150
 3207 00ac 1946     		mov	r1, r3
ARM GAS  C:\Users\savao\AppData\Local\Temp\ccVfuo0d.s 			page 72


 3208 00ae 7620     		movs	r0, #118
 3209 00b0 FFF7FEFF 		bl	LCD_DrawLine
 3210              	.LVL293:
 602:Core/Src/test.c **** 	POINT_COLOR = BLACK;
 3211              		.loc 1 602 2 view .LVU565
 3212              		.loc 1 602 14 is_stmt 0 view .LVU566
 3213 00b4 A4F80090 		strh	r9, [r4]	@ movhi
 603:Core/Src/test.c **** 	Show_Str(70,38,POINT_COLOR,BACK_COLOR,"Label",16,1);
 3214              		.loc 1 603 2 is_stmt 1 view .LVU567
 3215 00b8 0297     		str	r7, [sp, #8]
 3216 00ba 0196     		str	r6, [sp, #4]
 3217 00bc 994B     		ldr	r3, .L100+28
 3218 00be 0093     		str	r3, [sp]
 3219 00c0 2B88     		ldrh	r3, [r5]
 3220 00c2 4A46     		mov	r2, r9
 3221 00c4 2621     		movs	r1, #38
 3222 00c6 4620     		movs	r0, #70
 3223 00c8 FFF7FEFF 		bl	Show_Str
 3224              	.LVL294:
 604:Core/Src/test.c **** 	delay_ms(500);
 3225              		.loc 1 604 2 view .LVU568
 3226 00cc 4FF4FA70 		mov	r0, #500
 3227 00d0 FFF7FEFF 		bl	delay_ms
 3228              	.LVL295:
 605:Core/Src/test.c **** 	delay_ms(500);
 3229              		.loc 1 605 2 view .LVU569
 3230 00d4 4FF4FA70 		mov	r0, #500
 3231 00d8 FFF7FEFF 		bl	delay_ms
 3232              	.LVL296:
 606:Core/Src/test.c **** 	delay_ms(500);
 3233              		.loc 1 606 2 view .LVU570
 3234 00dc 4FF4FA70 		mov	r0, #500
 3235 00e0 FFF7FEFF 		bl	delay_ms
 3236              	.LVL297:
 607:Core/Src/test.c **** 	
 608:Core/Src/test.c **** 	LCD_ShowChar(35, 67, POINT_COLOR,BACK_COLOR,'C',16,1);
 3237              		.loc 1 608 2 view .LVU571
 3238 00e4 0297     		str	r7, [sp, #8]
 3239 00e6 0196     		str	r6, [sp, #4]
 3240 00e8 4FF04308 		mov	r8, #67
 3241 00ec CDF80080 		str	r8, [sp]
 3242 00f0 2B88     		ldrh	r3, [r5]
 3243 00f2 2288     		ldrh	r2, [r4]
 3244 00f4 4146     		mov	r1, r8
 3245 00f6 2320     		movs	r0, #35
 3246 00f8 FFF7FEFF 		bl	LCD_ShowChar
 3247              	.LVL298:
 609:Core/Src/test.c **** 	delay_ms(500);
 3248              		.loc 1 609 2 view .LVU572
 3249 00fc 4FF4FA70 		mov	r0, #500
 3250 0100 FFF7FEFF 		bl	delay_ms
 3251              	.LVL299:
 610:Core/Src/test.c **** 	LCD_ShowChar(43, 67, POINT_COLOR,BACK_COLOR,'o',16,1);
 3252              		.loc 1 610 2 view .LVU573
 3253 0104 0297     		str	r7, [sp, #8]
 3254 0106 0196     		str	r6, [sp, #4]
 3255 0108 6F23     		movs	r3, #111
ARM GAS  C:\Users\savao\AppData\Local\Temp\ccVfuo0d.s 			page 73


 3256 010a 0093     		str	r3, [sp]
 3257 010c 2B88     		ldrh	r3, [r5]
 3258 010e 2288     		ldrh	r2, [r4]
 3259 0110 4146     		mov	r1, r8
 3260 0112 2B20     		movs	r0, #43
 3261 0114 FFF7FEFF 		bl	LCD_ShowChar
 3262              	.LVL300:
 611:Core/Src/test.c **** 	delay_ms(500);
 3263              		.loc 1 611 2 view .LVU574
 3264 0118 4FF4FA70 		mov	r0, #500
 3265 011c FFF7FEFF 		bl	delay_ms
 3266              	.LVL301:
 612:Core/Src/test.c **** 	LCD_ShowChar(51, 67, POINT_COLOR,BACK_COLOR,'r',16,1);
 3267              		.loc 1 612 2 view .LVU575
 3268 0120 0297     		str	r7, [sp, #8]
 3269 0122 0196     		str	r6, [sp, #4]
 3270 0124 7223     		movs	r3, #114
 3271 0126 0093     		str	r3, [sp]
 3272 0128 2B88     		ldrh	r3, [r5]
 3273 012a 2288     		ldrh	r2, [r4]
 3274 012c 4146     		mov	r1, r8
 3275 012e 3320     		movs	r0, #51
 3276 0130 FFF7FEFF 		bl	LCD_ShowChar
 3277              	.LVL302:
 613:Core/Src/test.c **** 	delay_ms(500);
 3278              		.loc 1 613 2 view .LVU576
 3279 0134 4FF4FA70 		mov	r0, #500
 3280 0138 FFF7FEFF 		bl	delay_ms
 3281              	.LVL303:
 614:Core/Src/test.c **** 	LCD_ShowChar(58, 67, POINT_COLOR,BACK_COLOR,'t',16,1);
 3282              		.loc 1 614 2 view .LVU577
 3283 013c 0297     		str	r7, [sp, #8]
 3284 013e 0196     		str	r6, [sp, #4]
 3285 0140 7423     		movs	r3, #116
 3286 0142 0093     		str	r3, [sp]
 3287 0144 2B88     		ldrh	r3, [r5]
 3288 0146 2288     		ldrh	r2, [r4]
 3289 0148 4146     		mov	r1, r8
 3290 014a 3A20     		movs	r0, #58
 3291 014c FFF7FEFF 		bl	LCD_ShowChar
 3292              	.LVL304:
 615:Core/Src/test.c **** 	delay_ms(500);
 3293              		.loc 1 615 2 view .LVU578
 3294 0150 4FF4FA70 		mov	r0, #500
 3295 0154 FFF7FEFF 		bl	delay_ms
 3296              	.LVL305:
 616:Core/Src/test.c **** 	LCD_ShowChar(66, 67, POINT_COLOR,BACK_COLOR,'e',16,1);
 3297              		.loc 1 616 2 view .LVU579
 3298 0158 0297     		str	r7, [sp, #8]
 3299 015a 0196     		str	r6, [sp, #4]
 3300 015c 6523     		movs	r3, #101
 3301 015e 0093     		str	r3, [sp]
 3302 0160 2B88     		ldrh	r3, [r5]
 3303 0162 2288     		ldrh	r2, [r4]
 3304 0164 4146     		mov	r1, r8
 3305 0166 4220     		movs	r0, #66
 3306 0168 FFF7FEFF 		bl	LCD_ShowChar
ARM GAS  C:\Users\savao\AppData\Local\Temp\ccVfuo0d.s 			page 74


 3307              	.LVL306:
 617:Core/Src/test.c **** 	delay_ms(500);
 3308              		.loc 1 617 2 view .LVU580
 3309 016c 4FF4FA70 		mov	r0, #500
 3310 0170 FFF7FEFF 		bl	delay_ms
 3311              	.LVL307:
 618:Core/Src/test.c **** 	LCD_ShowChar(74, 67, POINT_COLOR,BACK_COLOR,'x',16,1);
 3312              		.loc 1 618 2 view .LVU581
 3313 0174 0297     		str	r7, [sp, #8]
 3314 0176 0196     		str	r6, [sp, #4]
 3315 0178 7822     		movs	r2, #120
 3316 017a 0092     		str	r2, [sp]
 3317 017c 2B88     		ldrh	r3, [r5]
 3318 017e 2288     		ldrh	r2, [r4]
 3319 0180 4146     		mov	r1, r8
 3320 0182 4A20     		movs	r0, #74
 3321 0184 FFF7FEFF 		bl	LCD_ShowChar
 3322              	.LVL308:
 619:Core/Src/test.c **** 	delay_ms(500);
 3323              		.loc 1 619 2 view .LVU582
 3324 0188 4FF4FA70 		mov	r0, #500
 3325 018c FFF7FEFF 		bl	delay_ms
 3326              	.LVL309:
 620:Core/Src/test.c **** 	LCD_ShowChar(82, 67, POINT_COLOR,BACK_COLOR,'-',16,1);
 3327              		.loc 1 620 2 view .LVU583
 3328 0190 0297     		str	r7, [sp, #8]
 3329 0192 0196     		str	r6, [sp, #4]
 3330 0194 2D23     		movs	r3, #45
 3331 0196 0093     		str	r3, [sp]
 3332 0198 2B88     		ldrh	r3, [r5]
 3333 019a 2288     		ldrh	r2, [r4]
 3334 019c 4146     		mov	r1, r8
 3335 019e 5220     		movs	r0, #82
 3336 01a0 FFF7FEFF 		bl	LCD_ShowChar
 3337              	.LVL310:
 621:Core/Src/test.c **** 	delay_ms(500);
 3338              		.loc 1 621 2 view .LVU584
 3339 01a4 4FF4FA70 		mov	r0, #500
 3340 01a8 FFF7FEFF 		bl	delay_ms
 3341              	.LVL311:
 622:Core/Src/test.c **** 	LCD_ShowChar(88, 67, POINT_COLOR,BACK_COLOR,'M',16,1);
 3342              		.loc 1 622 2 view .LVU585
 3343 01ac 0297     		str	r7, [sp, #8]
 3344 01ae 0196     		str	r6, [sp, #4]
 3345 01b0 4D23     		movs	r3, #77
 3346 01b2 0093     		str	r3, [sp]
 3347 01b4 2B88     		ldrh	r3, [r5]
 3348 01b6 2288     		ldrh	r2, [r4]
 3349 01b8 4146     		mov	r1, r8
 3350 01ba 5820     		movs	r0, #88
 3351 01bc FFF7FEFF 		bl	LCD_ShowChar
 3352              	.LVL312:
 623:Core/Src/test.c **** 	delay_ms(500);
 3353              		.loc 1 623 2 view .LVU586
 3354 01c0 4FF4FA70 		mov	r0, #500
 3355 01c4 FFF7FEFF 		bl	delay_ms
 3356              	.LVL313:
ARM GAS  C:\Users\savao\AppData\Local\Temp\ccVfuo0d.s 			page 75


 624:Core/Src/test.c **** 
 625:Core/Src/test.c **** 
 626:Core/Src/test.c **** 	SetButton(180, 60, 235, 90);			 // 按下“搜索”按钮
 3357              		.loc 1 626 2 view .LVU587
 3358 01c8 5A23     		movs	r3, #90
 3359 01ca EB22     		movs	r2, #235
 3360 01cc 3C21     		movs	r1, #60
 3361 01ce B420     		movs	r0, #180
 3362 01d0 FFF7FEFF 		bl	SetButton
 3363              	.LVL314:
 627:Core/Src/test.c **** 	POINT_COLOR = BLACK;
 3364              		.loc 1 627 2 view .LVU588
 3365              		.loc 1 627 14 is_stmt 0 view .LVU589
 3366 01d4 A4F80090 		strh	r9, [r4]	@ movhi
 628:Core/Src/test.c **** 	BACK_COLOR = LGRAY;
 3367              		.loc 1 628 2 is_stmt 1 view .LVU590
 3368              		.loc 1 628 13 is_stmt 0 view .LVU591
 3369 01d8 A5F800A0 		strh	r10, [r5]	@ movhi
 629:Core/Src/test.c **** 	Show_Str(184,67,POINT_COLOR,BACK_COLOR,"Search",16,1);
 3370              		.loc 1 629 2 is_stmt 1 view .LVU592
 3371 01dc 0297     		str	r7, [sp, #8]
 3372 01de 0196     		str	r6, [sp, #4]
 3373 01e0 4D4B     		ldr	r3, .L100+16
 3374 01e2 0093     		str	r3, [sp]
 3375 01e4 5346     		mov	r3, r10
 3376 01e6 4A46     		mov	r2, r9
 3377 01e8 4146     		mov	r1, r8
 3378 01ea B820     		movs	r0, #184
 3379 01ec FFF7FEFF 		bl	Show_Str
 3380              	.LVL315:
 630:Core/Src/test.c **** 	delay_ms(500);
 3381              		.loc 1 630 2 view .LVU593
 3382 01f0 4FF4FA70 		mov	r0, #500
 3383 01f4 FFF7FEFF 		bl	delay_ms
 3384              	.LVL316:
 631:Core/Src/test.c **** 
 632:Core/Src/test.c **** 	EscButton(180, 60, 235, 90);			 // 放开“搜索”按钮
 3385              		.loc 1 632 2 view .LVU594
 3386 01f8 5A23     		movs	r3, #90
 3387 01fa EB22     		movs	r2, #235
 3388 01fc 3C21     		movs	r1, #60
 3389 01fe B420     		movs	r0, #180
 3390 0200 FFF7FEFF 		bl	EscButton
 3391              	.LVL317:
 633:Core/Src/test.c **** 	POINT_COLOR = BLACK;
 3392              		.loc 1 633 2 view .LVU595
 3393              		.loc 1 633 14 is_stmt 0 view .LVU596
 3394 0204 A4F80090 		strh	r9, [r4]	@ movhi
 634:Core/Src/test.c **** 	BACK_COLOR = LGRAY;
 3395              		.loc 1 634 2 is_stmt 1 view .LVU597
 3396              		.loc 1 634 13 is_stmt 0 view .LVU598
 3397 0208 A5F800A0 		strh	r10, [r5]	@ movhi
 635:Core/Src/test.c **** 	Show_Str(184,67,POINT_COLOR,BACK_COLOR,"Search",16,1);
 3398              		.loc 1 635 2 is_stmt 1 view .LVU599
 3399 020c 0297     		str	r7, [sp, #8]
 3400 020e 0196     		str	r6, [sp, #4]
 3401 0210 414B     		ldr	r3, .L100+16
ARM GAS  C:\Users\savao\AppData\Local\Temp\ccVfuo0d.s 			page 76


 3402 0212 0093     		str	r3, [sp]
 3403 0214 5346     		mov	r3, r10
 3404 0216 4A46     		mov	r2, r9
 3405 0218 4146     		mov	r1, r8
 3406 021a B820     		movs	r0, #184
 3407 021c FFF7FEFF 		bl	Show_Str
 3408              	.LVL318:
 636:Core/Src/test.c **** 	POINT_COLOR = RED;
 3409              		.loc 1 636 2 view .LVU600
 3410              		.loc 1 636 14 is_stmt 0 view .LVU601
 3411 0220 4FF47842 		mov	r2, #63488
 3412 0224 2280     		strh	r2, [r4]	@ movhi
 637:Core/Src/test.c **** 	BACK_COLOR = WHITE;		 
 3413              		.loc 1 637 2 is_stmt 1 view .LVU602
 3414              		.loc 1 637 13 is_stmt 0 view .LVU603
 3415 0226 A5F800B0 		strh	fp, [r5]	@ movhi
 638:Core/Src/test.c **** 	Show_Str(12,100,POINT_COLOR,BACK_COLOR,"The ARM Cortex-M is a group",16,1 );
 3416              		.loc 1 638 2 is_stmt 1 view .LVU604
 3417 022a 0297     		str	r7, [sp, #8]
 3418 022c 0196     		str	r6, [sp, #4]
 3419 022e 3E4B     		ldr	r3, .L100+32
 3420 0230 0093     		str	r3, [sp]
 3421 0232 5B46     		mov	r3, fp
 3422 0234 6421     		movs	r1, #100
 3423 0236 0C20     		movs	r0, #12
 3424 0238 FFF7FEFF 		bl	Show_Str
 3425              	.LVL319:
 639:Core/Src/test.c **** 	Show_Str(12,120,POINT_COLOR,BACK_COLOR,"of 32-bit RISC ARM processor",16,1 );
 3426              		.loc 1 639 2 view .LVU605
 3427 023c 0297     		str	r7, [sp, #8]
 3428 023e 0196     		str	r6, [sp, #4]
 3429 0240 3A4B     		ldr	r3, .L100+36
 3430 0242 0093     		str	r3, [sp]
 3431 0244 2B88     		ldrh	r3, [r5]
 3432 0246 2288     		ldrh	r2, [r4]
 3433 0248 7821     		movs	r1, #120
 3434 024a 0C20     		movs	r0, #12
 3435 024c FFF7FEFF 		bl	Show_Str
 3436              	.LVL320:
 640:Core/Src/test.c **** 	Show_Str(12,140,POINT_COLOR,BACK_COLOR,"cores licensed by ARM Holdings.",16,1 );
 3437              		.loc 1 640 2 view .LVU606
 3438 0250 0297     		str	r7, [sp, #8]
 3439 0252 0196     		str	r6, [sp, #4]
 3440 0254 364B     		ldr	r3, .L100+40
 3441 0256 0093     		str	r3, [sp]
 3442 0258 2B88     		ldrh	r3, [r5]
 3443 025a 2288     		ldrh	r2, [r4]
 3444 025c 8C21     		movs	r1, #140
 3445 025e 0C20     		movs	r0, #12
 3446 0260 FFF7FEFF 		bl	Show_Str
 3447              	.LVL321:
 641:Core/Src/test.c **** 	Show_Str(12,160,POINT_COLOR,BACK_COLOR,"The cores are intended for ",16,1 );
 3448              		.loc 1 641 2 view .LVU607
 3449 0264 0297     		str	r7, [sp, #8]
 3450 0266 0196     		str	r6, [sp, #4]
 3451 0268 324B     		ldr	r3, .L100+44
 3452 026a 0093     		str	r3, [sp]
ARM GAS  C:\Users\savao\AppData\Local\Temp\ccVfuo0d.s 			page 77


 3453 026c 2B88     		ldrh	r3, [r5]
 3454 026e 2288     		ldrh	r2, [r4]
 3455 0270 A021     		movs	r1, #160
 3456 0272 0C20     		movs	r0, #12
 3457 0274 FFF7FEFF 		bl	Show_Str
 3458              	.LVL322:
 642:Core/Src/test.c **** 	Show_Str(12,180,POINT_COLOR,BACK_COLOR,"microcontroller use,and consist",16,1);
 3459              		.loc 1 642 2 view .LVU608
 3460 0278 0297     		str	r7, [sp, #8]
 3461 027a 0196     		str	r6, [sp, #4]
 3462 027c 2E4B     		ldr	r3, .L100+48
 3463 027e 0093     		str	r3, [sp]
 3464 0280 2B88     		ldrh	r3, [r5]
 3465 0282 2288     		ldrh	r2, [r4]
 3466 0284 B421     		movs	r1, #180
 3467 0286 0C20     		movs	r0, #12
 3468 0288 FFF7FEFF 		bl	Show_Str
 3469              	.LVL323:
 643:Core/Src/test.c **** 	Show_Str(12,200,POINT_COLOR,BACK_COLOR,"of the Cortex-M0/M1/M2/M3/M4.",16,1);
 3470              		.loc 1 643 2 view .LVU609
 3471 028c 0297     		str	r7, [sp, #8]
 3472 028e 0196     		str	r6, [sp, #4]
 3473 0290 2A4B     		ldr	r3, .L100+52
 3474 0292 0093     		str	r3, [sp]
 3475 0294 2B88     		ldrh	r3, [r5]
 3476 0296 2288     		ldrh	r2, [r4]
 3477 0298 C821     		movs	r1, #200
 3478 029a 0C20     		movs	r0, #12
 3479 029c FFF7FEFF 		bl	Show_Str
 3480              	.LVL324:
 644:Core/Src/test.c **** 	delay_ms(500);
 3481              		.loc 1 644 2 view .LVU610
 3482 02a0 4FF4FA70 		mov	r0, #500
 3483 02a4 FFF7FEFF 		bl	delay_ms
 3484              	.LVL325:
 645:Core/Src/test.c **** 	delay_ms(500);
 3485              		.loc 1 645 2 view .LVU611
 3486 02a8 4FF4FA70 		mov	r0, #500
 3487 02ac FFF7FEFF 		bl	delay_ms
 3488              	.LVL326:
 646:Core/Src/test.c **** 	delay_ms(500);
 3489              		.loc 1 646 2 view .LVU612
 3490 02b0 4FF4FA70 		mov	r0, #500
 3491 02b4 FFF7FEFF 		bl	delay_ms
 3492              	.LVL327:
 647:Core/Src/test.c **** 	delay_ms(500);
 3493              		.loc 1 647 2 view .LVU613
 3494 02b8 4FF4FA70 		mov	r0, #500
 3495 02bc FFF7FEFF 		bl	delay_ms
 3496              	.LVL328:
 648:Core/Src/test.c **** 	delay_ms(500);
 3497              		.loc 1 648 2 view .LVU614
 3498 02c0 4FF4FA70 		mov	r0, #500
 3499 02c4 FFF7FEFF 		bl	delay_ms
 3500              	.LVL329:
 649:Core/Src/test.c **** 	delay_ms(500);
 3501              		.loc 1 649 2 view .LVU615
ARM GAS  C:\Users\savao\AppData\Local\Temp\ccVfuo0d.s 			page 78


 3502 02c8 4FF4FA70 		mov	r0, #500
 3503 02cc FFF7FEFF 		bl	delay_ms
 3504              	.LVL330:
 650:Core/Src/test.c **** 	delay_ms(500);
 3505              		.loc 1 650 2 view .LVU616
 3506 02d0 4FF4FA70 		mov	r0, #500
 3507 02d4 FFF7FEFF 		bl	delay_ms
 3508              	.LVL331:
 651:Core/Src/test.c **** 	delay_ms(500);
 3509              		.loc 1 651 2 view .LVU617
 3510 02d8 4FF4FA70 		mov	r0, #500
 3511 02dc FFF7FEFF 		bl	delay_ms
 3512              	.LVL332:
 652:Core/Src/test.c **** 	delay_ms(500);
 3513              		.loc 1 652 2 view .LVU618
 3514 02e0 4FF4FA70 		mov	r0, #500
 3515 02e4 FFF7FEFF 		bl	delay_ms
 3516              	.LVL333:
 653:Core/Src/test.c **** 	delay_ms(500);
 3517              		.loc 1 653 2 view .LVU619
 3518 02e8 4FF4FA70 		mov	r0, #500
 3519 02ec FFF7FEFF 		bl	delay_ms
 3520              	.LVL334:
 654:Core/Src/test.c **** 	delay_ms(500);
 3521              		.loc 1 654 2 view .LVU620
 3522 02f0 4FF4FA70 		mov	r0, #500
 3523 02f4 FFF7FEFF 		bl	delay_ms
 3524              	.LVL335:
 655:Core/Src/test.c **** 	delay_ms(500);
 3525              		.loc 1 655 2 view .LVU621
 3526 02f8 4FF4FA70 		mov	r0, #500
 3527 02fc FFF7FEFF 		bl	delay_ms
 3528              	.LVL336:
 656:Core/Src/test.c **** }
 3529              		.loc 1 656 1 is_stmt 0 view .LVU622
 3530 0300 05B0     		add	sp, sp, #20
 3531              	.LCFI48:
 3532              		.cfi_def_cfa_offset 36
 3533              		@ sp needed
 3534 0302 BDE8F08F 		pop	{r4, r5, r6, r7, r8, r9, r10, fp, pc}
 3535              	.L101:
 3536 0306 00BF     		.align	2
 3537              	.L100:
 3538 0308 00000000 		.word	.LC54
 3539 030c 00000000 		.word	lcddev
 3540 0310 00000000 		.word	POINT_COLOR
 3541 0314 00000000 		.word	BACK_COLOR
 3542 0318 14000000 		.word	.LC55
 3543 031c 1C000000 		.word	.LC56
 3544 0320 24000000 		.word	.LC57
 3545 0324 28000000 		.word	.LC58
 3546 0328 30000000 		.word	.LC59
 3547 032c 4C000000 		.word	.LC60
 3548 0330 6C000000 		.word	.LC61
 3549 0334 8C000000 		.word	.LC62
 3550 0338 A8000000 		.word	.LC63
 3551 033c C8000000 		.word	.LC64
ARM GAS  C:\Users\savao\AppData\Local\Temp\ccVfuo0d.s 			page 79


 3552              		.cfi_endproc
 3553              	.LFE149:
 3555              		.section	.rodata.Test_Dynamic_Num.str1.4,"aMS",%progbits,1
 3556              		.align	2
 3557              	.LC65:
 3558 0000 B2E2CAD4 		.ascii	"\262\342\312\3249:\266\257\314\254\312\375\327\326\317"
 3558      393AB6AF 
 3558      CCACCAFD 
 3558      D7D6CF
 3559 000f D4CABE00 		.ascii	"\324\312\276\000"
 3560 0013 00       		.align	2
 3561              	.LC66:
 3562 0014 20484348 		.ascii	" HCHO:           ug/m3\000"
 3562      4F3A2020 
 3562      20202020 
 3562      20202020 
 3562      2075672F 
 3563 002b 00       		.align	2
 3564              	.LC67:
 3565 002c 2020434F 		.ascii	"  CO2:           ppm\000"
 3565      323A2020 
 3565      20202020 
 3565      20202020 
 3565      2070706D 
 3566 0041 000000   		.align	2
 3567              	.LC68:
 3568 0044 2054564F 		.ascii	" TVOC:           ug/m3\000"
 3568      433A2020 
 3568      20202020 
 3568      20202020 
 3568      2075672F 
 3569 005b 00       		.align	2
 3570              	.LC69:
 3571 005c 504D322E 		.ascii	"PM2.5:           ug/m3\000"
 3571      353A2020 
 3571      20202020 
 3571      20202020 
 3571      2075672F 
 3572 0073 00       		.align	2
 3573              	.LC70:
 3574 0074 20504D31 		.ascii	" PM10:           ug/m3\000"
 3574      303A2020 
 3574      20202020 
 3574      20202020 
 3574      2075672F 
 3575 008b 00       		.align	2
 3576              	.LC71:
 3577 008c 20205445 		.ascii	"  TEP:           C\000"
 3577      503A2020 
 3577      20202020 
 3577      20202020 
 3577      204300
 3578 009f 00       		.align	2
 3579              	.LC72:
 3580 00a0 20204855 		.ascii	"  HUM:           %\000"
 3580      4D3A2020 
 3580      20202020 
ARM GAS  C:\Users\savao\AppData\Local\Temp\ccVfuo0d.s 			page 80


 3580      20202020 
 3580      202500
 3581              		.section	.text.Test_Dynamic_Num,"ax",%progbits
 3582              		.align	1
 3583              		.global	Test_Dynamic_Num
 3584              		.syntax unified
 3585              		.thumb
 3586              		.thumb_func
 3587              		.fpu fpv4-sp-d16
 3589              	Test_Dynamic_Num:
 3590              	.LFB150:
 657:Core/Src/test.c **** 
 658:Core/Src/test.c **** /*****************************************************************************
 659:Core/Src/test.c ****  * @name       :void Test_Dynamic_Num(void)
 660:Core/Src/test.c ****  * @date       :2018-11-13 
 661:Core/Src/test.c ****  * @function   :Dynamic number test
 662:Core/Src/test.c ****  * @parameters :None
 663:Core/Src/test.c ****  * @retvalue   :None
 664:Core/Src/test.c **** ******************************************************************************/
 665:Core/Src/test.c **** void Test_Dynamic_Num(void)
 666:Core/Src/test.c **** {
 3591              		.loc 1 666 1 is_stmt 1 view -0
 3592              		.cfi_startproc
 3593              		@ args = 0, pretend = 0, frame = 0
 3594              		@ frame_needed = 0, uses_anonymous_args = 0
 3595 0000 F0B5     		push	{r4, r5, r6, r7, lr}
 3596              	.LCFI49:
 3597              		.cfi_def_cfa_offset 20
 3598              		.cfi_offset 4, -20
 3599              		.cfi_offset 5, -16
 3600              		.cfi_offset 6, -12
 3601              		.cfi_offset 7, -8
 3602              		.cfi_offset 14, -4
 3603 0002 83B0     		sub	sp, sp, #12
 3604              	.LCFI50:
 3605              		.cfi_def_cfa_offset 32
 667:Core/Src/test.c **** 		u8 i;
 3606              		.loc 1 667 3 view .LVU624
 668:Core/Src/test.c **** 	DrawTestPage("测试9:动态数字显示");
 3607              		.loc 1 668 2 view .LVU625
 3608 0004 5C48     		ldr	r0, .L106
 3609 0006 FFF7FEFF 		bl	DrawTestPage
 3610              	.LVL337:
 669:Core/Src/test.c **** 	POINT_COLOR=BLUE;
 3611              		.loc 1 669 2 view .LVU626
 3612              		.loc 1 669 13 is_stmt 0 view .LVU627
 3613 000a 5C4D     		ldr	r5, .L106+4
 3614 000c 1F23     		movs	r3, #31
 3615 000e 2B80     		strh	r3, [r5]	@ movhi
 670:Core/Src/test.c **** 	srand(123456);
 3616              		.loc 1 670 2 is_stmt 1 view .LVU628
 3617 0010 5B48     		ldr	r0, .L106+8
 3618 0012 FFF7FEFF 		bl	srand
 3619              	.LVL338:
 671:Core/Src/test.c **** 	LCD_ShowString(15,50,16, " HCHO:           ug/m3",1);
 3620              		.loc 1 671 2 view .LVU629
 3621 0016 0124     		movs	r4, #1
ARM GAS  C:\Users\savao\AppData\Local\Temp\ccVfuo0d.s 			page 81


 3622 0018 0094     		str	r4, [sp]
 3623 001a 5A4B     		ldr	r3, .L106+12
 3624 001c 1022     		movs	r2, #16
 3625 001e 3221     		movs	r1, #50
 3626 0020 0F20     		movs	r0, #15
 3627 0022 FFF7FEFF 		bl	LCD_ShowString
 3628              	.LVL339:
 672:Core/Src/test.c **** 	LCD_ShowString(15,70,16, "  CO2:           ppm",1);
 3629              		.loc 1 672 2 view .LVU630
 3630 0026 0094     		str	r4, [sp]
 3631 0028 574B     		ldr	r3, .L106+16
 3632 002a 1022     		movs	r2, #16
 3633 002c 4621     		movs	r1, #70
 3634 002e 0F20     		movs	r0, #15
 3635 0030 FFF7FEFF 		bl	LCD_ShowString
 3636              	.LVL340:
 673:Core/Src/test.c **** 	LCD_ShowString(15,90,16, " TVOC:           ug/m3",1);
 3637              		.loc 1 673 2 view .LVU631
 3638 0034 0094     		str	r4, [sp]
 3639 0036 554B     		ldr	r3, .L106+20
 3640 0038 1022     		movs	r2, #16
 3641 003a 5A21     		movs	r1, #90
 3642 003c 0F20     		movs	r0, #15
 3643 003e FFF7FEFF 		bl	LCD_ShowString
 3644              	.LVL341:
 674:Core/Src/test.c **** 	LCD_ShowString(15,110,16,"PM2.5:           ug/m3",1);
 3645              		.loc 1 674 2 view .LVU632
 3646 0042 0094     		str	r4, [sp]
 3647 0044 524B     		ldr	r3, .L106+24
 3648 0046 1022     		movs	r2, #16
 3649 0048 6E21     		movs	r1, #110
 3650 004a 0F20     		movs	r0, #15
 3651 004c FFF7FEFF 		bl	LCD_ShowString
 3652              	.LVL342:
 675:Core/Src/test.c **** 	LCD_ShowString(15,130,16," PM10:           ug/m3",1);
 3653              		.loc 1 675 2 view .LVU633
 3654 0050 0094     		str	r4, [sp]
 3655 0052 504B     		ldr	r3, .L106+28
 3656 0054 1022     		movs	r2, #16
 3657 0056 8221     		movs	r1, #130
 3658 0058 0F20     		movs	r0, #15
 3659 005a FFF7FEFF 		bl	LCD_ShowString
 3660              	.LVL343:
 676:Core/Src/test.c **** 	LCD_ShowString(15,150,16,"  TEP:           C",1);
 3661              		.loc 1 676 2 view .LVU634
 3662 005e 0094     		str	r4, [sp]
 3663 0060 4D4B     		ldr	r3, .L106+32
 3664 0062 1022     		movs	r2, #16
 3665 0064 9621     		movs	r1, #150
 3666 0066 0F20     		movs	r0, #15
 3667 0068 FFF7FEFF 		bl	LCD_ShowString
 3668              	.LVL344:
 677:Core/Src/test.c **** 	LCD_ShowString(15,170,16,"  HUM:           %",1);
 3669              		.loc 1 677 2 view .LVU635
 3670 006c 0094     		str	r4, [sp]
 3671 006e 4B4B     		ldr	r3, .L106+36
 3672 0070 1022     		movs	r2, #16
ARM GAS  C:\Users\savao\AppData\Local\Temp\ccVfuo0d.s 			page 82


 3673 0072 AA21     		movs	r1, #170
 3674 0074 0F20     		movs	r0, #15
 3675 0076 FFF7FEFF 		bl	LCD_ShowString
 3676              	.LVL345:
 678:Core/Src/test.c **** 	POINT_COLOR=RED;
 3677              		.loc 1 678 2 view .LVU636
 3678              		.loc 1 678 13 is_stmt 0 view .LVU637
 3679 007a 4FF47843 		mov	r3, #63488
 3680 007e 2B80     		strh	r3, [r5]	@ movhi
 679:Core/Src/test.c **** 	for(i=0;i<15;i++)
 3681              		.loc 1 679 2 is_stmt 1 view .LVU638
 3682              	.LVL346:
 3683              		.loc 1 679 7 is_stmt 0 view .LVU639
 3684 0080 0026     		movs	r6, #0
 3685              		.loc 1 679 2 view .LVU640
 3686 0082 75E0     		b	.L103
 3687              	.LVL347:
 3688              	.L104:
 680:Core/Src/test.c **** 	{
 681:Core/Src/test.c **** 		LCD_ShowNum(100,50,rand()%10000,5,16);
 3689              		.loc 1 681 3 is_stmt 1 discriminator 3 view .LVU641
 3690              		.loc 1 681 22 is_stmt 0 discriminator 3 view .LVU642
 3691 0084 FFF7FEFF 		bl	rand
 3692              	.LVL348:
 3693              		.loc 1 681 28 discriminator 3 view .LVU643
 3694 0088 454D     		ldr	r5, .L106+40
 3695 008a 85FB0023 		smull	r2, r3, r5, r0
 3696 008e C217     		asrs	r2, r0, #31
 3697 0090 C2EB2332 		rsb	r2, r2, r3, asr #12
 3698 0094 42F21077 		movw	r7, #10000
 3699              		.loc 1 681 3 discriminator 3 view .LVU644
 3700 0098 1024     		movs	r4, #16
 3701 009a 0094     		str	r4, [sp]
 3702 009c 0523     		movs	r3, #5
 3703 009e 07FB1202 		mls	r2, r7, r2, r0
 3704 00a2 3221     		movs	r1, #50
 3705 00a4 6420     		movs	r0, #100
 3706 00a6 FFF7FEFF 		bl	LCD_ShowNum
 3707              	.LVL349:
 682:Core/Src/test.c **** 		LCD_ShowNum(100,70,rand()%10000,5,16);
 3708              		.loc 1 682 3 is_stmt 1 discriminator 3 view .LVU645
 3709              		.loc 1 682 22 is_stmt 0 discriminator 3 view .LVU646
 3710 00aa FFF7FEFF 		bl	rand
 3711              	.LVL350:
 3712              		.loc 1 682 28 discriminator 3 view .LVU647
 3713 00ae 85FB0023 		smull	r2, r3, r5, r0
 3714 00b2 C217     		asrs	r2, r0, #31
 3715 00b4 C2EB2332 		rsb	r2, r2, r3, asr #12
 3716              		.loc 1 682 3 discriminator 3 view .LVU648
 3717 00b8 0094     		str	r4, [sp]
 3718 00ba 0523     		movs	r3, #5
 3719 00bc 07FB1202 		mls	r2, r7, r2, r0
 3720 00c0 4621     		movs	r1, #70
 3721 00c2 6420     		movs	r0, #100
 3722 00c4 FFF7FEFF 		bl	LCD_ShowNum
 3723              	.LVL351:
 683:Core/Src/test.c **** 		LCD_ShowNum(100,90,rand()%10000,5,16);
ARM GAS  C:\Users\savao\AppData\Local\Temp\ccVfuo0d.s 			page 83


 3724              		.loc 1 683 3 is_stmt 1 discriminator 3 view .LVU649
 3725              		.loc 1 683 22 is_stmt 0 discriminator 3 view .LVU650
 3726 00c8 FFF7FEFF 		bl	rand
 3727              	.LVL352:
 3728              		.loc 1 683 28 discriminator 3 view .LVU651
 3729 00cc 85FB0023 		smull	r2, r3, r5, r0
 3730 00d0 C217     		asrs	r2, r0, #31
 3731 00d2 C2EB2332 		rsb	r2, r2, r3, asr #12
 3732              		.loc 1 683 3 discriminator 3 view .LVU652
 3733 00d6 0094     		str	r4, [sp]
 3734 00d8 0523     		movs	r3, #5
 3735 00da 07FB1202 		mls	r2, r7, r2, r0
 3736 00de 5A21     		movs	r1, #90
 3737 00e0 6420     		movs	r0, #100
 3738 00e2 FFF7FEFF 		bl	LCD_ShowNum
 3739              	.LVL353:
 684:Core/Src/test.c **** 		LCD_ShowNum(100,110,rand()%10000,5,16);
 3740              		.loc 1 684 3 is_stmt 1 discriminator 3 view .LVU653
 3741              		.loc 1 684 23 is_stmt 0 discriminator 3 view .LVU654
 3742 00e6 FFF7FEFF 		bl	rand
 3743              	.LVL354:
 3744              		.loc 1 684 29 discriminator 3 view .LVU655
 3745 00ea 85FB0023 		smull	r2, r3, r5, r0
 3746 00ee C217     		asrs	r2, r0, #31
 3747 00f0 C2EB2332 		rsb	r2, r2, r3, asr #12
 3748              		.loc 1 684 3 discriminator 3 view .LVU656
 3749 00f4 0094     		str	r4, [sp]
 3750 00f6 0523     		movs	r3, #5
 3751 00f8 07FB1202 		mls	r2, r7, r2, r0
 3752 00fc 6E21     		movs	r1, #110
 3753 00fe 6420     		movs	r0, #100
 3754 0100 FFF7FEFF 		bl	LCD_ShowNum
 3755              	.LVL355:
 685:Core/Src/test.c **** 		LCD_ShowNum(100,130,rand()%10000,5,16);
 3756              		.loc 1 685 3 is_stmt 1 discriminator 3 view .LVU657
 3757              		.loc 1 685 23 is_stmt 0 discriminator 3 view .LVU658
 3758 0104 FFF7FEFF 		bl	rand
 3759              	.LVL356:
 3760              		.loc 1 685 29 discriminator 3 view .LVU659
 3761 0108 85FB0035 		smull	r3, r5, r5, r0
 3762 010c C217     		asrs	r2, r0, #31
 3763 010e C2EB2532 		rsb	r2, r2, r5, asr #12
 3764              		.loc 1 685 3 discriminator 3 view .LVU660
 3765 0112 0094     		str	r4, [sp]
 3766 0114 0523     		movs	r3, #5
 3767 0116 07FB1202 		mls	r2, r7, r2, r0
 3768 011a 8221     		movs	r1, #130
 3769 011c 6420     		movs	r0, #100
 3770 011e FFF7FEFF 		bl	LCD_ShowNum
 3771              	.LVL357:
 686:Core/Src/test.c **** 		LCD_ShowNum(100,150,rand()%50,5,16);
 3772              		.loc 1 686 3 is_stmt 1 discriminator 3 view .LVU661
 3773              		.loc 1 686 23 is_stmt 0 discriminator 3 view .LVU662
 3774 0122 FFF7FEFF 		bl	rand
 3775              	.LVL358:
 3776              		.loc 1 686 29 discriminator 3 view .LVU663
 3777 0126 1F4D     		ldr	r5, .L106+44
ARM GAS  C:\Users\savao\AppData\Local\Temp\ccVfuo0d.s 			page 84


 3778 0128 85FB0023 		smull	r2, r3, r5, r0
 3779 012c C217     		asrs	r2, r0, #31
 3780 012e C2EB2312 		rsb	r2, r2, r3, asr #4
 3781              		.loc 1 686 3 discriminator 3 view .LVU664
 3782 0132 0094     		str	r4, [sp]
 3783 0134 0523     		movs	r3, #5
 3784 0136 3221     		movs	r1, #50
 3785 0138 01FB1202 		mls	r2, r1, r2, r0
 3786 013c 9621     		movs	r1, #150
 3787 013e 6420     		movs	r0, #100
 3788 0140 FFF7FEFF 		bl	LCD_ShowNum
 3789              	.LVL359:
 687:Core/Src/test.c **** 		LCD_ShowNum(100,170,rand()%100,5,16);
 3790              		.loc 1 687 3 is_stmt 1 discriminator 3 view .LVU665
 3791              		.loc 1 687 23 is_stmt 0 discriminator 3 view .LVU666
 3792 0144 FFF7FEFF 		bl	rand
 3793              	.LVL360:
 3794 0148 0146     		mov	r1, r0
 3795              		.loc 1 687 29 discriminator 3 view .LVU667
 3796 014a 85FB0035 		smull	r3, r5, r5, r0
 3797 014e C217     		asrs	r2, r0, #31
 3798 0150 C2EB6512 		rsb	r2, r2, r5, asr #5
 3799 0154 6420     		movs	r0, #100
 3800              		.loc 1 687 3 discriminator 3 view .LVU668
 3801 0156 0094     		str	r4, [sp]
 3802 0158 0523     		movs	r3, #5
 3803 015a 00FB1212 		mls	r2, r0, r2, r1
 3804 015e AA21     		movs	r1, #170
 3805 0160 FFF7FEFF 		bl	LCD_ShowNum
 3806              	.LVL361:
 688:Core/Src/test.c **** 		delay_ms(500);
 3807              		.loc 1 688 3 is_stmt 1 discriminator 3 view .LVU669
 3808 0164 4FF4FA70 		mov	r0, #500
 3809 0168 FFF7FEFF 		bl	delay_ms
 3810              	.LVL362:
 679:Core/Src/test.c **** 	{
 3811              		.loc 1 679 15 discriminator 3 view .LVU670
 679:Core/Src/test.c **** 	{
 3812              		.loc 1 679 16 is_stmt 0 discriminator 3 view .LVU671
 3813 016c 0136     		adds	r6, r6, #1
 3814              	.LVL363:
 679:Core/Src/test.c **** 	{
 3815              		.loc 1 679 16 discriminator 3 view .LVU672
 3816 016e F6B2     		uxtb	r6, r6
 3817              	.LVL364:
 3818              	.L103:
 679:Core/Src/test.c **** 	{
 3819              		.loc 1 679 10 is_stmt 1 discriminator 1 view .LVU673
 679:Core/Src/test.c **** 	{
 3820              		.loc 1 679 2 is_stmt 0 discriminator 1 view .LVU674
 3821 0170 0E2E     		cmp	r6, #14
 3822 0172 87D9     		bls	.L104
 689:Core/Src/test.c **** 	}
 690:Core/Src/test.c **** }
 3823              		.loc 1 690 1 view .LVU675
 3824 0174 03B0     		add	sp, sp, #12
 3825              	.LCFI51:
ARM GAS  C:\Users\savao\AppData\Local\Temp\ccVfuo0d.s 			page 85


 3826              		.cfi_def_cfa_offset 20
 3827              		@ sp needed
 3828 0176 F0BD     		pop	{r4, r5, r6, r7, pc}
 3829              	.LVL365:
 3830              	.L107:
 3831              		.loc 1 690 1 view .LVU676
 3832              		.align	2
 3833              	.L106:
 3834 0178 00000000 		.word	.LC65
 3835 017c 00000000 		.word	POINT_COLOR
 3836 0180 40E20100 		.word	123456
 3837 0184 14000000 		.word	.LC66
 3838 0188 2C000000 		.word	.LC67
 3839 018c 44000000 		.word	.LC68
 3840 0190 5C000000 		.word	.LC69
 3841 0194 74000000 		.word	.LC70
 3842 0198 8C000000 		.word	.LC71
 3843 019c A0000000 		.word	.LC72
 3844 01a0 AD8BDB68 		.word	1759218605
 3845 01a4 1F85EB51 		.word	1374389535
 3846              		.cfi_endproc
 3847              	.LFE150:
 3849              		.global	ColornTab
 3850              		.global	ColorTab
 3851              		.global	gImage_qq
 3852              		.section	.rodata
 3853              		.align	2
 3854              		.set	.LANCHOR2,. + 0
 3855              	.LC34:
 3856 0000 00000000 		.word	.LC0
 3857 0004 0C000000 		.word	.LC1
 3858 0008 18000000 		.word	.LC2
 3859 000c 28000000 		.word	.LC3
 3860              		.section	.data.ColorTab,"aw"
 3861              		.align	2
 3862              		.set	.LANCHOR0,. + 0
 3865              	ColorTab:
 3866 0000 00F8     		.short	-2048
 3867 0002 E007     		.short	2016
 3868 0004 1F00     		.short	31
 3869 0006 E0FF     		.short	-32
 3870 0008 1FF8     		.short	-2017
 3871              		.section	.data.ColornTab,"aw"
 3872              		.align	2
 3873              		.set	.LANCHOR3,. + 0
 3876              	ColornTab:
 3877 0000 00F8     		.short	-2048
 3878 0002 1FF8     		.short	-2017
 3879 0004 E007     		.short	2016
 3880 0006 CF01     		.short	463
 3881 0008 1F00     		.short	31
 3882 000a 0000     		.short	0
 3883 000c 1F84     		.short	-31713
 3884 000e 0000     		.space	2
 3885              		.section	.rodata.gImage_qq,"a"
 3886              		.align	2
 3887              		.set	.LANCHOR1,. + 0
ARM GAS  C:\Users\savao\AppData\Local\Temp\ccVfuo0d.s 			page 86


 3890              	gImage_qq:
 3891 0000 FFFFFFFF 		.ascii	"\377\377\377\377\377\377\377\377\377\377\377\377\377"
 3891      FFFFFFFF 
 3891      FFFFFFFF 
 3891      FF
 3892 000d FFFFFFFF 		.ascii	"\377\377\377\377\377\377\377\377\377\377\377\377\377"
 3892      FFFFFFFF 
 3892      FFFFFFFF 
 3892      FF
 3893 001a FFFFFFFF 		.ascii	"\377\377\377\377\276\367\377\377\336\3778\306\222\214"
 3893      BEF7FFFF 
 3893      DEFF38C6 
 3893      928C
 3894 0028 8E6B6E6B 		.ascii	"\216knk\020|\226\255<\347\377\377\377\377\377\377\377"
 3894      107C96AD 
 3894      3CE7FFFF 
 3894      FFFFFFFF 
 3894      FF
 3895 0039 FFFFFFFF 		.ascii	"\377\377\377\377\377\377\377\377\377\377\377\377\377"
 3895      FFFFFFFF 
 3895      FFFFFFFF 
 3895      FF
 3896 0046 FFFFFFFF 		.ascii	"\377\377\377\377\377\377\377\377\377\377\377\377\377"
 3896      FFFFFFFF 
 3896      FFFFFFFF 
 3896      FF
 3897 0053 FFFFFFFF 		.ascii	"\377\377\377\377\377\377\377\377\377\377\377\377\377"
 3897      FFFFFFFF 
 3897      FFFFFFFF 
 3897      FF
 3898 0060 FFFFFFFF 		.ascii	"\377\377\377\377\377\377\377\377\377\377\377\377\377"
 3898      FFFFFFFF 
 3898      FFFFFFFF 
 3898      FF
 3899 006d FF5DEF15 		.ascii	"\377]\357\025\235OclB\0122\210)F\031%\031E!\3501\216"
 3899      9D4F636C 
 3899      420A3288 
 3899      29461925 
 3899      194521E8 
 3900 0083 6B38C6FF 		.ascii	"k8\306\377\377\377\377\377\377\377\377\377\377\377\377"
 3900      FFFFFFFF 
 3900      FFFFFFFF 
 3900      FFFFFF
 3901 0092 FFFFFFFF 		.ascii	"\377\377\377\377\377\377\377\377\377\377\377\377\377"
 3901      FFFFFFFF 
 3901      FFFFFFFF 
 3901      FF
 3902 009f FFFFFFFF 		.ascii	"\377\377\377\377\377\377\377\377\377\377\377\377\377"
 3902      FFFFFFFF 
 3902      FFFFFFFF 
 3902      FF
 3903 00ac FFFFFFFF 		.ascii	"\377\377\377\377\377\377\377\377\377\377\377\377\377"
 3903      FFFFFFFF 
 3903      FFFFFFFF 
 3903      FF
 3904 00b9 FFFFFF36 		.ascii	"\377\377\3776\245\020S\020KQS\017Kl:\3511g!%\031\344"
 3904      A5105310 
ARM GAS  C:\Users\savao\AppData\Local\Temp\ccVfuo0d.s 			page 87


 3904      4B51530F 
 3904      4B6C3AE9 
 3904      31672125 
 3905 00cf 10A30862 		.ascii	"\020\243\010b\000\203\010\313R\232\326\377\377\377\377"
 3905      008308CB 
 3905      529AD6FF 
 3905      FFFFFF
 3906 00de FFFFFFFF 		.ascii	"\377\377\377\377\377\377\377\377\377\377\377\377\377"
 3906      FFFFFFFF 
 3906      FFFFFFFF 
 3906      FF
 3907 00eb FFFFFFFF 		.ascii	"\377\377\377\377\377\377\377\377\377\377\377\377\377"
 3907      FFFFFFFF 
 3907      FFFFFFFF 
 3907      FF
 3908 00f8 FFFFFFFF 		.ascii	"\377\377\377\377\377\377\377\377\377\377\377\377\377"
 3908      FFFFFFFF 
 3908      FFFFFFFF 
 3908      FF
 3909 0105 FFFFFF3C 		.ascii	"\377\377\377<\347pc\263c\270|\365c\021CM2\352)\210!"
 3909      E77063B3 
 3909      63B87CF5 
 3909      6311434D 
 3909      32EA2988 
 3910 011a 26190519 		.ascii	"&\031\005\031\005\031\004\021\004\021\344\020\203\000"
 3910      05190411 
 3910      0411E410 
 3910      8300
 3911 0128 A308728C 		.ascii	"\243\010r\214\377\377\377\377\377\377\377\377\377\377"
 3911      FFFFFFFF 
 3911      FFFFFFFF 
 3911      FFFF
 3912 0136 FFFFFFFF 		.ascii	"\377\377\377\377\377\377\377\377\377\377\377\377\377"
 3912      FFFFFFFF 
 3912      FFFFFFFF 
 3912      FF
 3913 0143 FFFFFFFF 		.ascii	"\377\377\377\377\377\377\377\377\377\377\377\377\377"
 3913      FFFFFFFF 
 3913      FFFFFFFF 
 3913      FF
 3914 0150 FFFFFFFF 		.ascii	"\377\377\377\377\377\377\333\336K:\360B5lTK\2612.*\353"
 3914      FFFFDBDE 
 3914      4B3AF042 
 3914      356C544B 
 3914      B1322E2A 
 3915 0165 21A92167 		.ascii	"!\251!g\031\005\031\004\021\004\021\004\021\004\021"
 3915      19051904 
 3915      11041104 
 3915      110411
 3916 0174 04110519 		.ascii	"\004\021\005\031\344\020B\000\257s\377\377\377\377\377"
 3916      E4104200 
 3916      AF73FFFF 
 3916      FFFFFF
 3917 0183 FFFFFFFF 		.ascii	"\377\377\377\377\377\377\377\377\377\377\377\377\377"
 3917      FFFFFFFF 
 3917      FFFFFFFF 
 3917      FF
ARM GAS  C:\Users\savao\AppData\Local\Temp\ccVfuo0d.s 			page 88


 3918 0190 FFFFFFFF 		.ascii	"\377\377\377\377\377\377\377\377\377\377\377\377\377"
 3918      FFFFFFFF 
 3918      FFFFFFFF 
 3918      FF
 3919 019d FFFFFFFF 		.ascii	"\377\377\377\377\377\377\377]\357\0112L2\020K\2172O"
 3919      FFFFFF5D 
 3919      EF09324C 
 3919      32104B8F 
 3919      324F
 3920 01af 2A2E2ACC 		.ascii	"*.*\314\031\211\031\211!G\031\005\031\004\021\004\021"
 3920      19891989 
 3920      21471905 
 3920      19041104 
 3920      11
 3921 01c0 C410C410 		.ascii	"\304\020\304\020\004\021\004\021\004\021\344\020B\000"
 3921      04110411 
 3921      0411E410 
 3921      4200
 3922 01ce 3184FFFF 		.ascii	"1\204\377\377\377\377\377\377\377\377\377\377\377\377"
 3922      FFFFFFFF 
 3922      FFFFFFFF 
 3922      FFFF
 3923 01dc FFFFFFFF 		.ascii	"\377\377\377\377\377\377\377\377\377\377\377\377\377"
 3923      FFFFFFFF 
 3923      FFFFFFFF 
 3923      FF
 3924 01e9 FFFFFFFF 		.ascii	"\377\377\377\377\377\377\377\377\377\377\377\354RG\031"
 3924      FFFFFFFF 
 3924      FFFFFFEC 
 3924      524719
 3925 01f8 4C320B2A 		.ascii	"L2\013*\354!\354!\014\"\221[\356J\006\021&\031\004\031"
 3925      EC21EC21 
 3925      0C22915B 
 3925      EE4A0611 
 3925      26190419 
 3926 020c E410E410 		.ascii	"\344\020\344\020\247)f!\243\010\005\031\004\021\004"
 3926      A7296621 
 3926      A3080519 
 3926      041104
 3927 021b 11E41082 		.ascii	"\021\344\020\202\000\367\275\377\377\377\377\377\377"
 3927      00F7BDFF 
 3927      FFFFFFFF 
 3927      FF
 3928 0228 FFFFFFFF 		.ascii	"\377\377\377\377\377\377\377\377\377\377\377\377\377"
 3928      FFFFFFFF 
 3928      FFFFFFFF 
 3928      FF
 3929 0235 FFFFFFFF 		.ascii	"\377\377\377\377\377\377\377\377\377\377\377\377\377"
 3929      FFFFFFFF 
 3929      FFFFFFFF 
 3929      FF
 3930 0242 35A58308 		.ascii	"5\245\203\010\210!\210!\211!\252!\212!kBq\214\377\377"
 3930      88218821 
 3930      8921AA21 
 3930      8A216B42 
 3930      718CFFFF 
 3931 0256 728C8308 		.ascii	"r\214\203\010\004\021\304\010)B\373\336]\357\354Z\203"
ARM GAS  C:\Users\savao\AppData\Local\Temp\ccVfuo0d.s 			page 89


 3931      0411C408 
 3931      2942FBDE 
 3931      5DEFEC5A 
 3931      83
 3932 0267 08041104 		.ascii	"\010\004\021\004\021\004\021\203\010\3501\337\377\377"
 3932      11041183 
 3932      08E831DF 
 3932      FFFF
 3933 0275 FFFFFFFF 		.ascii	"\377\377\377\377\377\377\377\377\377\377\377\377\377"
 3933      FFFFFFFF 
 3933      FFFFFFFF 
 3933      FF
 3934 0282 FFFFFFFF 		.ascii	"\377\377\377\377\377\377\377\377\377\377\377\377\377"
 3934      FFFFFFFF 
 3934      FFFFFFFF 
 3934      FF
 3935 028f FFBEF7C7 		.ascii	"\377\276\367\3071\304\020%\031&\031G\031G\031\250)\212"
 3935      31C41025 
 3935      19261947 
 3935      194719A8 
 3935      298A
 3936 02a1 52284A55 		.ascii	"R(JU\255\377\377\3501\243\010\005\031MkMk\377\377}\357"
 3936      ADFFFFE8 
 3936      31A30805 
 3936      194D6B4D 
 3936      6BFFFF7D 
 3937 02b6 4521C410 		.ascii	"E!\304\020\004\021\004\021\004\021b\000v\255\377\377"
 3937      04110411 
 3937      04116200 
 3937      76ADFFFF 
 3938 02c6 FFFFFFFF 		.ascii	"\377\377\377\377\377\377\377\377\377\377\377\377\377"
 3938      FFFFFFFF 
 3938      FFFFFFFF 
 3938      FF
 3939 02d3 FFFFFFFF 		.ascii	"\377\377\377\377\377\377\377\377\377\377\377\377\377"
 3939      FFFFFFFF 
 3939      FFFFFFFF 
 3939      FF
 3940 02e0 96B56200 		.ascii	"\226\265b\000\004\021\004\031\005\021\005\031\304\010"
 3940      04110419 
 3940      05110519 
 3940      C408
 3941 02ee 8B4AB6B5 		.ascii	"\213J\266\265]\357\367\275\377\377\216kb\000)B\252Z"
 3941      5DEFF7BD 
 3941      FFFF8E6B 
 3941      62002942 
 3941      AA5A
 3942 0300 0842FFFF 		.ascii	"\010B\377\377\377\377\314R\203\010\004\021\004\021\004"
 3942      FFFFCC52 
 3942      83080411 
 3942      041104
 3943 030f 11A308AD 		.ascii	"\021\243\010\255R\377\377\377\377\377\377\377\377\377"
 3943      52FFFFFF 
 3943      FFFFFFFF 
 3943      FFFF
 3944 031d FFFFFFFF 		.ascii	"\377\377\377\377\377\377\377\377\377\034\347\377\377"
 3944      FFFFFFFF 
ARM GAS  C:\Users\savao\AppData\Local\Temp\ccVfuo0d.s 			page 90


 3944      FF1CE7FF 
 3944      FF
 3945 032a FFFFFFFF 		.ascii	"\377\377\377\377\377\377Ncb\000\004\021\004\021\004"
 3945      FFFF4E63 
 3945      62000411 
 3945      041104
 3946 0339 11E41062 		.ascii	"\021\344\020b\000\216c\377\377\377\377\377\377\377\377"
 3946      008E63FF 
 3946      FFFFFFFF 
 3946      FFFFFF
 3947 0348 CF730100 		.ascii	"\317s\001\000\363\234,c\226\265\377\377\377\377-[\203"
 3947      F39C2C63 
 3947      96B5FFFF 
 3947      FFFF2D5B 
 3947      83
 3948 0359 00041104 		.ascii	"\000\004\021\004\021\004\021\344\020g!=\357\377\377"
 3948      110411E4 
 3948      1067213D 
 3948      EFFFFF
 3949 0368 FFFFFFFF 		.ascii	"\377\377\377\377\377\377\377\377\370\275\267\265\236"
 3949      FFFFFFFF 
 3949      F8BDB7B5 
 3949      9E
 3950 0375 EFCB52B3 		.ascii	"\357\313R\263\224\377\377\377\377\337\377\3501\243\010"
 3950      94FFFFFF 
 3950      FFDFFFE8 
 3950      31A308
 3951 0384 04110411 		.ascii	"\004\021\004\021\004\021\004\021\243\010IB\377\367\377"
 3951      04110411 
 3951      A3084942 
 3951      FFF7FF
 3952 0393 F7FFFFFF 		.ascii	"\367\377\377\377\377jJ\001\000r\204\377\377\377\377"
 3952      FF6A4A01 
 3952      007284FF 
 3952      FFFFFF
 3953 03a2 FFF7DFEF 		.ascii	"\377\367\337\357\011:\243\010\004\021\004\021\004\021"
 3953      093AA308 
 3953      04110411 
 3953      0411
 3954 03b0 04110511 		.ascii	"\004\021\005\021\030\276\377\377\377\377\377\377\377"
 3954      18BEFFFF 
 3954      FFFFFFFF 
 3954      FF
 3955 03bd FFFFFFF0 		.ascii	"\377\377\377\360{b\000\3501\3071A\0005\245\377\377]"
 3955      7B6200E8 
 3955      31C73141 
 3955      0035A5FF 
 3955      FF5D
 3956 03cf EF4621C4 		.ascii	"\357F!\304\020\004\021\004\021\004\021\004\021\344\020"
 3956      10041104 
 3956      11041104 
 3956      11E410
 3957 03de A308769D 		.ascii	"\243\010v\235\377\367\377\377\267\255\243\010\243\010"
 3957      FFF7FFFF 
 3957      B7ADA308 
 3957      A308
 3958 03ec C7319EE7 		.ascii	"\3071\236\347\377\367\377\367v\245\243\010\344\020\004"
ARM GAS  C:\Users\savao\AppData\Local\Temp\ccVfuo0d.s 			page 91


 3958      FFF7FFF7 
 3958      76A5A308 
 3958      E41004
 3959 03fb 11041104 		.ascii	"\021\004\021\004\021\005\021\005\0215\245\377\377\377"
 3959      11051105 
 3959      1135A5FF 
 3959      FFFF
 3960 0409 FFFFFFFF 		.ascii	"\377\377\377\377\377\377\377\333\336\247)\203\000\304"
 3960      FFFFFFDB 
 3960      DEA72983 
 3960      00C4
 3961 0417 10C410C4 		.ascii	"\020\304\020\304\020\034\347\236\357\005\021\344\020"
 3961      101CE79E 
 3961      EF0511E4 
 3961      10
 3962 0424 04110411 		.ascii	"\004\021\004\021\004\021\004\021\004\031\304\010\345"
 3962      04110411 
 3962      0419C408 
 3962      E5
 3963 0431 10D16BD1 		.ascii	"\020\321k\321k\305\010d\000\245\010C\000+2w\235\263"
 3963      6BC50864 
 3963      00A50843 
 3963      002B3277 
 3963      9DB3
 3964 0443 842519C4 		.ascii	"\204%\031\304\020\004\021\004\021\004\021\004\021%\031"
 3964      10041104 
 3964      11041104 
 3964      112519
 3965 0452 2609359D 		.ascii	"&\0115\235\377\377\377\377\377\377\377\377\377\377\377"
 3965      FFFFFFFF 
 3965      FFFFFFFF 
 3965      FFFFFF
 3966 0461 FFAF7362 		.ascii	"\377\257sb\000\004\031\005\031\202\000\015[\216\233"
 3966      00041905 
 3966      1982000D 
 3966      5B8E9B
 3967 0470 62100511 		.ascii	"b\020\005\021\004\021\004\021\004\031\344\020\205\000"
 3967      04110411 
 3967      0419E410 
 3967      8500
 3968 047e 0511C439 		.ascii	"\005\021\3049\201Z@{\"\234C\254\003\244\203\233\202"
 3968      815A407B 
 3968      229C43AC 
 3968      03A4839B 
 3968      82
 3969 048f 728249C2 		.ascii	"r\202I\302\030\244\000\305\000\344\020\004\031\004\021"
 3969      18A400C5 
 3969      00E41004 
 3969      190411
 3970 049e 05194719 		.ascii	"\005\031G\031g\021\354Z\276\377\377\377\377\377\377"
 3970      6711EC5A 
 3970      BEFFFFFF 
 3970      FFFFFF
 3971 04ad FFFFFFDF 		.ascii	"\377\377\377\337\377\333\336\304\020\344\020\004\021"
 3971      FFDBDEC4 
 3971      10E41004 
 3971      11
ARM GAS  C:\Users\savao\AppData\Local\Temp\ccVfuo0d.s 			page 92


 3972 04ba 0511A418 		.ascii	"\005\021\244\030\001\300\203\210\344\000\005\031\004"
 3972      01C08388 
 3972      E4000519 
 3972      04
 3973 04c7 19C50844 		.ascii	"\031\305\010D!C\203#\325B\376\344\376'\377\007\377\244"
 3973      21438323 
 3973      D542FEE4 
 3973      FE27FF07 
 3973      FFA4
 3974 04d9 FE64FE03 		.ascii	"\376d\376\003\376\243\375\342\374B\354\203\263$b\345"
 3974      FEA3FDE2 
 3974      FC42EC83 
 3974      B32462E5 
 3975 04e9 10C40804 		.ascii	"\020\304\010\004\031&\031\250\031\207!\000\220\323\274"
 3975      192619A8 
 3975      19872100 
 3975      90D3BC
 3976 04f8 FFFFFFFF 		.ascii	"\377\377\377\377\377\377\377\377\337\377\377\377\020"
 3976      FFFFFFFF 
 3976      DFFFFFFF 
 3976      10
 3977 0505 7C420005 		.ascii	"|B\000\005\031\005\021\203(\001\320D\370\243H\344\000"
 3977      19051183 
 3977      2801D044 
 3977      F8A348E4 
 3977      00
 3978 0516 C508445A 		.ascii	"\305\010DZ\002\355\342\375\002\376f\376t\377\270\377"
 3978      02EDE2FD 
 3978      02FE66FE 
 3978      74FFB8FF 
 3979 0526 73FFE7F6 		.ascii	"s\377\347\366\246\366E\366\244\365\303\374b\374\302"
 3979      A6F645F6 
 3979      A4F5C3FC 
 3979      62FCC2
 3980 0535 FCC2FCE3 		.ascii	"\374\302\374\343\313\304I\006\021\210\031\207\001\244"
 3980      CBC44906 
 3980      11881987 
 3980      01A4
 3981 0543 9001F8EC 		.ascii	"\220\001\370\354\232\377\377\377\377\377\377\377\377"
 3981      9AFFFFFF 
 3981      FFFFFFFF 
 3981      FF
 3982 0550 FFFFFFFF 		.ascii	"\377\377\377\377\276\367\3501\203\000\005\011\202@\001"
 3982      BEF7E831 
 3982      83000509 
 3982      824001
 3983 055f C023F885 		.ascii	"\300#\370\205\360\243H\244\000DZ\002\375#\314\302\334"
 3983      F0A348A4 
 3983      00445A02 
 3983      FD23CCC2 
 3983      DC
 3984 0570 04FE28FE 		.ascii	"\004\376(\376H\366F\366$\366\344\365d\375\343\374b\374"
 3984      48F646F6 
 3984      24F6E4F5 
 3984      64FDE3FC 
 3984      62FC
 3985 0582 C2FC02E4 		.ascii	"\302\374\002\344\002\334\342\374\244zH\001g\001\304"
ARM GAS  C:\Users\savao\AppData\Local\Temp\ccVfuo0d.s 			page 93


 3985      02DCE2FC 
 3985      A47A4801 
 3985      6701C4
 3986 0591 7824F802 		.ascii	"x$\370\002\370\204\260}\347\377\377\377\377\377\377"
 3986      F884B07D 
 3986      E7FFFFFF 
 3986      FFFFFF
 3987 05a0 FFFFFFFF 		.ascii	"\377\377\377\377\377\377\333\336%\031\243\000\3048\002"
 3987      FFFFDBDE 
 3987      2519A300 
 3987      C43802
 3988 05af E022D844 		.ascii	"\340\"\330D\370\246\370\244xc\000C!\203r\2039\202\233"
 3988      F8A6F8A4 
 3988      78630043 
 3988      21837283 
 3988      39829B
 3989 05c2 21F561FD 		.ascii	"!\365a\375\"\375\342\374\242\374B\374B\374B\374\"\253"
 3989      22FDE2FC 
 3989      A2FC42FC 
 3989      42FC42FC 
 3989      22AB
 3990 05d4 8341C392 		.ascii	"\203A\303\222\004R&\001%\031\244\230D\370#\370\002\370"
 3990      04522601 
 3990      2519A498 
 3990      44F823F8 
 3990      02F8
 3991 05e6 A4D09EEF 		.ascii	"\244\320\236\357\377\377\377\377\377\377\377\377\377"
 3991      FFFFFFFF 
 3991      FFFFFFFF 
 3991      FF
 3992 05f3 FFFFFFFF 		.ascii	"\377\377\377\377\377\232\326\207)\245\000C\270\"\370"
 3992      FF9AD687 
 3992      29A50043 
 3992      B822F8
 3993 0602 23E065F8 		.ascii	"#\340e\370\350\370\007\311\203HB\000\243\000\204\000"
 3993      E8F807C9 
 3993      83484200 
 3993      A3008400 
 3994 0612 6329A27A 		.ascii	"c)\242zb\263\242\313b\323\002\273\202\212\2039\244\000"
 3994      62B3A2CB 
 3994      62D302BB 
 3994      828A8339 
 3994      A400
 3995 0624 E500E500 		.ascii	"\345\000\345\000\345\010\304`d\330D\370$\370#\370\002"
 3995      E508C460 
 3995      64D844F8 
 3995      24F823F8 
 3995      02
 3996 0635 F88388DB 		.ascii	"\370\203\210\333\306\377\377\377\377\377\377\377\377"
 3996      C6FFFFFF 
 3996      FFFFFFFF 
 3996      FF
 3997 0642 FFFFFFFF 		.ascii	"\377\377\377\377\377\377\377\377=\347P[\0101#\350C\370"
 3997      FFFFFFFF 
 3997      3DE7505B 
 3997      083123E8 
 3997      43F8
ARM GAS  C:\Users\savao\AppData\Local\Temp\ccVfuo0d.s 			page 94


 3998 0654 44F065F8 		.ascii	"D\360e\370\011\371\253\371\211\321\006\211\243HB\030"
 3998      09F9ABF9 
 3998      89D10689 
 3998      A3484218 
 3999 0664 02004200 		.ascii	"\002\000B\000a\000\202\000b\000b\000\203\000\243 \304"
 3999      61008200 
 3999      62006200 
 3999      8300A320 
 3999      C4
 4000 0675 50A58885 		.ascii	"P\245\210\205\330e\370D\370D\370#\370#\370\003\320\202"
 4000      D865F844 
 4000      F844F823 
 4000      F823F803 
 4000      D082
 4001 0687 10C7295D 		.ascii	"\020\307)]\357\377\377\377\377\377\377\377\377\377\377"
 4001      EFFFFFFF 
 4001      FFFFFFFF 
 4001      FFFFFF
 4002 0696 FFFFFFFF 		.ascii	"\377\377\377\377\377\377\377\377l2\2458\002\330#\370"
 4002      FFFFFFFF 
 4002      6C32A538 
 4002      02D823F8 
 4003 06a6 65F866F8 		.ascii	"e\370f\370\247\370J\371\014\372M\372L\352\013\322\251"
 4003      A7F84AF9 
 4003      0CFA4DFA 
 4003      4CEA0BD2 
 4003      A9
 4004 06b7 B968B147 		.ascii	"\271h\261G\251'\261\007\271\007\321\347\350\307\370"
 4004      A927B107 
 4004      B907D1E7 
 4004      E8C7F8
 4005 06c6 A7F865F8 		.ascii	"\247\370e\370e\370D\370#\370\003\370\002\320\243(\005"
 4005      65F844F8 
 4005      23F803F8 
 4005      02D0A328 
 4005      05
 4006 06d7 09C408EC 		.ascii	"\011\304\010\354Z\377\377\377\377\377\377\377\377\377"
 4006      5AFFFFFF 
 4006      FFFFFFFF 
 4006      FFFF
 4007 06e5 FFFFFFFF 		.ascii	"\377\377\377\377\377\377\377\373\336\005\031\304\000"
 4007      FFFFFFFB 
 4007      DE0519C4 
 4007      00
 4008 06f2 A741E6C0 		.ascii	"\247A\346\300\003\370\206\370\247\370\207\370\206\370"
 4008      03F886F8 
 4008      A7F887F8 
 4008      86F8
 4009 0700 C7F829F9 		.ascii	"\307\370)\371\212\371\253\371\253\371\213\371j\371)"
 4009      8AF9ABF9 
 4009      ABF98BF9 
 4009      6AF929
 4010 070f F908F9C7 		.ascii	"\371\010\371\307\370\246\370\206\370e\370d\370#\370"
 4010      F8A6F886 
 4010      F865F864 
 4010      F823F8
 4011 071e 02F006B1 		.ascii	"\002\360\006\261%)\344\000\344\020%\031%\031\024\235"
ARM GAS  C:\Users\savao\AppData\Local\Temp\ccVfuo0d.s 			page 95


 4011      2529E400 
 4011      E4102519 
 4011      2519149D 
 4012 072e FFFFFFFF 		.ascii	"\377\377\377\377\377\377\377\377\377\377\377\377\377"
 4012      FFFFFFFF 
 4012      FFFFFFFF 
 4012      FF
 4013 073b FF96AD62 		.ascii	"\377\226\255b\000\202\0105\225\272\316\213\242D\320"
 4013      00820835 
 4013      95BACE8B 
 4013      A244D0
 4014 074a 25F887F8 		.ascii	"%\370\207\370\247\370\307\370\247\370\207\370\206\370"
 4014      A7F8C7F8 
 4014      A7F887F8 
 4014      86F8
 4015 0758 86F886F8 		.ascii	"\206\370\206\370\207\370\247\370\247\370\246\370\205"
 4015      87F8A7F8 
 4015      A7F8A6F8 
 4015      85
 4016 0765 F865F864 		.ascii	"\370e\370d\370$\360d\270\015\223\273\266\317c\203\010"
 4016      F824F064 
 4016      B80D93BB 
 4016      B6CF6383 
 4016      08
 4017 0776 0411E410 		.ascii	"\004\021\344\020f!I:]\357\377\377\377\377\377\377\377"
 4017      6621493A 
 4017      5DEFFFFF 
 4017      FFFFFFFF 
 4017      FF
 4018 0787 FFFFFFFF 		.ascii	"\377\377\377\377\377\323\224B\000\344\020\273\316\377"
 4018      FFD39442 
 4018      00E410BB 
 4018      CEFF
 4019 0795 FFBEE776 		.ascii	"\377\276\347v\265\314\252\007\301E\340E\370F\370f\370"
 4019      B5CCAA07 
 4019      C145E045 
 4019      F846F866 
 4019      F8
 4020 07a6 86F886F8 		.ascii	"\206\370\206\370\206\370\206\370e\370E\370e\370e\350"
 4020      86F886F8 
 4020      65F845F8 
 4020      65F865E8 
 4021 07b6 44D043A8 		.ascii	"D\320C\250\001\210\202\220<\327\377\357U\225\203\010"
 4021      01888290 
 4021      3CD7FFEF 
 4021      55958308 
 4022 07c6 04110411 		.ascii	"\004\021\004\021\005\031F\031\263\224"
 4022      05194619 
 4022      B394
 4023 07d0 FFFFFFFF 		.ascii	"\377\377\377\377\377\377\377\377\377\377\377\377\263"
 4023      FFFFFFFF 
 4023      FFFFFFFF 
 4023      B3
 4024 07dd 94410086 		.ascii	"\224A\000\206!]\337\377\377\377\377\377\377\337\347"
 4024      215DDFFF 
 4024      FFFFFFFF 
 4024      FFDFE7
ARM GAS  C:\Users\savao\AppData\Local\Temp\ccVfuo0d.s 			page 96


 4025 07ec 7AC6D3B4 		.ascii	"z\306\323\264N\263*\302h\321\346\340\246\350\245\350"
 4025      4EB32AC2 
 4025      68D1E6E0 
 4025      A6E8A5E8 
 4026 07fc A5E8E6D8 		.ascii	"\245\350\346\330\210\311\006\251\"\250\002\250\000\240"
 4026      88C906A9 
 4026      22A802A8 
 4026      00A0
 4027 080a 00C800D8 		.ascii	"\000\310\000\330\367\345\377\347\370\255\304\020\344"
 4027      F7E5FFE7 
 4027      F8ADC410 
 4027      E4
 4028 0817 100411E4 		.ascii	"\020\004\021\344\020\005\021\213J\377\377\377\377\377"
 4028      1005118B 
 4028      4AFFFFFF 
 4028      FFFF
 4029 0825 FFFFFFFF 		.ascii	"\377\377\377\377\377\377\377U\245A\000\247)]\337\377"
 4029      FFFFFF55 
 4029      A54100A7 
 4029      295DDFFF 
 4030 0835 F7FFFFFF 		.ascii	"\367\377\377\377\377\377\377\377\377\377\377\377\357"
 4030      FFFFFFFF 
 4030      FFFFFFFF 
 4030      EF
 4031 0842 7DDFDBCE 		.ascii	"}\337\333\316Y\316\370\315\327\315\367\305y\316\373"
 4031      59CEF8CD 
 4031      D7CDF7C5 
 4031      79CEFB
 4032 0851 BEABA203 		.ascii	"\276\253\242\003\360E\370B\320C\350\000\360r\324\377"
 4032      F045F842 
 4032      D043E800 
 4032      F072D4FF 
 4033 0861 DF39AEE4 		.ascii	"\3379\256\344\020\344\020\004\021\344\020\005\021\207"
 4033      10E41004 
 4033      11E41005 
 4033      1187
 4034 086f 29FFFFFF 		.ascii	")\377\377\377\377\377\377\377\377\377\377\377\377Y\316"
 4034      FFFFFFFF 
 4034      FFFFFFFF 
 4034      FF59CE
 4035 087e 83084621 		.ascii	"\203\010F!\034\327\377\367\377\377\377\377\377\377\377"
 4035      1CD7FFF7 
 4035      FFFFFFFF 
 4035      FFFFFF
 4036 088d FFFFFFFF 		.ascii	"\377\377\377\377\377\377\377\377\377\377\377\377\377"
 4036      FFFFFFFF 
 4036      FFFFFFFF 
 4036      FF
 4037 089a FFFFFFFF 		.ascii	"\377\377\377\377\377\377\377\357\213\272\004\370E\370"
 4037      FFFFFFEF 
 4037      8BBA04F8 
 4037      45F8
 4038 08a8 62E044F0 		.ascii	"b\340D\360\000\370\216\333\377\337\370\245\304\020\344"
 4038      00F88EDB 
 4038      FFDFF8A5 
 4038      C410E4
 4039 08b7 10E41004 		.ascii	"\020\344\020\004\021\344\020%\031\377\377\377\377\377"
ARM GAS  C:\Users\savao\AppData\Local\Temp\ccVfuo0d.s 			page 97


 4039      11E41025 
 4039      19FFFFFF 
 4039      FFFF
 4040 08c5 FFFFFFFF 		.ascii	"\377\377\377\377\377\377\377\276\367\207)\203\0109\266"
 4040      FFFFFFBE 
 4040      F7872983 
 4040      0839B6
 4041 08d4 FFF7DFF7 		.ascii	"\377\367\337\367\377\377\377\377\377\377\377\377\377"
 4041      FFFFFFFF 
 4041      FFFFFFFF 
 4041      FF
 4042 08e1 FFFFFFFF 		.ascii	"\377\377\377\377\377\377\377\377\377\377\377\377\377"
 4042      FFFFFFFF 
 4042      FFFFFFFF 
 4042      FF
 4043 08ee FFFFBEE7 		.ascii	"\377\377\276\347J\272\003\370E\370d\370D\370\000\370"
 4043      4ABA03F8 
 4043      45F864F8 
 4043      44F800F8 
 4044 08fe 6EE3FFD7 		.ascii	"n\343\377\327\364\214\203\010\004\021\344\020\344\020"
 4044      F48C8308 
 4044      0411E410 
 4044      E410
 4045 090c E4100519 		.ascii	"\344\020\005\031\377\377\377\377\377\377\377\377\377"
 4045      FFFFFFFF 
 4045      FFFFFFFF 
 4045      FF
 4046 0919 FFFFFFFF 		.ascii	"\377\377\377\377\377\357s\000\000r\204\377\357\276\357"
 4046      FFEF7300 
 4046      007284FF 
 4046      EFBEEF
 4047 0928 DFFFFFFF 		.ascii	"\337\377\377\377\377\377\377\377\377\377\377\377\377"
 4047      FFFFFFFF 
 4047      FFFFFFFF 
 4047      FF
 4048 0935 FFFFFFFF 		.ascii	"\377\377\377\377\377\377\377\377\377\377\377\337\347"
 4048      FFFFFFFF 
 4048      FFFFFFDF 
 4048      E7
 4049 0942 8BBA03F8 		.ascii	"\213\272\003\370E\370E\370#\370\000\370\323\324\377"
 4049      45F845F8 
 4049      23F800F8 
 4049      D3D4FF
 4050 0951 D74E5B21 		.ascii	"\327N[!\000):U\245\203\010\304\020%\031\377\377\377"
 4050      00293A55 
 4050      A58308C4 
 4050      102519FF 
 4050      FFFF
 4051 0963 FFFFFFFF 		.ascii	"\377\377\377\377\377\377\377\377\377\377\377\373\336"
 4051      FFFFFFFF 
 4051      FFFFFFFB 
 4051      DE
 4052 0970 A308E831 		.ascii	"\243\010\3501\236\337\236\347\277\357\377\377\377\377"
 4052      9EDF9EE7 
 4052      BFEFFFFF 
 4052      FFFF
 4053 097e FFFFFFFF 		.ascii	"\377\377\377\377\377\377\377\377\377\377\377\377\377"
ARM GAS  C:\Users\savao\AppData\Local\Temp\ccVfuo0d.s 			page 98


 4053      FFFFFFFF 
 4053      FFFFFFFF 
 4053      FF
 4054 098b FFFFFFFF 		.ascii	"\377\377\377\377\377\377\367Q\274\002\340\003\370\003"
 4054      FFFFF751 
 4054      BC02E003 
 4054      F803
 4055 0999 F043E0EC 		.ascii	"\360C\340\354\302~\317\374\276F!!\000\323\224\377\377"
 4055      C27ECFFC 
 4055      BE462121 
 4055      00D394FF 
 4055      FF
 4056 09aa 51840000 		.ascii	"Q\204\000\000\207)\377\377\377\377\377\377\377\377\377"
 4056      8729FFFF 
 4056      FFFFFFFF 
 4056      FFFFFF
 4057 09b9 FFFFFFFF 		.ascii	"\377\377\377\377\377\377\377Q\204\000\000\364\214\377"
 4057      FFFFFF51 
 4057      840000F4 
 4057      8CFF
 4058 09c7 EF9EE7BF 		.ascii	"\357\236\347\277\357\337\377\377\377\377\377\377\377"
 4058      EFDFFFFF 
 4058      FFFFFFFF 
 4058      FF
 4059 09d4 FFFFFFFF 		.ascii	"\377\377\377\377\377\377\377\377\377\377\377\377\377"
 4059      FFFFFFFF 
 4059      FFFFFFFF 
 4059      FF
 4060 09e1 FF3DDF55 		.ascii	"\377=\337U\275R\274r\274\267\265]\307\377\337\360k\000"
 4060      BD52BC72 
 4060      BCB7B55D 
 4060      C7FFDFF0 
 4060      6B00
 4061 09f3 00093ABF 		.ascii	"\000\011:\277\367\377\377\377\377\024\235U\245\377\377"
 4061      F7FFFFFF 
 4061      FF149D55 
 4061      A5FFFF
 4062 0a02 FFFFFFFF 		.ascii	"\377\377\377\377\377\377\377\377\377\377\377\377\377"
 4062      FFFFFFFF 
 4062      FFFFFFFF 
 4062      FF
 4063 0a0f FFFFFFAC 		.ascii	"\377\377\377\254J\244\010\273\276\337\347~\347\276\357"
 4063      4AA408BB 
 4063      BEDFE77E 
 4063      E7BEEF
 4064 0a1e DFF7DFFF 		.ascii	"\337\367\337\377\377\377\377\377\377\377\377\377\377"
 4064      FFFFFFFF 
 4064      FFFFFFFF 
 4064      FF
 4065 0a2b FFFFFFFF 		.ascii	"\377\377\377\377\377\337\377\337\367\377\357\337\337"
 4065      FFDFFFDF 
 4065      F7FFEFDF 
 4065      DF
 4066 0a38 BFD79ED7 		.ascii	"\277\327\236\327\337\337\330\245\203\010&\021\333\326"
 4066      DFDFD8A5 
 4066      83082611 
 4066      DBD6
ARM GAS  C:\Users\savao\AppData\Local\Temp\ccVfuo0d.s 			page 99


 4067 0a46 FFFFFFFF 		.ascii	"\377\377\377\377\377\377\377\377\377\377\377\377\377"
 4067      FFFFFFFF 
 4067      FFFFFFFF 
 4067      FF
 4068 0a53 FFFFFFFF 		.ascii	"\377\377\377\377\377\377\377\377\377\377\377\377\377"
 4068      FFFFFFFF 
 4068      FFFFFFFF 
 4068      FF
 4069 0a60 79EE8BDC 		.ascii	"y\356\213\334!1\251!=\317\277\337~\337\236\347\276\357"
 4069      2131A921 
 4069      3DCFBFDF 
 4069      7EDF9EE7 
 4069      BEEF
 4070 0a72 BFEFDFF7 		.ascii	"\277\357\337\367\337\367\337\367\337\367\337\367\277"
 4070      DFF7DFF7 
 4070      DFF7DFF7 
 4070      BF
 4071 0a7f EFBEEF9E 		.ascii	"\357\276\357\236\347~\337^\327^\327\337\337\232\266"
 4071      E77EDF5E 
 4071      D75ED7DF 
 4071      DF9AB6
 4072 0a8e 26194208 		.ascii	"&\031B\010\355\243\277\377\377\377\377\377\377\377\377"
 4072      EDA3BFFF 
 4072      FFFFFFFF 
 4072      FFFFFF
 4073 0a9d FFFFFFFF 		.ascii	"\377\377\377\377\377\377\377\377\377\377\377\377\377"
 4073      FFFFFFFF 
 4073      FFFFFFFF 
 4073      FF
 4074 0aaa FFFFFFFF 		.ascii	"\377\377\377\377t\335\300\333\000\376B\356\002B\211"
 4074      74DDC0DB 
 4074      00FE42EE 
 4074      024289
 4075 0ab9 217BB6DF 		.ascii	"!{\266\337\337~\327~\337~\337\236\347\236\347\236\347"
 4075      DF7ED77E 
 4075      DF7EDF9E 
 4075      E79EE79E 
 4075      E7
 4076 0aca 9EE79EE7 		.ascii	"\236\347\236\347~\337~\337]\327]\327\236\337\377\347"
 4076      7EDF7EDF 
 4076      5DD75DD7 
 4076      9EDFFFE7 
 4077 0ada F8A50711 		.ascii	"\370\245\007\021\343\030\002\305`\375\346\323\333\356"
 4077      E31802C5 
 4077      60FDE6D3 
 4077      DBEE
 4078 0ae8 FFFFFFFF 		.ascii	"\377\377\377\377\377\377\377\377\377\377\377\377\377"
 4078      FFFFFFFF 
 4078      FFFFFFFF 
 4078      FF
 4079 0af5 FFFFFFFF 		.ascii	"\377\377\377\377\377\377\377\236\367\204\272\301\374"
 4079      FFFFFF9E 
 4079      F784BAC1 
 4079      FC
 4080 0b02 42FE82FE 		.ascii	"B\376\202\376\242\376\201\203E!tt^\307\337\337~\327"
 4080      A2FE8183 
 4080      45217474 
ARM GAS  C:\Users\savao\AppData\Local\Temp\ccVfuo0d.s 			page 100


 4080      5EC7DFDF 
 4080      7ED7
 4081 0b14 5ED75DD7 		.ascii	"^\327]\327^\327^\327]\327]\327^\327\236\337\377\347"
 4081      5ED75ED7 
 4081      5DD75DD7 
 4081      5ED79EDF 
 4081      FFE7
 4082 0b26 3DC7F163 		.ascii	"=\307\361c\204\010BR&\346)\377\206\376\340\363j\303"
 4082      84084252 
 4082      26E629FF 
 4082      86FEE0F3 
 4082      6AC3
 4083 0b38 FFFFFFFF 		.ascii	"\377\377\377\377\377\377\377\377\377\377\377\377\377"
 4083      FFFFFFFF 
 4083      FFFFFFFF 
 4083      FF
 4084 0b45 FFFFFFFF 		.ascii	"\377\377\377\377\377\377\377\030\336\301\322\242\375"
 4084      FFFFFF18 
 4084      DEC1D2A2 
 4084      FD
 4085 0b52 22FE42FE 		.ascii	"\"\376B\376B\376b\376\342\324AjIBSt;\246>\307\277\327"
 4085      42FE62FE 
 4085      E2D4416A 
 4085      49425374 
 4085      3BA63EC7 
 4086 0b68 BFD7BFD7 		.ascii	"\277\327\277\327\277\337\277\327>\307\032\246\362c\247"
 4086      BFDFBFD7 
 4086      3EC71AA6 
 4086      F263A7
 4087 0b77 29824122 		.ascii	")\202A\"\264b\376\203\376\252\376\017\377g\375c\272"
 4087      B462FE83 
 4087      FEAAFE0F 
 4087      FF67FD63 
 4087      BA
 4088 0b88 3CEFFFFF 		.ascii	"<\357\377\377\377\377\377\377\377\377\377\377\377\377"
 4088      FFFFFFFF 
 4088      FFFFFFFF 
 4088      FFFF
 4089 0b96 FFFFFFFF 		.ascii	"\377\377\377\377\377\377\232\346\200\322!\375\302\375"
 4089      FFFF9AE6 
 4089      80D221FD 
 4089      C2FD
 4090 0ba4 E2F5C2F5 		.ascii	"\342\365\302\365\202\365\202\375b\375a\334!\233\204"
 4090      82F582FD 
 4090      62FD61DC 
 4090      219B84
 4091 0bb3 6AE96A2C 		.ascii	"j\351j,c\257c\021tnc,c\211Z\004R\201z\302\313\342\374"
 4091      63AF6311 
 4091      746E632C 
 4091      63895A04 
 4091      52817AC2 
 4092 0bca 62FD82FD 		.ascii	"b\375\202\375\302\375\302\375\344\375$\375b\312\034"
 4092      C2FDC2FD 
 4092      E4FD24FD 
 4092      62CA1C
 4093 0bd9 E7FFFFFF 		.ascii	"\347\377\377\377\377\377\377\377\377\377\377\377\377"
 4093      FFFFFFFF 
ARM GAS  C:\Users\savao\AppData\Local\Temp\ccVfuo0d.s 			page 101


 4093      FFFFFFFF 
 4093      FF
 4094 0be6 FFFFFFFF 		.ascii	"\377\377\377\377\377\377\377\377\261\314\201\322\300"
 4094      FFFFFFFF 
 4094      B1CC81D2 
 4094      C0
 4095 0bf3 F3C1FC02 		.ascii	"\363\301\374\002\375\002\375\342\374\302\374\302\374"
 4095      FD02FDE2 
 4095      FCC2FCC2 
 4095      FC
 4096 0c00 81FC80FB 		.ascii	"\201\374\200\373\300\311\244\2015\255Y\316q\234!\201"
 4096      C0C9A481 
 4096      35AD59CE 
 4096      719C2181 
 4097 0c10 00DAA1FB 		.ascii	"\000\332\241\373\202\374\242\374\202\374\242\374\002"
 4097      82FCA2FC 
 4097      82FCA2FC 
 4097      02
 4098 0c1d FD22FDE2 		.ascii	"\375\"\375\342\374\000\374`\332\220\314\377\377\377"
 4098      FC00FC60 
 4098      DA90CCFF 
 4098      FFFF
 4099 0c2b FFFFFFFF 		.ascii	"\377\377\377\377\377\377\377\377\377\377\377\377\377"
 4099      FFFFFFFF 
 4099      FFFFFFFF 
 4099      FF
 4100 0c38 FFFFFFFF 		.ascii	"\377\377\377\377\377\377\377\377Y\336\015\304\006\313"
 4100      FFFFFFFF 
 4100      59DE0DC4 
 4100      06CB
 4101 0c46 E4D203DB 		.ascii	"\344\322\003\333\003\333\343\332\303\322\244\302\011"
 4101      03DBE3DA 
 4101      C3D2A4C2 
 4101      09
 4102 0c53 B3D2BC9E 		.ascii	"\263\322\274\236\367\377\377\377\377\377\377\373\346"
 4102      F7FFFFFF 
 4102      FFFFFFFB 
 4102      E6
 4103 0c60 0EB4A6BA 		.ascii	"\016\264\246\272\203\322\343\342\002\353\"\353\"\343"
 4103      83D2E3E2 
 4103      02EB22EB 
 4103      22E3
 4104 0c6e 03DBE4D2 		.ascii	"\003\333\344\322j\303\266\325\377\377\377\377\377\377"
 4104      6AC3B6D5 
 4104      FFFFFFFF 
 4104      FFFF
 4105 0c7c FFFFFFFF 		.ascii	"\377\377\377\377"
 4106              		.text
 4107              	.Letext0:
 4108              		.file 2 "c:\\program files (x86)\\gnu arm embedded toolchain\\10 2020-q4-major\\arm-none-eabi\\inc
 4109              		.file 3 "c:\\program files (x86)\\gnu arm embedded toolchain\\10 2020-q4-major\\arm-none-eabi\\inc
 4110              		.file 4 "Core/Inc/stm32f4xx.h"
 4111              		.file 5 "Core/Inc/lcd.h"
 4112              		.file 6 "Core/Inc/pic.h"
 4113              		.file 7 "c:\\program files (x86)\\gnu arm embedded toolchain\\10 2020-q4-major\\arm-none-eabi\\inc
 4114              		.file 8 "Core/Inc/gui.h"
 4115              		.file 9 "Core/Inc/delay.h"
ARM GAS  C:\Users\savao\AppData\Local\Temp\ccVfuo0d.s 			page 102


 4116              		.file 10 "c:\\program files (x86)\\gnu arm embedded toolchain\\10 2020-q4-major\\arm-none-eabi\\in
 4117              		.file 11 "<built-in>"
ARM GAS  C:\Users\savao\AppData\Local\Temp\ccVfuo0d.s 			page 103

