ARM GAS  C:\Users\savao\AppData\Local\Temp\ccBzQOfe.s 			page 1


   1              		.cpu cortex-m4
   2              		.eabi_attribute 27, 1
   3              		.eabi_attribute 28, 1
   4              		.eabi_attribute 20, 1
   5              		.eabi_attribute 21, 1
   6              		.eabi_attribute 23, 3
   7              		.eabi_attribute 24, 1
   8              		.eabi_attribute 25, 1
   9              		.eabi_attribute 26, 1
  10              		.eabi_attribute 30, 1
  11              		.eabi_attribute 34, 1
  12              		.eabi_attribute 18, 4
  13              		.file	"delay.c"
  14              		.text
  15              	.Ltext0:
  16              		.cfi_sections	.debug_frame
  17              		.section	.text.delay_init,"ax",%progbits
  18              		.align	1
  19              		.global	delay_init
  20              		.arch armv7e-m
  21              		.syntax unified
  22              		.thumb
  23              		.thumb_func
  24              		.fpu fpv4-sp-d16
  26              	delay_init:
  27              	.LVL0:
  28              	.LFB130:
  29              		.file 1 "Core/Src/delay.c"
   1:Core/Src/delay.c **** //////////////////////////////////////////////////////////////////////////////////	 
   2:Core/Src/delay.c **** //本程序只供学习使用，未经作者许可，不得用于其它商业用途
   3:Core/Src/delay.c **** //测试硬件：单片机STM32F407VGT6,STM32F407VxT6最小系统开发板,主频168MHZ，晶振8MHZ
   4:Core/Src/delay.c **** //QDtech-TFT液晶驱动 for STM32 FSMC
   5:Core/Src/delay.c **** //Chan@ShenZhen QDtech co.,LTD
   6:Core/Src/delay.c **** //公司网站:www.qdtft.com
   7:Core/Src/delay.c **** //wiki技术资料网站：http://www.lcdwiki.com
   8:Core/Src/delay.c **** //我司提供技术支持，任何技术问题欢迎随时交流学习
   9:Core/Src/delay.c **** //固话(传真) :+86 0755-21077707 
  10:Core/Src/delay.c **** //手机: (销售)18823372746 （技术)15989313508
  11:Core/Src/delay.c **** //邮箱:(销售/订单) sales@qdtft.com  (售后/技术服务)service@qdtft.com
  12:Core/Src/delay.c **** //QQ:(售前咨询)3002706772 (技术支持)3002778157
  13:Core/Src/delay.c **** //技术交流QQ群:778679828
  14:Core/Src/delay.c **** //创建日期:2020/06/29
  15:Core/Src/delay.c **** //版本：V1.0
  16:Core/Src/delay.c **** //版权所有，盗版必究。
  17:Core/Src/delay.c **** //Copyright(C) 深圳市全动电子技术有限公司 2018-2028
  18:Core/Src/delay.c **** //All rights reserved
  19:Core/Src/delay.c **** /************************************************************************************
  20:Core/Src/delay.c **** //STM32F407VxT6最小系统开发板LED灯示例
  21:Core/Src/delay.c **** //LED0   --->   PA1
  22:Core/Src/delay.c **** //LED1   --->   PC5
  23:Core/Src/delay.c **** *************************************************************************************/	
  24:Core/Src/delay.c ****  /* @attention
  25:Core/Src/delay.c ****   *
  26:Core/Src/delay.c ****   * THE PRESENT FIRMWARE WHICH IS FOR GUIDANCE ONLY AIMS AT PROVIDING CUSTOMERS
  27:Core/Src/delay.c ****   * WITH CODING INFORMATION REGARDING THEIR PRODUCTS IN ORDER FOR THEM TO SAVE
  28:Core/Src/delay.c ****   * TIME. AS A RESULT, QD electronic SHALL NOT BE HELD LIABLE FOR ANY
  29:Core/Src/delay.c ****   * DIRECT, INDIRECT OR CONSEQUENTIAL DAMAGES WITH RESPECT TO ANY CLAIMS ARISING
ARM GAS  C:\Users\savao\AppData\Local\Temp\ccBzQOfe.s 			page 2


  30:Core/Src/delay.c ****   * FROM THE CONTENT OF SUCH FIRMWARE AND/OR THE USE MADE BY CUSTOMERS OF THE
  31:Core/Src/delay.c ****   * CODING INFORMATION CONTAINED HEREIN IN CONNECTION WITH THEIR PRODUCTS.
  32:Core/Src/delay.c **** *************************************************************************************/		
  33:Core/Src/delay.c **** #include "delay.h"
  34:Core/Src/delay.c **** #include "sys.h"
  35:Core/Src/delay.c **** 
  36:Core/Src/delay.c **** static u8  fac_us=0;							//us延时倍乘数			   
  37:Core/Src/delay.c **** static u16 fac_ms=0;							//ms延时倍乘数
  38:Core/Src/delay.c **** 
  39:Core/Src/delay.c **** /*****************************************************************************
  40:Core/Src/delay.c ****  * @name       :void delay_init(u8 SYSCLK)
  41:Core/Src/delay.c ****  * @date       :2020-05-08 
  42:Core/Src/delay.c ****  * @function   :Initialization delay function 
  43:Core/Src/delay.c ****  * @parameters :SYSCLK:System clock frequency
  44:Core/Src/delay.c ****  * @retvalue   :None
  45:Core/Src/delay.c **** ******************************************************************************/	  
  46:Core/Src/delay.c **** void delay_init(u8 SYSCLK)
  47:Core/Src/delay.c **** {
  30              		.loc 1 47 1 view -0
  31              		.cfi_startproc
  32              		@ args = 0, pretend = 0, frame = 0
  33              		@ frame_needed = 0, uses_anonymous_args = 0
  34              		.loc 1 47 1 is_stmt 0 view .LVU1
  35 0000 10B5     		push	{r4, lr}
  36              	.LCFI0:
  37              		.cfi_def_cfa_offset 8
  38              		.cfi_offset 4, -8
  39              		.cfi_offset 14, -4
  40 0002 0446     		mov	r4, r0
  48:Core/Src/delay.c ****  	SysTick_CLKSourceConfig(SysTick_CLKSource_HCLK_Div8); //SYSTICK的时钟固定为AHB时钟的1/8
  41              		.loc 1 48 3 is_stmt 1 view .LVU2
  42 0004 6FF00400 		mvn	r0, #4
  43              	.LVL1:
  44              		.loc 1 48 3 is_stmt 0 view .LVU3
  45 0008 FFF7FEFF 		bl	SysTick_CLKSourceConfig
  46              	.LVL2:
  49:Core/Src/delay.c **** 	fac_us=SYSCLK/8;					
  47              		.loc 1 49 2 is_stmt 1 view .LVU4
  48              		.loc 1 49 8 is_stmt 0 view .LVU5
  49 000c E008     		lsrs	r0, r4, #3
  50 000e 054B     		ldr	r3, .L3
  51 0010 1870     		strb	r0, [r3]
  50:Core/Src/delay.c **** 	fac_ms=(u16)fac_us*1000;			//代表每个ms需要的systick时钟数   
  52              		.loc 1 50 2 is_stmt 1 view .LVU6
  53              		.loc 1 50 8 is_stmt 0 view .LVU7
  54 0012 C0EB4013 		rsb	r3, r0, r0, lsl #5
  55 0016 00EB8300 		add	r0, r0, r3, lsl #2
  56 001a C000     		lsls	r0, r0, #3
  57 001c 024B     		ldr	r3, .L3+4
  58 001e 1880     		strh	r0, [r3]	@ movhi
  51:Core/Src/delay.c **** }								    
  59              		.loc 1 51 1 view .LVU8
  60 0020 10BD     		pop	{r4, pc}
  61              	.L4:
  62 0022 00BF     		.align	2
  63              	.L3:
  64 0024 00000000 		.word	.LANCHOR0
ARM GAS  C:\Users\savao\AppData\Local\Temp\ccBzQOfe.s 			page 3


  65 0028 00000000 		.word	.LANCHOR1
  66              		.cfi_endproc
  67              	.LFE130:
  69              		.section	.text.delay_us,"ax",%progbits
  70              		.align	1
  71              		.global	delay_us
  72              		.syntax unified
  73              		.thumb
  74              		.thumb_func
  75              		.fpu fpv4-sp-d16
  77              	delay_us:
  78              	.LVL3:
  79              	.LFB131:
  52:Core/Src/delay.c **** 
  53:Core/Src/delay.c **** /*****************************************************************************
  54:Core/Src/delay.c ****  * @name       :void delay_us(u32 nus)
  55:Core/Src/delay.c ****  * @date       :2020-05-08 
  56:Core/Src/delay.c ****  * @function   :Microsecond delay function
  57:Core/Src/delay.c ****  * @parameters :nus:Microseconds to delay(No more than 798915us)
  58:Core/Src/delay.c **** 										the maximum value is 2^24/fac_ us@fac_ us=21
  59:Core/Src/delay.c ****  * @retvalue   :None
  60:Core/Src/delay.c **** ******************************************************************************/	
  61:Core/Src/delay.c **** void delay_us(u32 nus)
  62:Core/Src/delay.c **** {		
  80              		.loc 1 62 1 is_stmt 1 view -0
  81              		.cfi_startproc
  82              		@ args = 0, pretend = 0, frame = 0
  83              		@ frame_needed = 0, uses_anonymous_args = 0
  84              		@ link register save eliminated.
  63:Core/Src/delay.c **** 	u32 temp;	    	 
  85              		.loc 1 63 2 view .LVU10
  64:Core/Src/delay.c **** 	SysTick->LOAD=nus*fac_us; 				//时间加载	  		 
  86              		.loc 1 64 2 view .LVU11
  87              		.loc 1 64 19 is_stmt 0 view .LVU12
  88 0000 0E4B     		ldr	r3, .L7
  89 0002 1B78     		ldrb	r3, [r3]	@ zero_extendqisi2
  90 0004 03FB00F0 		mul	r0, r3, r0
  91              	.LVL4:
  92              		.loc 1 64 15 view .LVU13
  93 0008 4FF0E023 		mov	r3, #-536813568
  94 000c 5861     		str	r0, [r3, #20]
  65:Core/Src/delay.c **** 	SysTick->VAL=0x00;        				//清空计数器
  95              		.loc 1 65 2 is_stmt 1 view .LVU14
  96              		.loc 1 65 14 is_stmt 0 view .LVU15
  97 000e 0022     		movs	r2, #0
  98 0010 9A61     		str	r2, [r3, #24]
  66:Core/Src/delay.c **** 	SysTick->CTRL|=SysTick_CTRL_ENABLE_Msk ; //开始倒数 	 
  99              		.loc 1 66 2 is_stmt 1 view .LVU16
 100              		.loc 1 66 15 is_stmt 0 view .LVU17
 101 0012 1A69     		ldr	r2, [r3, #16]
 102 0014 42F00102 		orr	r2, r2, #1
 103 0018 1A61     		str	r2, [r3, #16]
 104              	.L6:
  67:Core/Src/delay.c **** 	do
 105              		.loc 1 67 2 is_stmt 1 discriminator 1 view .LVU18
  68:Core/Src/delay.c **** 	{
  69:Core/Src/delay.c **** 		temp=SysTick->CTRL;
ARM GAS  C:\Users\savao\AppData\Local\Temp\ccBzQOfe.s 			page 4


 106              		.loc 1 69 3 discriminator 1 view .LVU19
 107              		.loc 1 69 7 is_stmt 0 discriminator 1 view .LVU20
 108 001a 4FF0E023 		mov	r3, #-536813568
 109 001e 1B69     		ldr	r3, [r3, #16]
 110              	.LVL5:
  70:Core/Src/delay.c **** 	}while((temp&0x01)&&!(temp&(1<<16)));	//等待时间到达   
 111              		.loc 1 70 8 is_stmt 1 discriminator 1 view .LVU21
 112              		.loc 1 70 20 is_stmt 0 discriminator 1 view .LVU22
 113 0020 03F00113 		and	r3, r3, #65537
 114              	.LVL6:
 115              		.loc 1 70 2 discriminator 1 view .LVU23
 116 0024 012B     		cmp	r3, #1
 117 0026 F8D0     		beq	.L6
  71:Core/Src/delay.c **** 	SysTick->CTRL&=~SysTick_CTRL_ENABLE_Msk; //关闭计数器
 118              		.loc 1 71 2 is_stmt 1 view .LVU24
 119              		.loc 1 71 15 is_stmt 0 view .LVU25
 120 0028 4FF0E023 		mov	r3, #-536813568
 121 002c 1A69     		ldr	r2, [r3, #16]
 122 002e 22F00102 		bic	r2, r2, #1
 123 0032 1A61     		str	r2, [r3, #16]
  72:Core/Src/delay.c **** 	SysTick->VAL =0X00;       				//清空计数器 
 124              		.loc 1 72 2 is_stmt 1 view .LVU26
 125              		.loc 1 72 15 is_stmt 0 view .LVU27
 126 0034 0022     		movs	r2, #0
 127 0036 9A61     		str	r2, [r3, #24]
  73:Core/Src/delay.c **** }
 128              		.loc 1 73 1 view .LVU28
 129 0038 7047     		bx	lr
 130              	.L8:
 131 003a 00BF     		.align	2
 132              	.L7:
 133 003c 00000000 		.word	.LANCHOR0
 134              		.cfi_endproc
 135              	.LFE131:
 137              		.section	.text.delay_xms,"ax",%progbits
 138              		.align	1
 139              		.global	delay_xms
 140              		.syntax unified
 141              		.thumb
 142              		.thumb_func
 143              		.fpu fpv4-sp-d16
 145              	delay_xms:
 146              	.LVL7:
 147              	.LFB132:
  74:Core/Src/delay.c **** 
  75:Core/Src/delay.c **** /*****************************************************************************
  76:Core/Src/delay.c ****  * @name       :void delay_xms(u16 nms)
  77:Core/Src/delay.c ****  * @date       :2020-05-08 
  78:Core/Src/delay.c ****  * @function   :millisecond delay setting
  79:Core/Src/delay.c ****  * @parameters :mus:milliseconds to delay(No more than 798915us)
  80:Core/Src/delay.c **** 										the Systick > load is a 24 bit register, so the maximum delay is:
  81:Core/Src/delay.c **** 										nms<=0xffffff*8*1000/SYSCLK
  82:Core/Src/delay.c **** 										Sysclk in Hz and NMS in MS
  83:Core/Src/delay.c **** 										At 168MHz, NMS < = 798ms
  84:Core/Src/delay.c ****  * @retvalue   :None
  85:Core/Src/delay.c **** ******************************************************************************/	
  86:Core/Src/delay.c **** void delay_xms(u16 nms)
ARM GAS  C:\Users\savao\AppData\Local\Temp\ccBzQOfe.s 			page 5


  87:Core/Src/delay.c **** {	 		  	  
 148              		.loc 1 87 1 is_stmt 1 view -0
 149              		.cfi_startproc
 150              		@ args = 0, pretend = 0, frame = 0
 151              		@ frame_needed = 0, uses_anonymous_args = 0
 152              		@ link register save eliminated.
  88:Core/Src/delay.c **** 	u32 temp;		   
 153              		.loc 1 88 2 view .LVU30
  89:Core/Src/delay.c **** 	SysTick->LOAD=(u32)nms*fac_ms;			//时间加载(SysTick->LOAD为24bit)
 154              		.loc 1 89 2 view .LVU31
 155              		.loc 1 89 24 is_stmt 0 view .LVU32
 156 0000 0E4B     		ldr	r3, .L11
 157 0002 1B88     		ldrh	r3, [r3]
 158 0004 03FB00F0 		mul	r0, r3, r0
 159              	.LVL8:
 160              		.loc 1 89 15 view .LVU33
 161 0008 4FF0E023 		mov	r3, #-536813568
 162 000c 5861     		str	r0, [r3, #20]
  90:Core/Src/delay.c **** 	SysTick->VAL =0x00;           			//清空计数器
 163              		.loc 1 90 2 is_stmt 1 view .LVU34
 164              		.loc 1 90 15 is_stmt 0 view .LVU35
 165 000e 0022     		movs	r2, #0
 166 0010 9A61     		str	r2, [r3, #24]
  91:Core/Src/delay.c **** 	SysTick->CTRL|=SysTick_CTRL_ENABLE_Msk ;          //开始倒数 
 167              		.loc 1 91 2 is_stmt 1 view .LVU36
 168              		.loc 1 91 15 is_stmt 0 view .LVU37
 169 0012 1A69     		ldr	r2, [r3, #16]
 170 0014 42F00102 		orr	r2, r2, #1
 171 0018 1A61     		str	r2, [r3, #16]
 172              	.L10:
  92:Core/Src/delay.c **** 	do
 173              		.loc 1 92 2 is_stmt 1 discriminator 1 view .LVU38
  93:Core/Src/delay.c **** 	{
  94:Core/Src/delay.c **** 		temp=SysTick->CTRL;
 174              		.loc 1 94 3 discriminator 1 view .LVU39
 175              		.loc 1 94 7 is_stmt 0 discriminator 1 view .LVU40
 176 001a 4FF0E023 		mov	r3, #-536813568
 177 001e 1B69     		ldr	r3, [r3, #16]
 178              	.LVL9:
  95:Core/Src/delay.c **** 	}while((temp&0x01)&&!(temp&(1<<16)));	//等待时间到达   
 179              		.loc 1 95 8 is_stmt 1 discriminator 1 view .LVU41
 180              		.loc 1 95 20 is_stmt 0 discriminator 1 view .LVU42
 181 0020 03F00113 		and	r3, r3, #65537
 182              	.LVL10:
 183              		.loc 1 95 2 discriminator 1 view .LVU43
 184 0024 012B     		cmp	r3, #1
 185 0026 F8D0     		beq	.L10
  96:Core/Src/delay.c **** 	SysTick->CTRL&=~SysTick_CTRL_ENABLE_Msk;       //关闭计数器
 186              		.loc 1 96 2 is_stmt 1 view .LVU44
 187              		.loc 1 96 15 is_stmt 0 view .LVU45
 188 0028 4FF0E023 		mov	r3, #-536813568
 189 002c 1A69     		ldr	r2, [r3, #16]
 190 002e 22F00102 		bic	r2, r2, #1
 191 0032 1A61     		str	r2, [r3, #16]
  97:Core/Src/delay.c **** 	SysTick->VAL =0X00;     		  		//清空计数器	  	    
 192              		.loc 1 97 2 is_stmt 1 view .LVU46
 193              		.loc 1 97 15 is_stmt 0 view .LVU47
ARM GAS  C:\Users\savao\AppData\Local\Temp\ccBzQOfe.s 			page 6


 194 0034 0022     		movs	r2, #0
 195 0036 9A61     		str	r2, [r3, #24]
  98:Core/Src/delay.c **** } 
 196              		.loc 1 98 1 view .LVU48
 197 0038 7047     		bx	lr
 198              	.L12:
 199 003a 00BF     		.align	2
 200              	.L11:
 201 003c 00000000 		.word	.LANCHOR1
 202              		.cfi_endproc
 203              	.LFE132:
 205              		.section	.text.delay_ms,"ax",%progbits
 206              		.align	1
 207              		.global	delay_ms
 208              		.syntax unified
 209              		.thumb
 210              		.thumb_func
 211              		.fpu fpv4-sp-d16
 213              	delay_ms:
 214              	.LVL11:
 215              	.LFB133:
  99:Core/Src/delay.c **** 
 100:Core/Src/delay.c **** /*****************************************************************************
 101:Core/Src/delay.c ****  * @name       :void delay_ms(u16 nms)
 102:Core/Src/delay.c ****  * @date       :2020-05-08 
 103:Core/Src/delay.c ****  * @function   :millisecond delay function
 104:Core/Src/delay.c ****  * @parameters :nus:milliseconds to delay(0~65535)
 105:Core/Src/delay.c ****  * @retvalue   :None
 106:Core/Src/delay.c **** ******************************************************************************/	
 107:Core/Src/delay.c **** void delay_ms(u16 nms)
 108:Core/Src/delay.c **** {	 	 
 216              		.loc 1 108 1 is_stmt 1 view -0
 217              		.cfi_startproc
 218              		@ args = 0, pretend = 0, frame = 0
 219              		@ frame_needed = 0, uses_anonymous_args = 0
 220              		.loc 1 108 1 is_stmt 0 view .LVU50
 221 0000 38B5     		push	{r3, r4, r5, lr}
 222              	.LCFI1:
 223              		.cfi_def_cfa_offset 16
 224              		.cfi_offset 3, -16
 225              		.cfi_offset 4, -12
 226              		.cfi_offset 5, -8
 227              		.cfi_offset 14, -4
 109:Core/Src/delay.c **** 	u8 repeat=nms/540;						//这里用540,是考虑到某些客户可能超频使用,
 228              		.loc 1 109 2 is_stmt 1 view .LVU51
 229              		.loc 1 109 5 is_stmt 0 view .LVU52
 230 0002 0C4C     		ldr	r4, .L19
 231 0004 A4FB0034 		umull	r3, r4, r4, r0
 232 0008 650A     		lsrs	r5, r4, #9
 233 000a 2C46     		mov	r4, r5
 234              	.LVL12:
 110:Core/Src/delay.c **** 											//比如超频到248M的时候,delay_xms最大只能延时541ms左右了
 111:Core/Src/delay.c **** 	u16 remain=nms%540;
 235              		.loc 1 111 2 is_stmt 1 view .LVU53
 236              		.loc 1 111 6 is_stmt 0 view .LVU54
 237 000c 4FF40773 		mov	r3, #540
 238 0010 03FB1500 		mls	r0, r3, r5, r0
ARM GAS  C:\Users\savao\AppData\Local\Temp\ccBzQOfe.s 			page 7


 239              	.LVL13:
 240              		.loc 1 111 6 view .LVU55
 241 0014 85B2     		uxth	r5, r0
 242              	.LVL14:
 112:Core/Src/delay.c **** 	while(repeat)
 243              		.loc 1 112 2 is_stmt 1 view .LVU56
 244              		.loc 1 112 7 is_stmt 0 view .LVU57
 245 0016 05E0     		b	.L14
 246              	.L15:
 113:Core/Src/delay.c **** 	{
 114:Core/Src/delay.c **** 		delay_xms(540);
 247              		.loc 1 114 3 is_stmt 1 view .LVU58
 248 0018 4FF40770 		mov	r0, #540
 249 001c FFF7FEFF 		bl	delay_xms
 250              	.LVL15:
 115:Core/Src/delay.c **** 		repeat--;
 251              		.loc 1 115 3 view .LVU59
 252              		.loc 1 115 9 is_stmt 0 view .LVU60
 253 0020 013C     		subs	r4, r4, #1
 254              	.LVL16:
 255              		.loc 1 115 9 view .LVU61
 256 0022 E4B2     		uxtb	r4, r4
 257              	.LVL17:
 258              	.L14:
 112:Core/Src/delay.c **** 	while(repeat)
 259              		.loc 1 112 7 is_stmt 1 view .LVU62
 260 0024 002C     		cmp	r4, #0
 261 0026 F7D1     		bne	.L15
 116:Core/Src/delay.c **** 	}
 117:Core/Src/delay.c **** 	if(remain)delay_xms(remain);
 262              		.loc 1 117 2 view .LVU63
 263              		.loc 1 117 4 is_stmt 0 view .LVU64
 264 0028 05B9     		cbnz	r5, .L18
 265              	.L13:
 118:Core/Src/delay.c **** } 
 266              		.loc 1 118 1 view .LVU65
 267 002a 38BD     		pop	{r3, r4, r5, pc}
 268              	.LVL18:
 269              	.L18:
 117:Core/Src/delay.c **** } 
 270              		.loc 1 117 12 is_stmt 1 discriminator 1 view .LVU66
 271 002c 2846     		mov	r0, r5
 272 002e FFF7FEFF 		bl	delay_xms
 273              	.LVL19:
 274              		.loc 1 118 1 is_stmt 0 discriminator 1 view .LVU67
 275 0032 FAE7     		b	.L13
 276              	.L20:
 277              		.align	2
 278              	.L19:
 279 0034 49D6B9F2 		.word	-222702007
 280              		.cfi_endproc
 281              	.LFE133:
 283              		.section	.bss.fac_ms,"aw",%nobits
 284              		.align	1
 285              		.set	.LANCHOR1,. + 0
 288              	fac_ms:
 289 0000 0000     		.space	2
ARM GAS  C:\Users\savao\AppData\Local\Temp\ccBzQOfe.s 			page 8


 290              		.section	.bss.fac_us,"aw",%nobits
 291              		.set	.LANCHOR0,. + 0
 294              	fac_us:
 295 0000 00       		.space	1
 296              		.text
 297              	.Letext0:
 298              		.file 2 "c:\\program files (x86)\\gnu arm embedded toolchain\\10 2020-q4-major\\arm-none-eabi\\inc
 299              		.file 3 "c:\\program files (x86)\\gnu arm embedded toolchain\\10 2020-q4-major\\arm-none-eabi\\inc
 300              		.file 4 "Drivers/CMSIS/Include/core_cm4.h"
 301              		.file 5 "Core/Inc/stm32f4xx.h"
 302              		.file 6 "Drivers/STM32F4xx_FWLIB/inc/misc.h"
ARM GAS  C:\Users\savao\AppData\Local\Temp\ccBzQOfe.s 			page 9

