ARM GAS  C:\Users\savao\AppData\Local\Temp\ccRdM6zw.s 			page 1


   1              		.cpu cortex-m4
   2              		.eabi_attribute 27, 1
   3              		.eabi_attribute 28, 1
   4              		.eabi_attribute 20, 1
   5              		.eabi_attribute 21, 1
   6              		.eabi_attribute 23, 3
   7              		.eabi_attribute 24, 1
   8              		.eabi_attribute 25, 1
   9              		.eabi_attribute 26, 1
  10              		.eabi_attribute 30, 1
  11              		.eabi_attribute 34, 1
  12              		.eabi_attribute 18, 4
  13              		.file	"GUI.c"
  14              		.text
  15              	.Ltext0:
  16              		.cfi_sections	.debug_frame
  17              		.section	.text._swap,"ax",%progbits
  18              		.align	1
  19              		.arch armv7e-m
  20              		.syntax unified
  21              		.thumb
  22              		.thumb_func
  23              		.fpu fpv4-sp-d16
  25              	_swap:
  26              	.LVL0:
  27              	.LFB138:
  28              		.file 1 "Core/Src/GUI.c"
   1:Core/Src/GUI.c **** //////////////////////////////////////////////////////////////////////////////////	 
   2:Core/Src/GUI.c **** //本程序只供学习使用，未经作者许可，不得用于其它商业用途
   3:Core/Src/GUI.c **** //测试硬件：单片机STM32F407VGT6,STM32F407VxT6最小系统开发板,主频168MHZ，晶振8MHZ
   4:Core/Src/GUI.c **** //QDtech-TFT液晶驱动 for STM32 FSMC
   5:Core/Src/GUI.c **** //Chan@ShenZhen QDtech co.,LTD
   6:Core/Src/GUI.c **** //公司网站:www.qdtft.com
   7:Core/Src/GUI.c **** //wiki技术资料网站：http://www.lcdwiki.com
   8:Core/Src/GUI.c **** //我司提供技术支持，任何技术问题欢迎随时交流学习
   9:Core/Src/GUI.c **** //固话(传真) :+86 0755-21077707 
  10:Core/Src/GUI.c **** //手机: (销售)18823372746 （技术)15989313508
  11:Core/Src/GUI.c **** //邮箱:(销售/订单) sales@qdtft.com  (售后/技术服务)service@qdtft.com
  12:Core/Src/GUI.c **** //QQ:(售前咨询)3002706772 (技术支持)3002778157
  13:Core/Src/GUI.c **** //技术交流QQ群:778679828
  14:Core/Src/GUI.c **** //创建日期:2020/06/29
  15:Core/Src/GUI.c **** //版本：V1.0
  16:Core/Src/GUI.c **** //版权所有，盗版必究。
  17:Core/Src/GUI.c **** //Copyright(C) 深圳市全动电子技术有限公司 2018-2028
  18:Core/Src/GUI.c **** //All rights reserved
  19:Core/Src/GUI.c **** /************************************************************************************
  20:Core/Src/GUI.c **** //STM32F407VxT6最小系统开发板USB Slave示例
  21:Core/Src/GUI.c **** //     USB_D+         --->            PA12
  22:Core/Src/GUI.c **** //     USB_D-         --->            PA11
  23:Core/Src/GUI.c **** //     LED0           --->            PA1
  24:Core/Src/GUI.c **** //     SD_D0          --->            PC8
  25:Core/Src/GUI.c **** //     SD_D1          --->            PC9
  26:Core/Src/GUI.c **** //     SD_D2          --->            PC10
  27:Core/Src/GUI.c **** //     SD_D3          --->            PC11
  28:Core/Src/GUI.c **** //     SD_CLK         --->            PC12
  29:Core/Src/GUI.c **** //     SD_CMD         --->            PD2
  30:Core/Src/GUI.c **** //     SPI_CLK        --->            PB3
ARM GAS  C:\Users\savao\AppData\Local\Temp\ccRdM6zw.s 			page 2


  31:Core/Src/GUI.c **** //     SPI_MOSI       --->            PB5
  32:Core/Src/GUI.c **** //     SPI_MISO       --->            PB4
  33:Core/Src/GUI.c **** //     USART1_TX      --->            PA9
  34:Core/Src/GUI.c **** //     USART1_RX      --->            PA10
  35:Core/Src/GUI.c **** //支持ILI9341/ILI9486/ILI9488/ST7793/ST7796S/R61509/NT35310/NT35510/SSD1963
  36:Core/Src/GUI.c **** //TFT LCD可以直接插入STM32F407VxT6最小系统开发板TFTLCD插槽或者通过排线接入TFTLCD插座
  37:Core/Src/GUI.c **** //STM32连接引脚是指TFTLCD插槽或者插座引脚内部连接的STM32引脚
  38:Core/Src/GUI.c **** //=================================电源接线=======================================//
  39:Core/Src/GUI.c **** //     LCD模块                    STM32连接引脚
  40:Core/Src/GUI.c **** //      VDD           --->           DC5V/3.3V          //电源
  41:Core/Src/GUI.c **** //      GND           --->             GND              //电源地
  42:Core/Src/GUI.c **** //=============================液晶屏数据线接线===================================//
  43:Core/Src/GUI.c **** //     LCD模块                    STM32连接引脚
  44:Core/Src/GUI.c **** //      DB0           --->            PD14        -|   
  45:Core/Src/GUI.c **** //      DB1           --->            PD15         |  
  46:Core/Src/GUI.c **** //      DB2           --->            PD0          | 
  47:Core/Src/GUI.c **** //      DB3           --->            PD1          | 
  48:Core/Src/GUI.c **** //      DB4           --->            PE7          |
  49:Core/Src/GUI.c **** //      DB5           --->            PE8          |
  50:Core/Src/GUI.c **** //      DB6           --->            PE9          |
  51:Core/Src/GUI.c **** //      DB7           --->            PE10         |===>液晶屏16位并口数据信号
  52:Core/Src/GUI.c **** //      DB8           --->            PE11         |
  53:Core/Src/GUI.c **** //      DB9           --->            PE12         |
  54:Core/Src/GUI.c **** //      DB10          --->            PE13         |
  55:Core/Src/GUI.c **** //      DB11          --->            PE14         |
  56:Core/Src/GUI.c **** //      DB12          --->            PE15         |
  57:Core/Src/GUI.c **** //      DB13          --->            PD8          |
  58:Core/Src/GUI.c **** //      DB14          --->            PD9          |
  59:Core/Src/GUI.c **** //      DB15          --->            PD10        -|
  60:Core/Src/GUI.c **** //=============================液晶屏控制线接线===================================//
  61:Core/Src/GUI.c **** //     LCD模块 				            STM32连接引脚 
  62:Core/Src/GUI.c **** //      WR            --->            PD5             //液晶屏写数据控制信号
  63:Core/Src/GUI.c **** //      RD            --->            PD4             //液晶屏读数据控制信号
  64:Core/Src/GUI.c **** //      RS            --->            PD11            //液晶屏数据/命令控制信号
  65:Core/Src/GUI.c **** //      RST           --->          复位引脚（默认）  //液晶屏复位控制信号（也可选择PD13）
  66:Core/Src/GUI.c **** //      CS            --->            PD7             //液晶屏片选控制信号
  67:Core/Src/GUI.c **** //      BL            --->            PB15            //液晶屏背光控制信号
  68:Core/Src/GUI.c **** *************************************************************************************/	
  69:Core/Src/GUI.c ****  /* @attention
  70:Core/Src/GUI.c ****   *
  71:Core/Src/GUI.c ****   * THE PRESENT FIRMWARE WHICH IS FOR GUIDANCE ONLY AIMS AT PROVIDING CUSTOMERS
  72:Core/Src/GUI.c ****   * WITH CODING INFORMATION REGARDING THEIR PRODUCTS IN ORDER FOR THEM TO SAVE
  73:Core/Src/GUI.c ****   * TIME. AS A RESULT, QD electronic SHALL NOT BE HELD LIABLE FOR ANY
  74:Core/Src/GUI.c ****   * DIRECT, INDIRECT OR CONSEQUENTIAL DAMAGES WITH RESPECT TO ANY CLAIMS ARISING
  75:Core/Src/GUI.c ****   * FROM THE CONTENT OF SUCH FIRMWARE AND/OR THE USE MADE BY CUSTOMERS OF THE
  76:Core/Src/GUI.c ****   * CODING INFORMATION CONTAINED HEREIN IN CONNECTION WITH THEIR PRODUCTS.
  77:Core/Src/GUI.c **** *************************************************************************************/			
  78:Core/Src/GUI.c **** #include "lcd.h"
  79:Core/Src/GUI.c **** #include "string.h"
  80:Core/Src/GUI.c **** #include "font.h" 
  81:Core/Src/GUI.c **** #include "delay.h"
  82:Core/Src/GUI.c **** #include "gui.h"
  83:Core/Src/GUI.c **** 
  84:Core/Src/GUI.c **** /*******************************************************************
  85:Core/Src/GUI.c ****  * @name       :void GUI_DrawPoint(u16 x,u16 y,u16 color)
  86:Core/Src/GUI.c ****  * @date       :2018-08-09 
  87:Core/Src/GUI.c ****  * @function   :draw a point in LCD screen
ARM GAS  C:\Users\savao\AppData\Local\Temp\ccRdM6zw.s 			page 3


  88:Core/Src/GUI.c ****  * @parameters :x:the x coordinate of the point
  89:Core/Src/GUI.c ****                 y:the y coordinate of the point
  90:Core/Src/GUI.c **** 								color:the color value of the point
  91:Core/Src/GUI.c ****  * @retvalue   :None
  92:Core/Src/GUI.c **** ********************************************************************/
  93:Core/Src/GUI.c **** void GUI_DrawPoint(u16 x,u16 y,u16 color)
  94:Core/Src/GUI.c **** {
  95:Core/Src/GUI.c **** 	LCD_SetCursor(x,y);//设置光标位置 
  96:Core/Src/GUI.c **** 	Lcd_WriteData_16Bit(color); 
  97:Core/Src/GUI.c **** }
  98:Core/Src/GUI.c **** 
  99:Core/Src/GUI.c **** /*******************************************************************
 100:Core/Src/GUI.c ****  * @name       :void LCD_Fill(u16 sx,u16 sy,u16 ex,u16 ey,u16 color)
 101:Core/Src/GUI.c ****  * @date       :2018-08-09 
 102:Core/Src/GUI.c ****  * @function   :fill the specified area
 103:Core/Src/GUI.c ****  * @parameters :sx:the bebinning x coordinate of the specified area
 104:Core/Src/GUI.c ****                 sy:the bebinning y coordinate of the specified area
 105:Core/Src/GUI.c **** 								ex:the ending x coordinate of the specified area
 106:Core/Src/GUI.c **** 								ey:the ending y coordinate of the specified area
 107:Core/Src/GUI.c **** 								color:the filled color value
 108:Core/Src/GUI.c ****  * @retvalue   :None
 109:Core/Src/GUI.c **** ********************************************************************/
 110:Core/Src/GUI.c **** void LCD_Fill(u16 sx,u16 sy,u16 ex,u16 ey,u16 color)
 111:Core/Src/GUI.c **** {  	
 112:Core/Src/GUI.c **** 	u16 i,j;			
 113:Core/Src/GUI.c **** 	u16 width=ex-sx+1; 		//得到填充的宽度
 114:Core/Src/GUI.c **** 	u16 height=ey-sy+1;		//高度
 115:Core/Src/GUI.c **** 	LCD_SetWindows(sx,sy,ex,ey);//设置显示窗口
 116:Core/Src/GUI.c **** 	for(i=0;i<height;i++)
 117:Core/Src/GUI.c **** 	{
 118:Core/Src/GUI.c **** 		for(j=0;j<width;j++)
 119:Core/Src/GUI.c **** 		Lcd_WriteData_16Bit(color);	//写入数据 	 
 120:Core/Src/GUI.c **** 	}
 121:Core/Src/GUI.c **** 	LCD_SetWindows(0,0,lcddev.width-1,lcddev.height-1);//恢复窗口设置为全屏
 122:Core/Src/GUI.c **** }
 123:Core/Src/GUI.c **** 
 124:Core/Src/GUI.c **** /*******************************************************************
 125:Core/Src/GUI.c ****  * @name       :void LCD_DrawLine(u16 x1, u16 y1, u16 x2, u16 y2)
 126:Core/Src/GUI.c ****  * @date       :2018-08-09 
 127:Core/Src/GUI.c ****  * @function   :Draw a line between two points
 128:Core/Src/GUI.c ****  * @parameters :x1:the bebinning x coordinate of the line
 129:Core/Src/GUI.c ****                 y1:the bebinning y coordinate of the line
 130:Core/Src/GUI.c **** 								x2:the ending x coordinate of the line
 131:Core/Src/GUI.c **** 								y2:the ending y coordinate of the line
 132:Core/Src/GUI.c ****  * @retvalue   :None
 133:Core/Src/GUI.c **** ********************************************************************/
 134:Core/Src/GUI.c **** void LCD_DrawLine(u16 x1, u16 y1, u16 x2, u16 y2)
 135:Core/Src/GUI.c **** {
 136:Core/Src/GUI.c **** 	u16 t; 
 137:Core/Src/GUI.c **** 	int xerr=0,yerr=0,delta_x,delta_y,distance; 
 138:Core/Src/GUI.c **** 	int incx,incy,uRow,uCol; 
 139:Core/Src/GUI.c **** 
 140:Core/Src/GUI.c **** 	delta_x=x2-x1; //计算坐标增量 
 141:Core/Src/GUI.c **** 	delta_y=y2-y1; 
 142:Core/Src/GUI.c **** 	uRow=x1; 
 143:Core/Src/GUI.c **** 	uCol=y1; 
 144:Core/Src/GUI.c **** 	if(delta_x>0)incx=1; //设置单步方向 
ARM GAS  C:\Users\savao\AppData\Local\Temp\ccRdM6zw.s 			page 4


 145:Core/Src/GUI.c **** 	else if(delta_x==0)incx=0;//垂直线 
 146:Core/Src/GUI.c **** 	else {incx=-1;delta_x=-delta_x;} 
 147:Core/Src/GUI.c **** 	if(delta_y>0)incy=1; 
 148:Core/Src/GUI.c **** 	else if(delta_y==0)incy=0;//水平线 
 149:Core/Src/GUI.c **** 	else{incy=-1;delta_y=-delta_y;} 
 150:Core/Src/GUI.c **** 	if( delta_x>delta_y)distance=delta_x; //选取基本增量坐标轴 
 151:Core/Src/GUI.c **** 	else distance=delta_y; 
 152:Core/Src/GUI.c **** 	for(t=0;t<=distance+1;t++ )//画线输出 
 153:Core/Src/GUI.c **** 	{  
 154:Core/Src/GUI.c **** 		LCD_DrawPoint(uRow,uCol);//画点 
 155:Core/Src/GUI.c **** 		xerr+=delta_x ; 
 156:Core/Src/GUI.c **** 		yerr+=delta_y ; 
 157:Core/Src/GUI.c **** 		if(xerr>distance) 
 158:Core/Src/GUI.c **** 		{ 
 159:Core/Src/GUI.c **** 			xerr-=distance; 
 160:Core/Src/GUI.c **** 			uRow+=incx; 
 161:Core/Src/GUI.c **** 		} 
 162:Core/Src/GUI.c **** 		if(yerr>distance) 
 163:Core/Src/GUI.c **** 		{ 
 164:Core/Src/GUI.c **** 			yerr-=distance; 
 165:Core/Src/GUI.c **** 			uCol+=incy; 
 166:Core/Src/GUI.c **** 		} 
 167:Core/Src/GUI.c **** 	}  
 168:Core/Src/GUI.c **** } 
 169:Core/Src/GUI.c **** 
 170:Core/Src/GUI.c **** /*****************************************************************************
 171:Core/Src/GUI.c ****  * @name       :void LCD_DrawRectangle(u16 x1, u16 y1, u16 x2, u16 y2)
 172:Core/Src/GUI.c ****  * @date       :2018-08-09 
 173:Core/Src/GUI.c ****  * @function   :Draw a rectangle
 174:Core/Src/GUI.c ****  * @parameters :x1:the bebinning x coordinate of the rectangle
 175:Core/Src/GUI.c ****                 y1:the bebinning y coordinate of the rectangle
 176:Core/Src/GUI.c **** 								x2:the ending x coordinate of the rectangle
 177:Core/Src/GUI.c **** 								y2:the ending y coordinate of the rectangle
 178:Core/Src/GUI.c ****  * @retvalue   :None
 179:Core/Src/GUI.c **** ******************************************************************************/
 180:Core/Src/GUI.c **** void LCD_DrawRectangle(u16 x1, u16 y1, u16 x2, u16 y2)
 181:Core/Src/GUI.c **** {
 182:Core/Src/GUI.c **** 	LCD_DrawLine(x1,y1,x2,y1);
 183:Core/Src/GUI.c **** 	LCD_DrawLine(x1,y1,x1,y2);
 184:Core/Src/GUI.c **** 	LCD_DrawLine(x1,y2,x2,y2);
 185:Core/Src/GUI.c **** 	LCD_DrawLine(x2,y1,x2,y2);
 186:Core/Src/GUI.c **** }  
 187:Core/Src/GUI.c **** 
 188:Core/Src/GUI.c **** /*****************************************************************************
 189:Core/Src/GUI.c ****  * @name       :void LCD_DrawFillRectangle(u16 x1, u16 y1, u16 x2, u16 y2)
 190:Core/Src/GUI.c ****  * @date       :2018-08-09 
 191:Core/Src/GUI.c ****  * @function   :Filled a rectangle
 192:Core/Src/GUI.c ****  * @parameters :x1:the bebinning x coordinate of the filled rectangle
 193:Core/Src/GUI.c ****                 y1:the bebinning y coordinate of the filled rectangle
 194:Core/Src/GUI.c **** 								x2:the ending x coordinate of the filled rectangle
 195:Core/Src/GUI.c **** 								y2:the ending y coordinate of the filled rectangle
 196:Core/Src/GUI.c ****  * @retvalue   :None
 197:Core/Src/GUI.c **** ******************************************************************************/  
 198:Core/Src/GUI.c **** void LCD_DrawFillRectangle(u16 x1, u16 y1, u16 x2, u16 y2)
 199:Core/Src/GUI.c **** {
 200:Core/Src/GUI.c **** 	LCD_Fill(x1,y1,x2,y2,POINT_COLOR);
 201:Core/Src/GUI.c **** }
ARM GAS  C:\Users\savao\AppData\Local\Temp\ccRdM6zw.s 			page 5


 202:Core/Src/GUI.c ****  
 203:Core/Src/GUI.c **** /*****************************************************************************
 204:Core/Src/GUI.c ****  * @name       :void _draw_circle_8(int xc, int yc, int x, int y, u16 c)
 205:Core/Src/GUI.c ****  * @date       :2018-08-09 
 206:Core/Src/GUI.c ****  * @function   :8 symmetry circle drawing algorithm (internal call)
 207:Core/Src/GUI.c ****  * @parameters :xc:the x coordinate of the Circular center 
 208:Core/Src/GUI.c ****                 yc:the y coordinate of the Circular center 
 209:Core/Src/GUI.c **** 								x:the x coordinate relative to the Circular center 
 210:Core/Src/GUI.c **** 								y:the y coordinate relative to the Circular center 
 211:Core/Src/GUI.c **** 								c:the color value of the circle
 212:Core/Src/GUI.c ****  * @retvalue   :None
 213:Core/Src/GUI.c **** ******************************************************************************/  
 214:Core/Src/GUI.c **** void _draw_circle_8(int xc, int yc, int x, int y, u16 c)
 215:Core/Src/GUI.c **** {
 216:Core/Src/GUI.c **** 	GUI_DrawPoint(xc + x, yc + y, c);
 217:Core/Src/GUI.c **** 
 218:Core/Src/GUI.c **** 	GUI_DrawPoint(xc - x, yc + y, c);
 219:Core/Src/GUI.c **** 
 220:Core/Src/GUI.c **** 	GUI_DrawPoint(xc + x, yc - y, c);
 221:Core/Src/GUI.c **** 
 222:Core/Src/GUI.c **** 	GUI_DrawPoint(xc - x, yc - y, c);
 223:Core/Src/GUI.c **** 
 224:Core/Src/GUI.c **** 	GUI_DrawPoint(xc + y, yc + x, c);
 225:Core/Src/GUI.c **** 
 226:Core/Src/GUI.c **** 	GUI_DrawPoint(xc - y, yc + x, c);
 227:Core/Src/GUI.c **** 
 228:Core/Src/GUI.c **** 	GUI_DrawPoint(xc + y, yc - x, c);
 229:Core/Src/GUI.c **** 
 230:Core/Src/GUI.c **** 	GUI_DrawPoint(xc - y, yc - x, c);
 231:Core/Src/GUI.c **** }
 232:Core/Src/GUI.c **** 
 233:Core/Src/GUI.c **** /*****************************************************************************
 234:Core/Src/GUI.c ****  * @name       :void gui_circle(int xc, int yc,u16 c,int r, int fill)
 235:Core/Src/GUI.c ****  * @date       :2018-08-09 
 236:Core/Src/GUI.c ****  * @function   :Draw a circle of specified size at a specified location
 237:Core/Src/GUI.c ****  * @parameters :xc:the x coordinate of the Circular center 
 238:Core/Src/GUI.c ****                 yc:the y coordinate of the Circular center 
 239:Core/Src/GUI.c **** 								r:Circular radius
 240:Core/Src/GUI.c **** 								fill:1-filling,0-no filling
 241:Core/Src/GUI.c ****  * @retvalue   :None
 242:Core/Src/GUI.c **** ******************************************************************************/  
 243:Core/Src/GUI.c **** void gui_circle(int xc, int yc,u16 c,int r, int fill)
 244:Core/Src/GUI.c **** {
 245:Core/Src/GUI.c **** 	int x = 0, y = r, yi, d;
 246:Core/Src/GUI.c **** 
 247:Core/Src/GUI.c **** 	d = 3 - 2 * r;
 248:Core/Src/GUI.c **** 
 249:Core/Src/GUI.c **** 
 250:Core/Src/GUI.c **** 	if (fill) 
 251:Core/Src/GUI.c **** 	{
 252:Core/Src/GUI.c **** 		// 如果填充（画实心圆）
 253:Core/Src/GUI.c **** 		while (x <= y) {
 254:Core/Src/GUI.c **** 			for (yi = x; yi <= y; yi++)
 255:Core/Src/GUI.c **** 				_draw_circle_8(xc, yc, x, yi, c);
 256:Core/Src/GUI.c **** 
 257:Core/Src/GUI.c **** 			if (d < 0) {
 258:Core/Src/GUI.c **** 				d = d + 4 * x + 6;
ARM GAS  C:\Users\savao\AppData\Local\Temp\ccRdM6zw.s 			page 6


 259:Core/Src/GUI.c **** 			} else {
 260:Core/Src/GUI.c **** 				d = d + 4 * (x - y) + 10;
 261:Core/Src/GUI.c **** 				y--;
 262:Core/Src/GUI.c **** 			}
 263:Core/Src/GUI.c **** 			x++;
 264:Core/Src/GUI.c **** 		}
 265:Core/Src/GUI.c **** 	} else 
 266:Core/Src/GUI.c **** 	{
 267:Core/Src/GUI.c **** 		// 如果不填充（画空心圆）
 268:Core/Src/GUI.c **** 		while (x <= y) {
 269:Core/Src/GUI.c **** 			_draw_circle_8(xc, yc, x, y, c);
 270:Core/Src/GUI.c **** 			if (d < 0) {
 271:Core/Src/GUI.c **** 				d = d + 4 * x + 6;
 272:Core/Src/GUI.c **** 			} else {
 273:Core/Src/GUI.c **** 				d = d + 4 * (x - y) + 10;
 274:Core/Src/GUI.c **** 				y--;
 275:Core/Src/GUI.c **** 			}
 276:Core/Src/GUI.c **** 			x++;
 277:Core/Src/GUI.c **** 		}
 278:Core/Src/GUI.c **** 	}
 279:Core/Src/GUI.c **** }
 280:Core/Src/GUI.c **** 
 281:Core/Src/GUI.c **** /*****************************************************************************
 282:Core/Src/GUI.c ****  * @name       :void Draw_Triangel(u16 x0,u16 y0,u16 x1,u16 y1,u16 x2,u16 y2)
 283:Core/Src/GUI.c ****  * @date       :2018-08-09 
 284:Core/Src/GUI.c ****  * @function   :Draw a triangle at a specified position
 285:Core/Src/GUI.c ****  * @parameters :x0:the bebinning x coordinate of the triangular edge 
 286:Core/Src/GUI.c ****                 y0:the bebinning y coordinate of the triangular edge 
 287:Core/Src/GUI.c **** 								x1:the vertex x coordinate of the triangular
 288:Core/Src/GUI.c **** 								y1:the vertex y coordinate of the triangular
 289:Core/Src/GUI.c **** 								x2:the ending x coordinate of the triangular edge 
 290:Core/Src/GUI.c **** 								y2:the ending y coordinate of the triangular edge 
 291:Core/Src/GUI.c ****  * @retvalue   :None
 292:Core/Src/GUI.c **** ******************************************************************************/ 
 293:Core/Src/GUI.c **** void Draw_Triangel(u16 x0,u16 y0,u16 x1,u16 y1,u16 x2,u16 y2)
 294:Core/Src/GUI.c **** {
 295:Core/Src/GUI.c **** 	LCD_DrawLine(x0,y0,x1,y1);
 296:Core/Src/GUI.c **** 	LCD_DrawLine(x1,y1,x2,y2);
 297:Core/Src/GUI.c **** 	LCD_DrawLine(x2,y2,x0,y0);
 298:Core/Src/GUI.c **** }
 299:Core/Src/GUI.c **** 
 300:Core/Src/GUI.c **** static void _swap(u16 *a, u16 *b)
 301:Core/Src/GUI.c **** {
  29              		.loc 1 301 1 view -0
  30              		.cfi_startproc
  31              		@ args = 0, pretend = 0, frame = 0
  32              		@ frame_needed = 0, uses_anonymous_args = 0
  33              		@ link register save eliminated.
 302:Core/Src/GUI.c **** 	u16 tmp;
  34              		.loc 1 302 2 view .LVU1
 303:Core/Src/GUI.c ****   tmp = *a;
  35              		.loc 1 303 3 view .LVU2
  36              		.loc 1 303 7 is_stmt 0 view .LVU3
  37 0000 0388     		ldrh	r3, [r0]
  38              	.LVL1:
 304:Core/Src/GUI.c **** 	*a = *b;
  39              		.loc 1 304 2 is_stmt 1 view .LVU4
ARM GAS  C:\Users\savao\AppData\Local\Temp\ccRdM6zw.s 			page 7


  40              		.loc 1 304 7 is_stmt 0 view .LVU5
  41 0002 0A88     		ldrh	r2, [r1]
  42              		.loc 1 304 5 view .LVU6
  43 0004 0280     		strh	r2, [r0]	@ movhi
 305:Core/Src/GUI.c **** 	*b = tmp;
  44              		.loc 1 305 2 is_stmt 1 view .LVU7
  45              		.loc 1 305 5 is_stmt 0 view .LVU8
  46 0006 0B80     		strh	r3, [r1]	@ movhi
 306:Core/Src/GUI.c **** }
  47              		.loc 1 306 1 view .LVU9
  48 0008 7047     		bx	lr
  49              		.cfi_endproc
  50              	.LFE138:
  52              		.section	.text.GUI_DrawPoint,"ax",%progbits
  53              		.align	1
  54              		.global	GUI_DrawPoint
  55              		.syntax unified
  56              		.thumb
  57              		.thumb_func
  58              		.fpu fpv4-sp-d16
  60              	GUI_DrawPoint:
  61              	.LVL2:
  62              	.LFB130:
  94:Core/Src/GUI.c **** 	LCD_SetCursor(x,y);//设置光标位置 
  63              		.loc 1 94 1 is_stmt 1 view -0
  64              		.cfi_startproc
  65              		@ args = 0, pretend = 0, frame = 0
  66              		@ frame_needed = 0, uses_anonymous_args = 0
  94:Core/Src/GUI.c **** 	LCD_SetCursor(x,y);//设置光标位置 
  67              		.loc 1 94 1 is_stmt 0 view .LVU11
  68 0000 10B5     		push	{r4, lr}
  69              	.LCFI0:
  70              		.cfi_def_cfa_offset 8
  71              		.cfi_offset 4, -8
  72              		.cfi_offset 14, -4
  73 0002 1446     		mov	r4, r2
  95:Core/Src/GUI.c **** 	Lcd_WriteData_16Bit(color); 
  74              		.loc 1 95 2 is_stmt 1 view .LVU12
  75 0004 FFF7FEFF 		bl	LCD_SetCursor
  76              	.LVL3:
  96:Core/Src/GUI.c **** }
  77              		.loc 1 96 2 view .LVU13
  78 0008 2046     		mov	r0, r4
  79 000a FFF7FEFF 		bl	Lcd_WriteData_16Bit
  80              	.LVL4:
  97:Core/Src/GUI.c **** 
  81              		.loc 1 97 1 is_stmt 0 view .LVU14
  82 000e 10BD     		pop	{r4, pc}
  83              		.cfi_endproc
  84              	.LFE130:
  86              		.section	.text.LCD_Fill,"ax",%progbits
  87              		.align	1
  88              		.global	LCD_Fill
  89              		.syntax unified
  90              		.thumb
  91              		.thumb_func
  92              		.fpu fpv4-sp-d16
ARM GAS  C:\Users\savao\AppData\Local\Temp\ccRdM6zw.s 			page 8


  94              	LCD_Fill:
  95              	.LVL5:
  96              	.LFB131:
 111:Core/Src/GUI.c **** 	u16 i,j;			
  97              		.loc 1 111 1 is_stmt 1 view -0
  98              		.cfi_startproc
  99              		@ args = 4, pretend = 0, frame = 0
 100              		@ frame_needed = 0, uses_anonymous_args = 0
 111:Core/Src/GUI.c **** 	u16 i,j;			
 101              		.loc 1 111 1 is_stmt 0 view .LVU16
 102 0000 2DE9F041 		push	{r4, r5, r6, r7, r8, lr}
 103              	.LCFI1:
 104              		.cfi_def_cfa_offset 24
 105              		.cfi_offset 4, -24
 106              		.cfi_offset 5, -20
 107              		.cfi_offset 6, -16
 108              		.cfi_offset 7, -12
 109              		.cfi_offset 8, -8
 110              		.cfi_offset 14, -4
 111 0004 BDF81860 		ldrh	r6, [sp, #24]
 112:Core/Src/GUI.c **** 	u16 width=ex-sx+1; 		//得到填充的宽度
 112              		.loc 1 112 2 is_stmt 1 view .LVU17
 113:Core/Src/GUI.c **** 	u16 height=ey-sy+1;		//高度
 113              		.loc 1 113 2 view .LVU18
 113:Core/Src/GUI.c **** 	u16 height=ey-sy+1;		//高度
 114              		.loc 1 113 14 is_stmt 0 view .LVU19
 115 0008 151A     		subs	r5, r2, r0
 116 000a ADB2     		uxth	r5, r5
 113:Core/Src/GUI.c **** 	u16 height=ey-sy+1;		//高度
 117              		.loc 1 113 6 view .LVU20
 118 000c 0135     		adds	r5, r5, #1
 119 000e ADB2     		uxth	r5, r5
 120              	.LVL6:
 114:Core/Src/GUI.c **** 	LCD_SetWindows(sx,sy,ex,ey);//设置显示窗口
 121              		.loc 1 114 2 is_stmt 1 view .LVU21
 114:Core/Src/GUI.c **** 	LCD_SetWindows(sx,sy,ex,ey);//设置显示窗口
 122              		.loc 1 114 15 is_stmt 0 view .LVU22
 123 0010 A3EB0108 		sub	r8, r3, r1
 124 0014 1FFA88F8 		uxth	r8, r8
 114:Core/Src/GUI.c **** 	LCD_SetWindows(sx,sy,ex,ey);//设置显示窗口
 125              		.loc 1 114 6 view .LVU23
 126 0018 08F10108 		add	r8, r8, #1
 127 001c 1FFA88F8 		uxth	r8, r8
 128              	.LVL7:
 115:Core/Src/GUI.c **** 	for(i=0;i<height;i++)
 129              		.loc 1 115 2 is_stmt 1 view .LVU24
 130 0020 FFF7FEFF 		bl	LCD_SetWindows
 131              	.LVL8:
 116:Core/Src/GUI.c **** 	{
 132              		.loc 1 116 2 view .LVU25
 116:Core/Src/GUI.c **** 	{
 133              		.loc 1 116 7 is_stmt 0 view .LVU26
 134 0024 0027     		movs	r7, #0
 116:Core/Src/GUI.c **** 	{
 135              		.loc 1 116 2 view .LVU27
 136 0026 08E0     		b	.L5
 137              	.LVL9:
ARM GAS  C:\Users\savao\AppData\Local\Temp\ccRdM6zw.s 			page 9


 138              	.L6:
 119:Core/Src/GUI.c **** 	}
 139              		.loc 1 119 3 is_stmt 1 discriminator 3 view .LVU28
 140 0028 3046     		mov	r0, r6
 141 002a FFF7FEFF 		bl	Lcd_WriteData_16Bit
 142              	.LVL10:
 118:Core/Src/GUI.c **** 		Lcd_WriteData_16Bit(color);	//写入数据 	 
 143              		.loc 1 118 19 discriminator 3 view .LVU29
 118:Core/Src/GUI.c **** 		Lcd_WriteData_16Bit(color);	//写入数据 	 
 144              		.loc 1 118 20 is_stmt 0 discriminator 3 view .LVU30
 145 002e 0134     		adds	r4, r4, #1
 146              	.LVL11:
 118:Core/Src/GUI.c **** 		Lcd_WriteData_16Bit(color);	//写入数据 	 
 147              		.loc 1 118 20 discriminator 3 view .LVU31
 148 0030 A4B2     		uxth	r4, r4
 149              	.LVL12:
 150              	.L7:
 118:Core/Src/GUI.c **** 		Lcd_WriteData_16Bit(color);	//写入数据 	 
 151              		.loc 1 118 11 is_stmt 1 discriminator 1 view .LVU32
 118:Core/Src/GUI.c **** 		Lcd_WriteData_16Bit(color);	//写入数据 	 
 152              		.loc 1 118 3 is_stmt 0 discriminator 1 view .LVU33
 153 0032 AC42     		cmp	r4, r5
 154 0034 F8D3     		bcc	.L6
 116:Core/Src/GUI.c **** 	{
 155              		.loc 1 116 19 is_stmt 1 discriminator 2 view .LVU34
 116:Core/Src/GUI.c **** 	{
 156              		.loc 1 116 20 is_stmt 0 discriminator 2 view .LVU35
 157 0036 0137     		adds	r7, r7, #1
 158              	.LVL13:
 116:Core/Src/GUI.c **** 	{
 159              		.loc 1 116 20 discriminator 2 view .LVU36
 160 0038 BFB2     		uxth	r7, r7
 161              	.LVL14:
 162              	.L5:
 116:Core/Src/GUI.c **** 	{
 163              		.loc 1 116 10 is_stmt 1 discriminator 1 view .LVU37
 116:Core/Src/GUI.c **** 	{
 164              		.loc 1 116 2 is_stmt 0 discriminator 1 view .LVU38
 165 003a 4745     		cmp	r7, r8
 166 003c 01D2     		bcs	.L10
 118:Core/Src/GUI.c **** 		Lcd_WriteData_16Bit(color);	//写入数据 	 
 167              		.loc 1 118 8 view .LVU39
 168 003e 0024     		movs	r4, #0
 169 0040 F7E7     		b	.L7
 170              	.L10:
 121:Core/Src/GUI.c **** }
 171              		.loc 1 121 2 is_stmt 1 view .LVU40
 121:Core/Src/GUI.c **** }
 172              		.loc 1 121 27 is_stmt 0 view .LVU41
 173 0042 064B     		ldr	r3, .L11
 174 0044 9A88     		ldrh	r2, [r3, #4]
 121:Core/Src/GUI.c **** }
 175              		.loc 1 121 42 view .LVU42
 176 0046 DB88     		ldrh	r3, [r3, #6]
 121:Core/Src/GUI.c **** }
 177              		.loc 1 121 2 view .LVU43
 178 0048 013B     		subs	r3, r3, #1
ARM GAS  C:\Users\savao\AppData\Local\Temp\ccRdM6zw.s 			page 10


 179 004a 013A     		subs	r2, r2, #1
 180 004c 9BB2     		uxth	r3, r3
 181 004e 92B2     		uxth	r2, r2
 182 0050 0021     		movs	r1, #0
 183 0052 0846     		mov	r0, r1
 184 0054 FFF7FEFF 		bl	LCD_SetWindows
 185              	.LVL15:
 122:Core/Src/GUI.c **** 
 186              		.loc 1 122 1 view .LVU44
 187 0058 BDE8F081 		pop	{r4, r5, r6, r7, r8, pc}
 188              	.LVL16:
 189              	.L12:
 122:Core/Src/GUI.c **** 
 190              		.loc 1 122 1 view .LVU45
 191              		.align	2
 192              	.L11:
 193 005c 00000000 		.word	lcddev
 194              		.cfi_endproc
 195              	.LFE131:
 197              		.section	.text.LCD_DrawLine,"ax",%progbits
 198              		.align	1
 199              		.global	LCD_DrawLine
 200              		.syntax unified
 201              		.thumb
 202              		.thumb_func
 203              		.fpu fpv4-sp-d16
 205              	LCD_DrawLine:
 206              	.LVL17:
 207              	.LFB132:
 135:Core/Src/GUI.c **** 	u16 t; 
 208              		.loc 1 135 1 is_stmt 1 view -0
 209              		.cfi_startproc
 210              		@ args = 0, pretend = 0, frame = 8
 211              		@ frame_needed = 0, uses_anonymous_args = 0
 135:Core/Src/GUI.c **** 	u16 t; 
 212              		.loc 1 135 1 is_stmt 0 view .LVU47
 213 0000 2DE9F04F 		push	{r4, r5, r6, r7, r8, r9, r10, fp, lr}
 214              	.LCFI2:
 215              		.cfi_def_cfa_offset 36
 216              		.cfi_offset 4, -36
 217              		.cfi_offset 5, -32
 218              		.cfi_offset 6, -28
 219              		.cfi_offset 7, -24
 220              		.cfi_offset 8, -20
 221              		.cfi_offset 9, -16
 222              		.cfi_offset 10, -12
 223              		.cfi_offset 11, -8
 224              		.cfi_offset 14, -4
 225 0004 83B0     		sub	sp, sp, #12
 226              	.LCFI3:
 227              		.cfi_def_cfa_offset 48
 136:Core/Src/GUI.c **** 	int xerr=0,yerr=0,delta_x,delta_y,distance; 
 228              		.loc 1 136 2 is_stmt 1 view .LVU48
 137:Core/Src/GUI.c **** 	int incx,incy,uRow,uCol; 
 229              		.loc 1 137 2 view .LVU49
 230              	.LVL18:
 138:Core/Src/GUI.c **** 
ARM GAS  C:\Users\savao\AppData\Local\Temp\ccRdM6zw.s 			page 11


 231              		.loc 1 138 2 view .LVU50
 140:Core/Src/GUI.c **** 	delta_y=y2-y1; 
 232              		.loc 1 140 2 view .LVU51
 140:Core/Src/GUI.c **** 	delta_y=y2-y1; 
 233              		.loc 1 140 12 is_stmt 0 view .LVU52
 234 0006 8046     		mov	r8, r0
 140:Core/Src/GUI.c **** 	delta_y=y2-y1; 
 235              		.loc 1 140 9 view .LVU53
 236 0008 A2EB000A 		sub	r10, r2, r0
 237              	.LVL19:
 141:Core/Src/GUI.c **** 	uRow=x1; 
 238              		.loc 1 141 2 is_stmt 1 view .LVU54
 141:Core/Src/GUI.c **** 	uRow=x1; 
 239              		.loc 1 141 12 is_stmt 0 view .LVU55
 240 000c 8946     		mov	r9, r1
 141:Core/Src/GUI.c **** 	uRow=x1; 
 241              		.loc 1 141 9 view .LVU56
 242 000e A3EB010B 		sub	fp, r3, r1
 243              	.LVL20:
 142:Core/Src/GUI.c **** 	uCol=y1; 
 244              		.loc 1 142 2 is_stmt 1 view .LVU57
 143:Core/Src/GUI.c **** 	if(delta_x>0)incx=1; //设置单步方向 
 245              		.loc 1 143 2 view .LVU58
 144:Core/Src/GUI.c **** 	else if(delta_x==0)incx=0;//垂直线 
 246              		.loc 1 144 2 view .LVU59
 144:Core/Src/GUI.c **** 	else if(delta_x==0)incx=0;//垂直线 
 247              		.loc 1 144 4 is_stmt 0 view .LVU60
 248 0012 BAF1000F 		cmp	r10, #0
 249 0016 0DDD     		ble	.L27
 144:Core/Src/GUI.c **** 	else if(delta_x==0)incx=0;//垂直线 
 250              		.loc 1 144 19 view .LVU61
 251 0018 0122     		movs	r2, #1
 252              	.LVL21:
 144:Core/Src/GUI.c **** 	else if(delta_x==0)incx=0;//垂直线 
 253              		.loc 1 144 19 view .LVU62
 254 001a 0092     		str	r2, [sp]
 255              	.L14:
 256              	.LVL22:
 147:Core/Src/GUI.c **** 	else if(delta_y==0)incy=0;//水平线 
 257              		.loc 1 147 2 is_stmt 1 view .LVU63
 147:Core/Src/GUI.c **** 	else if(delta_y==0)incy=0;//水平线 
 258              		.loc 1 147 4 is_stmt 0 view .LVU64
 259 001c BBF1000F 		cmp	fp, #0
 260 0020 14DD     		ble	.L28
 147:Core/Src/GUI.c **** 	else if(delta_y==0)incy=0;//水平线 
 261              		.loc 1 147 19 view .LVU65
 262 0022 0123     		movs	r3, #1
 263              	.LVL23:
 147:Core/Src/GUI.c **** 	else if(delta_y==0)incy=0;//水平线 
 264              		.loc 1 147 19 view .LVU66
 265 0024 0193     		str	r3, [sp, #4]
 266              	.L15:
 267              	.LVL24:
 150:Core/Src/GUI.c **** 	else distance=delta_y; 
 268              		.loc 1 150 2 is_stmt 1 view .LVU67
 150:Core/Src/GUI.c **** 	else distance=delta_y; 
 269              		.loc 1 150 4 is_stmt 0 view .LVU68
ARM GAS  C:\Users\savao\AppData\Local\Temp\ccRdM6zw.s 			page 12


 270 0026 DA45     		cmp	r10, fp
 271 0028 1CDD     		ble	.L25
 150:Core/Src/GUI.c **** 	else distance=delta_y; 
 272              		.loc 1 150 30 view .LVU69
 273 002a 5646     		mov	r6, r10
 274              	.L16:
 275              	.LVL25:
 152:Core/Src/GUI.c **** 	{  
 276              		.loc 1 152 2 is_stmt 1 view .LVU70
 137:Core/Src/GUI.c **** 	int incx,incy,uRow,uCol; 
 277              		.loc 1 137 13 is_stmt 0 view .LVU71
 278 002c 0025     		movs	r5, #0
 137:Core/Src/GUI.c **** 	int incx,incy,uRow,uCol; 
 279              		.loc 1 137 6 view .LVU72
 280 002e 2F46     		mov	r7, r5
 152:Core/Src/GUI.c **** 	{  
 281              		.loc 1 152 7 view .LVU73
 282 0030 2C46     		mov	r4, r5
 152:Core/Src/GUI.c **** 	{  
 283              		.loc 1 152 2 view .LVU74
 284 0032 1BE0     		b	.L17
 285              	.LVL26:
 286              	.L27:
 145:Core/Src/GUI.c **** 	else {incx=-1;delta_x=-delta_x;} 
 287              		.loc 1 145 7 is_stmt 1 view .LVU75
 145:Core/Src/GUI.c **** 	else {incx=-1;delta_x=-delta_x;} 
 288              		.loc 1 145 9 is_stmt 0 view .LVU76
 289 0034 BAF1000F 		cmp	r10, #0
 290 0038 05D0     		beq	.L22
 146:Core/Src/GUI.c **** 	if(delta_y>0)incy=1; 
 291              		.loc 1 146 8 is_stmt 1 view .LVU77
 292              	.LVL27:
 146:Core/Src/GUI.c **** 	if(delta_y>0)incy=1; 
 293              		.loc 1 146 16 view .LVU78
 146:Core/Src/GUI.c **** 	if(delta_y>0)incy=1; 
 294              		.loc 1 146 23 is_stmt 0 view .LVU79
 295 003a A0EB020A 		sub	r10, r0, r2
 296              	.LVL28:
 146:Core/Src/GUI.c **** 	if(delta_y>0)incy=1; 
 297              		.loc 1 146 12 view .LVU80
 298 003e 4FF0FF32 		mov	r2, #-1
 299              	.LVL29:
 146:Core/Src/GUI.c **** 	if(delta_y>0)incy=1; 
 300              		.loc 1 146 12 view .LVU81
 301 0042 0092     		str	r2, [sp]
 302 0044 EAE7     		b	.L14
 303              	.LVL30:
 304              	.L22:
 145:Core/Src/GUI.c **** 	else {incx=-1;delta_x=-delta_x;} 
 305              		.loc 1 145 25 view .LVU82
 306 0046 CDF800A0 		str	r10, [sp]
 307 004a E7E7     		b	.L14
 308              	.LVL31:
 309              	.L28:
 148:Core/Src/GUI.c **** 	else{incy=-1;delta_y=-delta_y;} 
 310              		.loc 1 148 7 is_stmt 1 view .LVU83
 148:Core/Src/GUI.c **** 	else{incy=-1;delta_y=-delta_y;} 
ARM GAS  C:\Users\savao\AppData\Local\Temp\ccRdM6zw.s 			page 13


 311              		.loc 1 148 9 is_stmt 0 view .LVU84
 312 004c BBF1000F 		cmp	fp, #0
 313 0050 05D0     		beq	.L24
 149:Core/Src/GUI.c **** 	if( delta_x>delta_y)distance=delta_x; //选取基本增量坐标轴 
 314              		.loc 1 149 7 is_stmt 1 view .LVU85
 315              	.LVL32:
 149:Core/Src/GUI.c **** 	if( delta_x>delta_y)distance=delta_x; //选取基本增量坐标轴 
 316              		.loc 1 149 15 view .LVU86
 149:Core/Src/GUI.c **** 	if( delta_x>delta_y)distance=delta_x; //选取基本增量坐标轴 
 317              		.loc 1 149 22 is_stmt 0 view .LVU87
 318 0052 A1EB030B 		sub	fp, r1, r3
 319              	.LVL33:
 149:Core/Src/GUI.c **** 	if( delta_x>delta_y)distance=delta_x; //选取基本增量坐标轴 
 320              		.loc 1 149 11 view .LVU88
 321 0056 4FF0FF33 		mov	r3, #-1
 322              	.LVL34:
 149:Core/Src/GUI.c **** 	if( delta_x>delta_y)distance=delta_x; //选取基本增量坐标轴 
 323              		.loc 1 149 11 view .LVU89
 324 005a 0193     		str	r3, [sp, #4]
 325 005c E3E7     		b	.L15
 326              	.LVL35:
 327              	.L24:
 148:Core/Src/GUI.c **** 	else{incy=-1;delta_y=-delta_y;} 
 328              		.loc 1 148 25 view .LVU90
 329 005e CDF804B0 		str	fp, [sp, #4]
 330 0062 E0E7     		b	.L15
 331              	.LVL36:
 332              	.L25:
 151:Core/Src/GUI.c **** 	for(t=0;t<=distance+1;t++ )//画线输出 
 333              		.loc 1 151 15 view .LVU91
 334 0064 5E46     		mov	r6, fp
 335 0066 E1E7     		b	.L16
 336              	.LVL37:
 337              	.L19:
 152:Core/Src/GUI.c **** 	{  
 338              		.loc 1 152 24 is_stmt 1 discriminator 2 view .LVU92
 152:Core/Src/GUI.c **** 	{  
 339              		.loc 1 152 25 is_stmt 0 discriminator 2 view .LVU93
 340 0068 0134     		adds	r4, r4, #1
 341              	.LVL38:
 152:Core/Src/GUI.c **** 	{  
 342              		.loc 1 152 25 discriminator 2 view .LVU94
 343 006a A4B2     		uxth	r4, r4
 344              	.LVL39:
 345              	.L17:
 152:Core/Src/GUI.c **** 	{  
 346              		.loc 1 152 10 is_stmt 1 discriminator 1 view .LVU95
 152:Core/Src/GUI.c **** 	{  
 347              		.loc 1 152 21 is_stmt 0 discriminator 1 view .LVU96
 348 006c 731C     		adds	r3, r6, #1
 152:Core/Src/GUI.c **** 	{  
 349              		.loc 1 152 2 discriminator 1 view .LVU97
 350 006e 9C42     		cmp	r4, r3
 351 0070 12DC     		bgt	.L29
 154:Core/Src/GUI.c **** 		xerr+=delta_x ; 
 352              		.loc 1 154 3 is_stmt 1 view .LVU98
 353 0072 1FFA89F1 		uxth	r1, r9
ARM GAS  C:\Users\savao\AppData\Local\Temp\ccRdM6zw.s 			page 14


 354 0076 1FFA88F0 		uxth	r0, r8
 355 007a FFF7FEFF 		bl	LCD_DrawPoint
 356              	.LVL40:
 155:Core/Src/GUI.c **** 		yerr+=delta_y ; 
 357              		.loc 1 155 3 view .LVU99
 155:Core/Src/GUI.c **** 		yerr+=delta_y ; 
 358              		.loc 1 155 7 is_stmt 0 view .LVU100
 359 007e 5744     		add	r7, r7, r10
 360              	.LVL41:
 156:Core/Src/GUI.c **** 		if(xerr>distance) 
 361              		.loc 1 156 3 is_stmt 1 view .LVU101
 156:Core/Src/GUI.c **** 		if(xerr>distance) 
 362              		.loc 1 156 7 is_stmt 0 view .LVU102
 363 0080 5D44     		add	r5, r5, fp
 364              	.LVL42:
 157:Core/Src/GUI.c **** 		{ 
 365              		.loc 1 157 3 is_stmt 1 view .LVU103
 157:Core/Src/GUI.c **** 		{ 
 366              		.loc 1 157 5 is_stmt 0 view .LVU104
 367 0082 BE42     		cmp	r6, r7
 368 0084 02DA     		bge	.L18
 159:Core/Src/GUI.c **** 			uRow+=incx; 
 369              		.loc 1 159 4 is_stmt 1 view .LVU105
 159:Core/Src/GUI.c **** 			uRow+=incx; 
 370              		.loc 1 159 8 is_stmt 0 view .LVU106
 371 0086 BF1B     		subs	r7, r7, r6
 372              	.LVL43:
 160:Core/Src/GUI.c **** 		} 
 373              		.loc 1 160 4 is_stmt 1 view .LVU107
 160:Core/Src/GUI.c **** 		} 
 374              		.loc 1 160 8 is_stmt 0 view .LVU108
 375 0088 009B     		ldr	r3, [sp]
 376 008a 9844     		add	r8, r8, r3
 377              	.LVL44:
 378              	.L18:
 162:Core/Src/GUI.c **** 		{ 
 379              		.loc 1 162 3 is_stmt 1 view .LVU109
 162:Core/Src/GUI.c **** 		{ 
 380              		.loc 1 162 5 is_stmt 0 view .LVU110
 381 008c AE42     		cmp	r6, r5
 382 008e EBDA     		bge	.L19
 164:Core/Src/GUI.c **** 			uCol+=incy; 
 383              		.loc 1 164 4 is_stmt 1 view .LVU111
 164:Core/Src/GUI.c **** 			uCol+=incy; 
 384              		.loc 1 164 8 is_stmt 0 view .LVU112
 385 0090 AD1B     		subs	r5, r5, r6
 386              	.LVL45:
 165:Core/Src/GUI.c **** 		} 
 387              		.loc 1 165 4 is_stmt 1 view .LVU113
 165:Core/Src/GUI.c **** 		} 
 388              		.loc 1 165 8 is_stmt 0 view .LVU114
 389 0092 019B     		ldr	r3, [sp, #4]
 390 0094 9944     		add	r9, r9, r3
 391              	.LVL46:
 165:Core/Src/GUI.c **** 		} 
 392              		.loc 1 165 8 view .LVU115
 393 0096 E7E7     		b	.L19
ARM GAS  C:\Users\savao\AppData\Local\Temp\ccRdM6zw.s 			page 15


 394              	.L29:
 168:Core/Src/GUI.c **** 
 395              		.loc 1 168 1 view .LVU116
 396 0098 03B0     		add	sp, sp, #12
 397              	.LCFI4:
 398              		.cfi_def_cfa_offset 36
 399              	.LVL47:
 168:Core/Src/GUI.c **** 
 400              		.loc 1 168 1 view .LVU117
 401              		@ sp needed
 402 009a BDE8F08F 		pop	{r4, r5, r6, r7, r8, r9, r10, fp, pc}
 168:Core/Src/GUI.c **** 
 403              		.loc 1 168 1 view .LVU118
 404              		.cfi_endproc
 405              	.LFE132:
 407              		.section	.text.LCD_DrawRectangle,"ax",%progbits
 408              		.align	1
 409              		.global	LCD_DrawRectangle
 410              		.syntax unified
 411              		.thumb
 412              		.thumb_func
 413              		.fpu fpv4-sp-d16
 415              	LCD_DrawRectangle:
 416              	.LVL48:
 417              	.LFB133:
 181:Core/Src/GUI.c **** 	LCD_DrawLine(x1,y1,x2,y1);
 418              		.loc 1 181 1 is_stmt 1 view -0
 419              		.cfi_startproc
 420              		@ args = 0, pretend = 0, frame = 0
 421              		@ frame_needed = 0, uses_anonymous_args = 0
 181:Core/Src/GUI.c **** 	LCD_DrawLine(x1,y1,x2,y1);
 422              		.loc 1 181 1 is_stmt 0 view .LVU120
 423 0000 F8B5     		push	{r3, r4, r5, r6, r7, lr}
 424              	.LCFI5:
 425              		.cfi_def_cfa_offset 24
 426              		.cfi_offset 3, -24
 427              		.cfi_offset 4, -20
 428              		.cfi_offset 5, -16
 429              		.cfi_offset 6, -12
 430              		.cfi_offset 7, -8
 431              		.cfi_offset 14, -4
 432 0002 0746     		mov	r7, r0
 433 0004 0E46     		mov	r6, r1
 434 0006 1546     		mov	r5, r2
 435 0008 1C46     		mov	r4, r3
 182:Core/Src/GUI.c **** 	LCD_DrawLine(x1,y1,x1,y2);
 436              		.loc 1 182 2 is_stmt 1 view .LVU121
 437 000a 0B46     		mov	r3, r1
 438              	.LVL49:
 182:Core/Src/GUI.c **** 	LCD_DrawLine(x1,y1,x1,y2);
 439              		.loc 1 182 2 is_stmt 0 view .LVU122
 440 000c FFF7FEFF 		bl	LCD_DrawLine
 441              	.LVL50:
 183:Core/Src/GUI.c **** 	LCD_DrawLine(x1,y2,x2,y2);
 442              		.loc 1 183 2 is_stmt 1 view .LVU123
 443 0010 2346     		mov	r3, r4
 444 0012 3A46     		mov	r2, r7
ARM GAS  C:\Users\savao\AppData\Local\Temp\ccRdM6zw.s 			page 16


 445 0014 3146     		mov	r1, r6
 446 0016 3846     		mov	r0, r7
 447 0018 FFF7FEFF 		bl	LCD_DrawLine
 448              	.LVL51:
 184:Core/Src/GUI.c **** 	LCD_DrawLine(x2,y1,x2,y2);
 449              		.loc 1 184 2 view .LVU124
 450 001c 2346     		mov	r3, r4
 451 001e 2A46     		mov	r2, r5
 452 0020 2146     		mov	r1, r4
 453 0022 3846     		mov	r0, r7
 454 0024 FFF7FEFF 		bl	LCD_DrawLine
 455              	.LVL52:
 185:Core/Src/GUI.c **** }  
 456              		.loc 1 185 2 view .LVU125
 457 0028 2346     		mov	r3, r4
 458 002a 2A46     		mov	r2, r5
 459 002c 3146     		mov	r1, r6
 460 002e 2846     		mov	r0, r5
 461 0030 FFF7FEFF 		bl	LCD_DrawLine
 462              	.LVL53:
 186:Core/Src/GUI.c **** 
 463              		.loc 1 186 1 is_stmt 0 view .LVU126
 464 0034 F8BD     		pop	{r3, r4, r5, r6, r7, pc}
 465              		.cfi_endproc
 466              	.LFE133:
 468              		.section	.text.LCD_DrawFillRectangle,"ax",%progbits
 469              		.align	1
 470              		.global	LCD_DrawFillRectangle
 471              		.syntax unified
 472              		.thumb
 473              		.thumb_func
 474              		.fpu fpv4-sp-d16
 476              	LCD_DrawFillRectangle:
 477              	.LVL54:
 478              	.LFB134:
 199:Core/Src/GUI.c **** 	LCD_Fill(x1,y1,x2,y2,POINT_COLOR);
 479              		.loc 1 199 1 is_stmt 1 view -0
 480              		.cfi_startproc
 481              		@ args = 0, pretend = 0, frame = 0
 482              		@ frame_needed = 0, uses_anonymous_args = 0
 199:Core/Src/GUI.c **** 	LCD_Fill(x1,y1,x2,y2,POINT_COLOR);
 483              		.loc 1 199 1 is_stmt 0 view .LVU128
 484 0000 10B5     		push	{r4, lr}
 485              	.LCFI6:
 486              		.cfi_def_cfa_offset 8
 487              		.cfi_offset 4, -8
 488              		.cfi_offset 14, -4
 489 0002 82B0     		sub	sp, sp, #8
 490              	.LCFI7:
 491              		.cfi_def_cfa_offset 16
 200:Core/Src/GUI.c **** }
 492              		.loc 1 200 2 is_stmt 1 view .LVU129
 493 0004 034C     		ldr	r4, .L34
 494 0006 2488     		ldrh	r4, [r4]
 495 0008 0094     		str	r4, [sp]
 496 000a FFF7FEFF 		bl	LCD_Fill
 497              	.LVL55:
ARM GAS  C:\Users\savao\AppData\Local\Temp\ccRdM6zw.s 			page 17


 201:Core/Src/GUI.c ****  
 498              		.loc 1 201 1 is_stmt 0 view .LVU130
 499 000e 02B0     		add	sp, sp, #8
 500              	.LCFI8:
 501              		.cfi_def_cfa_offset 8
 502              		@ sp needed
 503 0010 10BD     		pop	{r4, pc}
 504              	.L35:
 505 0012 00BF     		.align	2
 506              	.L34:
 507 0014 00000000 		.word	POINT_COLOR
 508              		.cfi_endproc
 509              	.LFE134:
 511              		.section	.text._draw_circle_8,"ax",%progbits
 512              		.align	1
 513              		.global	_draw_circle_8
 514              		.syntax unified
 515              		.thumb
 516              		.thumb_func
 517              		.fpu fpv4-sp-d16
 519              	_draw_circle_8:
 520              	.LVL56:
 521              	.LFB135:
 215:Core/Src/GUI.c **** 	GUI_DrawPoint(xc + x, yc + y, c);
 522              		.loc 1 215 1 is_stmt 1 view -0
 523              		.cfi_startproc
 524              		@ args = 4, pretend = 0, frame = 0
 525              		@ frame_needed = 0, uses_anonymous_args = 0
 215:Core/Src/GUI.c **** 	GUI_DrawPoint(xc + x, yc + y, c);
 526              		.loc 1 215 1 is_stmt 0 view .LVU132
 527 0000 2DE9F84F 		push	{r3, r4, r5, r6, r7, r8, r9, r10, fp, lr}
 528              	.LCFI9:
 529              		.cfi_def_cfa_offset 40
 530              		.cfi_offset 3, -40
 531              		.cfi_offset 4, -36
 532              		.cfi_offset 5, -32
 533              		.cfi_offset 6, -28
 534              		.cfi_offset 7, -24
 535              		.cfi_offset 8, -20
 536              		.cfi_offset 9, -16
 537              		.cfi_offset 10, -12
 538              		.cfi_offset 11, -8
 539              		.cfi_offset 14, -4
 540 0004 BDF82860 		ldrh	r6, [sp, #40]
 216:Core/Src/GUI.c **** 
 541              		.loc 1 216 2 is_stmt 1 view .LVU133
 542 0008 84B2     		uxth	r4, r0
 543 000a 1FFA82F8 		uxth	r8, r2
 544 000e 04EB080B 		add	fp, r4, r8
 545 0012 1FFA8BFB 		uxth	fp, fp
 546 0016 8DB2     		uxth	r5, r1
 547 0018 1FFA83FA 		uxth	r10, r3
 548 001c 05EB0A09 		add	r9, r5, r10
 549 0020 1FFA89F9 		uxth	r9, r9
 550 0024 3246     		mov	r2, r6
 551              	.LVL57:
 216:Core/Src/GUI.c **** 
ARM GAS  C:\Users\savao\AppData\Local\Temp\ccRdM6zw.s 			page 18


 552              		.loc 1 216 2 is_stmt 0 view .LVU134
 553 0026 4946     		mov	r1, r9
 554              	.LVL58:
 216:Core/Src/GUI.c **** 
 555              		.loc 1 216 2 view .LVU135
 556 0028 5846     		mov	r0, fp
 557              	.LVL59:
 216:Core/Src/GUI.c **** 
 558              		.loc 1 216 2 view .LVU136
 559 002a FFF7FEFF 		bl	GUI_DrawPoint
 560              	.LVL60:
 218:Core/Src/GUI.c **** 
 561              		.loc 1 218 2 is_stmt 1 view .LVU137
 562 002e A4EB0807 		sub	r7, r4, r8
 563 0032 BFB2     		uxth	r7, r7
 564 0034 3246     		mov	r2, r6
 565 0036 4946     		mov	r1, r9
 566 0038 3846     		mov	r0, r7
 567 003a FFF7FEFF 		bl	GUI_DrawPoint
 568              	.LVL61:
 220:Core/Src/GUI.c **** 
 569              		.loc 1 220 2 view .LVU138
 570 003e A5EB0A09 		sub	r9, r5, r10
 571 0042 1FFA89F9 		uxth	r9, r9
 572 0046 3246     		mov	r2, r6
 573 0048 4946     		mov	r1, r9
 574 004a 5846     		mov	r0, fp
 575 004c FFF7FEFF 		bl	GUI_DrawPoint
 576              	.LVL62:
 222:Core/Src/GUI.c **** 
 577              		.loc 1 222 2 view .LVU139
 578 0050 3246     		mov	r2, r6
 579 0052 4946     		mov	r1, r9
 580 0054 3846     		mov	r0, r7
 581 0056 FFF7FEFF 		bl	GUI_DrawPoint
 582              	.LVL63:
 224:Core/Src/GUI.c **** 
 583              		.loc 1 224 2 view .LVU140
 584 005a 04EB0A07 		add	r7, r4, r10
 585 005e BFB2     		uxth	r7, r7
 586 0060 08EB0509 		add	r9, r8, r5
 587 0064 1FFA89F9 		uxth	r9, r9
 588 0068 3246     		mov	r2, r6
 589 006a 4946     		mov	r1, r9
 590 006c 3846     		mov	r0, r7
 591 006e FFF7FEFF 		bl	GUI_DrawPoint
 592              	.LVL64:
 226:Core/Src/GUI.c **** 
 593              		.loc 1 226 2 view .LVU141
 594 0072 A4EB0A04 		sub	r4, r4, r10
 595 0076 A4B2     		uxth	r4, r4
 596 0078 3246     		mov	r2, r6
 597 007a 4946     		mov	r1, r9
 598 007c 2046     		mov	r0, r4
 599 007e FFF7FEFF 		bl	GUI_DrawPoint
 600              	.LVL65:
 228:Core/Src/GUI.c **** 
ARM GAS  C:\Users\savao\AppData\Local\Temp\ccRdM6zw.s 			page 19


 601              		.loc 1 228 2 view .LVU142
 602 0082 A5EB0805 		sub	r5, r5, r8
 603 0086 ADB2     		uxth	r5, r5
 604 0088 3246     		mov	r2, r6
 605 008a 2946     		mov	r1, r5
 606 008c 3846     		mov	r0, r7
 607 008e FFF7FEFF 		bl	GUI_DrawPoint
 608              	.LVL66:
 230:Core/Src/GUI.c **** }
 609              		.loc 1 230 2 view .LVU143
 610 0092 3246     		mov	r2, r6
 611 0094 2946     		mov	r1, r5
 612 0096 2046     		mov	r0, r4
 613 0098 FFF7FEFF 		bl	GUI_DrawPoint
 614              	.LVL67:
 231:Core/Src/GUI.c **** 
 615              		.loc 1 231 1 is_stmt 0 view .LVU144
 616 009c BDE8F88F 		pop	{r3, r4, r5, r6, r7, r8, r9, r10, fp, pc}
 231:Core/Src/GUI.c **** 
 617              		.loc 1 231 1 view .LVU145
 618              		.cfi_endproc
 619              	.LFE135:
 621              		.section	.text.gui_circle,"ax",%progbits
 622              		.align	1
 623              		.global	gui_circle
 624              		.syntax unified
 625              		.thumb
 626              		.thumb_func
 627              		.fpu fpv4-sp-d16
 629              	gui_circle:
 630              	.LVL68:
 631              	.LFB136:
 244:Core/Src/GUI.c **** 	int x = 0, y = r, yi, d;
 632              		.loc 1 244 1 is_stmt 1 view -0
 633              		.cfi_startproc
 634              		@ args = 4, pretend = 0, frame = 0
 635              		@ frame_needed = 0, uses_anonymous_args = 0
 244:Core/Src/GUI.c **** 	int x = 0, y = r, yi, d;
 636              		.loc 1 244 1 is_stmt 0 view .LVU147
 637 0000 2DE9F047 		push	{r4, r5, r6, r7, r8, r9, r10, lr}
 638              	.LCFI10:
 639              		.cfi_def_cfa_offset 32
 640              		.cfi_offset 4, -32
 641              		.cfi_offset 5, -28
 642              		.cfi_offset 6, -24
 643              		.cfi_offset 7, -20
 644              		.cfi_offset 8, -16
 645              		.cfi_offset 9, -12
 646              		.cfi_offset 10, -8
 647              		.cfi_offset 14, -4
 648 0004 82B0     		sub	sp, sp, #8
 649              	.LCFI11:
 650              		.cfi_def_cfa_offset 40
 651 0006 0746     		mov	r7, r0
 652 0008 8846     		mov	r8, r1
 653 000a 9146     		mov	r9, r2
 654 000c 1D46     		mov	r5, r3
ARM GAS  C:\Users\savao\AppData\Local\Temp\ccRdM6zw.s 			page 20


 655 000e 0A9C     		ldr	r4, [sp, #40]
 245:Core/Src/GUI.c **** 
 656              		.loc 1 245 2 is_stmt 1 view .LVU148
 657              	.LVL69:
 247:Core/Src/GUI.c **** 
 658              		.loc 1 247 2 view .LVU149
 247:Core/Src/GUI.c **** 
 659              		.loc 1 247 12 is_stmt 0 view .LVU150
 660 0010 4FEA430A 		lsl	r10, r3, #1
 247:Core/Src/GUI.c **** 
 661              		.loc 1 247 4 view .LVU151
 662 0014 CAF1030A 		rsb	r10, r10, #3
 663              	.LVL70:
 250:Core/Src/GUI.c **** 	{
 664              		.loc 1 250 2 is_stmt 1 view .LVU152
 250:Core/Src/GUI.c **** 	{
 665              		.loc 1 250 5 is_stmt 0 view .LVU153
 666 0018 24B3     		cbz	r4, .L40
 245:Core/Src/GUI.c **** 
 667              		.loc 1 245 6 view .LVU154
 668 001a 0026     		movs	r6, #0
 669 001c 14E0     		b	.L39
 670              	.LVL71:
 671              	.L41:
 255:Core/Src/GUI.c **** 
 672              		.loc 1 255 5 is_stmt 1 discriminator 3 view .LVU155
 673 001e CDF80090 		str	r9, [sp]
 674 0022 2346     		mov	r3, r4
 675 0024 3246     		mov	r2, r6
 676 0026 4146     		mov	r1, r8
 677 0028 3846     		mov	r0, r7
 678 002a FFF7FEFF 		bl	_draw_circle_8
 679              	.LVL72:
 254:Core/Src/GUI.c **** 				_draw_circle_8(xc, yc, x, yi, c);
 680              		.loc 1 254 26 discriminator 3 view .LVU156
 254:Core/Src/GUI.c **** 				_draw_circle_8(xc, yc, x, yi, c);
 681              		.loc 1 254 28 is_stmt 0 discriminator 3 view .LVU157
 682 002e 0134     		adds	r4, r4, #1
 683              	.LVL73:
 684              	.L44:
 254:Core/Src/GUI.c **** 				_draw_circle_8(xc, yc, x, yi, c);
 685              		.loc 1 254 17 is_stmt 1 discriminator 1 view .LVU158
 254:Core/Src/GUI.c **** 				_draw_circle_8(xc, yc, x, yi, c);
 686              		.loc 1 254 4 is_stmt 0 discriminator 1 view .LVU159
 687 0030 A542     		cmp	r5, r4
 688 0032 F4DA     		bge	.L41
 257:Core/Src/GUI.c **** 				d = d + 4 * x + 6;
 689              		.loc 1 257 4 is_stmt 1 view .LVU160
 257:Core/Src/GUI.c **** 				d = d + 4 * x + 6;
 690              		.loc 1 257 7 is_stmt 0 view .LVU161
 691 0034 BAF1000F 		cmp	r10, #0
 692 0038 0ADB     		blt	.L52
 260:Core/Src/GUI.c **** 				y--;
 693              		.loc 1 260 5 is_stmt 1 view .LVU162
 260:Core/Src/GUI.c **** 				y--;
 694              		.loc 1 260 20 is_stmt 0 view .LVU163
 695 003a 731B     		subs	r3, r6, r5
ARM GAS  C:\Users\savao\AppData\Local\Temp\ccRdM6zw.s 			page 21


 260:Core/Src/GUI.c **** 				y--;
 696              		.loc 1 260 11 view .LVU164
 697 003c 0AEB830A 		add	r10, r10, r3, lsl #2
 698              	.LVL74:
 260:Core/Src/GUI.c **** 				y--;
 699              		.loc 1 260 7 view .LVU165
 700 0040 0AF10A0A 		add	r10, r10, #10
 701              	.LVL75:
 261:Core/Src/GUI.c **** 			}
 702              		.loc 1 261 5 is_stmt 1 view .LVU166
 261:Core/Src/GUI.c **** 			}
 703              		.loc 1 261 6 is_stmt 0 view .LVU167
 704 0044 013D     		subs	r5, r5, #1
 705              	.LVL76:
 706              	.L43:
 263:Core/Src/GUI.c **** 		}
 707              		.loc 1 263 4 is_stmt 1 view .LVU168
 263:Core/Src/GUI.c **** 		}
 708              		.loc 1 263 5 is_stmt 0 view .LVU169
 709 0046 0136     		adds	r6, r6, #1
 710              	.LVL77:
 711              	.L39:
 253:Core/Src/GUI.c **** 			for (yi = x; yi <= y; yi++)
 712              		.loc 1 253 9 is_stmt 1 view .LVU170
 713 0048 AE42     		cmp	r6, r5
 714 004a 1FDC     		bgt	.L38
 254:Core/Src/GUI.c **** 				_draw_circle_8(xc, yc, x, yi, c);
 715              		.loc 1 254 12 is_stmt 0 view .LVU171
 716 004c 3446     		mov	r4, r6
 717 004e EFE7     		b	.L44
 718              	.LVL78:
 719              	.L52:
 258:Core/Src/GUI.c **** 			} else {
 720              		.loc 1 258 5 is_stmt 1 view .LVU172
 258:Core/Src/GUI.c **** 			} else {
 721              		.loc 1 258 11 is_stmt 0 view .LVU173
 722 0050 0AEB860A 		add	r10, r10, r6, lsl #2
 723              	.LVL79:
 258:Core/Src/GUI.c **** 			} else {
 724              		.loc 1 258 7 view .LVU174
 725 0054 0AF1060A 		add	r10, r10, #6
 726              	.LVL80:
 258:Core/Src/GUI.c **** 			} else {
 727              		.loc 1 258 7 view .LVU175
 728 0058 F5E7     		b	.L43
 729              	.LVL81:
 730              	.L53:
 271:Core/Src/GUI.c **** 			} else {
 731              		.loc 1 271 5 is_stmt 1 view .LVU176
 271:Core/Src/GUI.c **** 			} else {
 732              		.loc 1 271 11 is_stmt 0 view .LVU177
 733 005a 0AEB840A 		add	r10, r10, r4, lsl #2
 734              	.LVL82:
 271:Core/Src/GUI.c **** 			} else {
 735              		.loc 1 271 7 view .LVU178
 736 005e 0AF1060A 		add	r10, r10, #6
 737              	.LVL83:
ARM GAS  C:\Users\savao\AppData\Local\Temp\ccRdM6zw.s 			page 22


 738              	.L47:
 276:Core/Src/GUI.c **** 		}
 739              		.loc 1 276 4 is_stmt 1 view .LVU179
 276:Core/Src/GUI.c **** 		}
 740              		.loc 1 276 5 is_stmt 0 view .LVU180
 741 0062 0134     		adds	r4, r4, #1
 742              	.LVL84:
 743              	.L40:
 268:Core/Src/GUI.c **** 			_draw_circle_8(xc, yc, x, y, c);
 744              		.loc 1 268 9 is_stmt 1 view .LVU181
 745 0064 AC42     		cmp	r4, r5
 746 0066 11DC     		bgt	.L38
 269:Core/Src/GUI.c **** 			if (d < 0) {
 747              		.loc 1 269 4 view .LVU182
 748 0068 CDF80090 		str	r9, [sp]
 749 006c 2B46     		mov	r3, r5
 750 006e 2246     		mov	r2, r4
 751 0070 4146     		mov	r1, r8
 752 0072 3846     		mov	r0, r7
 753 0074 FFF7FEFF 		bl	_draw_circle_8
 754              	.LVL85:
 270:Core/Src/GUI.c **** 				d = d + 4 * x + 6;
 755              		.loc 1 270 4 view .LVU183
 270:Core/Src/GUI.c **** 				d = d + 4 * x + 6;
 756              		.loc 1 270 7 is_stmt 0 view .LVU184
 757 0078 BAF1000F 		cmp	r10, #0
 758 007c EDDB     		blt	.L53
 273:Core/Src/GUI.c **** 				y--;
 759              		.loc 1 273 5 is_stmt 1 view .LVU185
 273:Core/Src/GUI.c **** 				y--;
 760              		.loc 1 273 20 is_stmt 0 view .LVU186
 761 007e 631B     		subs	r3, r4, r5
 273:Core/Src/GUI.c **** 				y--;
 762              		.loc 1 273 11 view .LVU187
 763 0080 0AEB830A 		add	r10, r10, r3, lsl #2
 764              	.LVL86:
 273:Core/Src/GUI.c **** 				y--;
 765              		.loc 1 273 7 view .LVU188
 766 0084 0AF10A0A 		add	r10, r10, #10
 767              	.LVL87:
 274:Core/Src/GUI.c **** 			}
 768              		.loc 1 274 5 is_stmt 1 view .LVU189
 274:Core/Src/GUI.c **** 			}
 769              		.loc 1 274 6 is_stmt 0 view .LVU190
 770 0088 013D     		subs	r5, r5, #1
 771              	.LVL88:
 274:Core/Src/GUI.c **** 			}
 772              		.loc 1 274 6 view .LVU191
 773 008a EAE7     		b	.L47
 774              	.LVL89:
 775              	.L38:
 279:Core/Src/GUI.c **** 
 776              		.loc 1 279 1 view .LVU192
 777 008c 02B0     		add	sp, sp, #8
 778              	.LCFI12:
 779              		.cfi_def_cfa_offset 32
 780              		@ sp needed
ARM GAS  C:\Users\savao\AppData\Local\Temp\ccRdM6zw.s 			page 23


 781 008e BDE8F087 		pop	{r4, r5, r6, r7, r8, r9, r10, pc}
 279:Core/Src/GUI.c **** 
 782              		.loc 1 279 1 view .LVU193
 783              		.cfi_endproc
 784              	.LFE136:
 786              		.section	.text.Draw_Triangel,"ax",%progbits
 787              		.align	1
 788              		.global	Draw_Triangel
 789              		.syntax unified
 790              		.thumb
 791              		.thumb_func
 792              		.fpu fpv4-sp-d16
 794              	Draw_Triangel:
 795              	.LVL90:
 796              	.LFB137:
 294:Core/Src/GUI.c **** 	LCD_DrawLine(x0,y0,x1,y1);
 797              		.loc 1 294 1 is_stmt 1 view -0
 798              		.cfi_startproc
 799              		@ args = 8, pretend = 0, frame = 0
 800              		@ frame_needed = 0, uses_anonymous_args = 0
 294:Core/Src/GUI.c **** 	LCD_DrawLine(x0,y0,x1,y1);
 801              		.loc 1 294 1 is_stmt 0 view .LVU195
 802 0000 2DE9F843 		push	{r3, r4, r5, r6, r7, r8, r9, lr}
 803              	.LCFI13:
 804              		.cfi_def_cfa_offset 32
 805              		.cfi_offset 3, -32
 806              		.cfi_offset 4, -28
 807              		.cfi_offset 5, -24
 808              		.cfi_offset 6, -20
 809              		.cfi_offset 7, -16
 810              		.cfi_offset 8, -12
 811              		.cfi_offset 9, -8
 812              		.cfi_offset 14, -4
 813 0004 0446     		mov	r4, r0
 814 0006 0D46     		mov	r5, r1
 815 0008 1646     		mov	r6, r2
 816 000a 1F46     		mov	r7, r3
 817 000c BDF82080 		ldrh	r8, [sp, #32]
 818 0010 BDF82490 		ldrh	r9, [sp, #36]
 295:Core/Src/GUI.c **** 	LCD_DrawLine(x1,y1,x2,y2);
 819              		.loc 1 295 2 is_stmt 1 view .LVU196
 820 0014 FFF7FEFF 		bl	LCD_DrawLine
 821              	.LVL91:
 296:Core/Src/GUI.c **** 	LCD_DrawLine(x2,y2,x0,y0);
 822              		.loc 1 296 2 view .LVU197
 823 0018 4B46     		mov	r3, r9
 824 001a 4246     		mov	r2, r8
 825 001c 3946     		mov	r1, r7
 826 001e 3046     		mov	r0, r6
 827 0020 FFF7FEFF 		bl	LCD_DrawLine
 828              	.LVL92:
 297:Core/Src/GUI.c **** }
 829              		.loc 1 297 2 view .LVU198
 830 0024 2B46     		mov	r3, r5
 831 0026 2246     		mov	r2, r4
 832 0028 4946     		mov	r1, r9
 833 002a 4046     		mov	r0, r8
ARM GAS  C:\Users\savao\AppData\Local\Temp\ccRdM6zw.s 			page 24


 834 002c FFF7FEFF 		bl	LCD_DrawLine
 835              	.LVL93:
 298:Core/Src/GUI.c **** 
 836              		.loc 1 298 1 is_stmt 0 view .LVU199
 837 0030 BDE8F883 		pop	{r3, r4, r5, r6, r7, r8, r9, pc}
 298:Core/Src/GUI.c **** 
 838              		.loc 1 298 1 view .LVU200
 839              		.cfi_endproc
 840              	.LFE137:
 842              		.section	.text.Fill_Triangel,"ax",%progbits
 843              		.align	1
 844              		.global	Fill_Triangel
 845              		.syntax unified
 846              		.thumb
 847              		.thumb_func
 848              		.fpu fpv4-sp-d16
 850              	Fill_Triangel:
 851              	.LVL94:
 852              	.LFB139:
 307:Core/Src/GUI.c **** 
 308:Core/Src/GUI.c **** /*****************************************************************************
 309:Core/Src/GUI.c ****  * @name       :void Fill_Triangel(u16 x0,u16 y0,u16 x1,u16 y1,u16 x2,u16 y2)
 310:Core/Src/GUI.c ****  * @date       :2018-08-09 
 311:Core/Src/GUI.c ****  * @function   :filling a triangle at a specified position
 312:Core/Src/GUI.c ****  * @parameters :x0:the bebinning x coordinate of the triangular edge 
 313:Core/Src/GUI.c ****                 y0:the bebinning y coordinate of the triangular edge 
 314:Core/Src/GUI.c **** 								x1:the vertex x coordinate of the triangular
 315:Core/Src/GUI.c **** 								y1:the vertex y coordinate of the triangular
 316:Core/Src/GUI.c **** 								x2:the ending x coordinate of the triangular edge 
 317:Core/Src/GUI.c **** 								y2:the ending y coordinate of the triangular edge 
 318:Core/Src/GUI.c ****  * @retvalue   :None
 319:Core/Src/GUI.c **** ******************************************************************************/ 
 320:Core/Src/GUI.c **** void Fill_Triangel(u16 x0,u16 y0,u16 x1,u16 y1,u16 x2,u16 y2)
 321:Core/Src/GUI.c **** {
 853              		.loc 1 321 1 is_stmt 1 view -0
 854              		.cfi_startproc
 855              		@ args = 8, pretend = 0, frame = 24
 856              		@ frame_needed = 0, uses_anonymous_args = 0
 857              		.loc 1 321 1 is_stmt 0 view .LVU202
 858 0000 2DE9F04F 		push	{r4, r5, r6, r7, r8, r9, r10, fp, lr}
 859              	.LCFI14:
 860              		.cfi_def_cfa_offset 36
 861              		.cfi_offset 4, -36
 862              		.cfi_offset 5, -32
 863              		.cfi_offset 6, -28
 864              		.cfi_offset 7, -24
 865              		.cfi_offset 8, -20
 866              		.cfi_offset 9, -16
 867              		.cfi_offset 10, -12
 868              		.cfi_offset 11, -8
 869              		.cfi_offset 14, -4
 870 0004 89B0     		sub	sp, sp, #36
 871              	.LCFI15:
 872              		.cfi_def_cfa_offset 72
 873 0006 ADF81600 		strh	r0, [sp, #22]	@ movhi
 874 000a ADF81410 		strh	r1, [sp, #20]	@ movhi
 875 000e ADF81220 		strh	r2, [sp, #18]	@ movhi
ARM GAS  C:\Users\savao\AppData\Local\Temp\ccRdM6zw.s 			page 25


 876 0012 ADF81030 		strh	r3, [sp, #16]	@ movhi
 322:Core/Src/GUI.c **** 	u16 a, b, y, last;
 877              		.loc 1 322 2 is_stmt 1 view .LVU203
 323:Core/Src/GUI.c **** 	int dx01, dy01, dx02, dy02, dx12, dy12;
 878              		.loc 1 323 2 view .LVU204
 324:Core/Src/GUI.c **** 	long sa = 0;
 879              		.loc 1 324 2 view .LVU205
 880              	.LVL95:
 325:Core/Src/GUI.c **** 	long sb = 0;
 881              		.loc 1 325 2 view .LVU206
 326:Core/Src/GUI.c ****  	if (y0 > y1) 
 882              		.loc 1 326 3 view .LVU207
 883              		.loc 1 326 10 is_stmt 0 view .LVU208
 884 0016 8AB2     		uxth	r2, r1
 885              	.LVL96:
 886              		.loc 1 326 10 view .LVU209
 887 0018 9BB2     		uxth	r3, r3
 888              	.LVL97:
 889              		.loc 1 326 6 view .LVU210
 890 001a 9A42     		cmp	r2, r3
 891 001c 31D8     		bhi	.L74
 892              	.LVL98:
 893              	.L57:
 327:Core/Src/GUI.c **** 	{
 328:Core/Src/GUI.c ****     _swap(&y0,&y1); 
 329:Core/Src/GUI.c **** 		_swap(&x0,&x1);
 330:Core/Src/GUI.c ****  	}
 331:Core/Src/GUI.c ****  	if (y1 > y2) 
 894              		.loc 1 331 3 is_stmt 1 view .LVU211
 895              		.loc 1 331 10 is_stmt 0 view .LVU212
 896 001e BDF81020 		ldrh	r2, [sp, #16]
 897 0022 BDF84C30 		ldrh	r3, [sp, #76]
 898              		.loc 1 331 6 view .LVU213
 899 0026 9A42     		cmp	r2, r3
 900 0028 36D8     		bhi	.L75
 901              	.L58:
 332:Core/Src/GUI.c **** 	{
 333:Core/Src/GUI.c ****     _swap(&y2,&y1); 
 334:Core/Src/GUI.c **** 		_swap(&x2,&x1);
 335:Core/Src/GUI.c ****  	}
 336:Core/Src/GUI.c ****   if (y0 > y1) 
 902              		.loc 1 336 3 is_stmt 1 view .LVU214
 903              		.loc 1 336 10 is_stmt 0 view .LVU215
 904 002a BDF81420 		ldrh	r2, [sp, #20]
 905 002e BDF81030 		ldrh	r3, [sp, #16]
 906              		.loc 1 336 6 view .LVU216
 907 0032 9A42     		cmp	r2, r3
 908 0034 3AD8     		bhi	.L76
 909              	.L59:
 337:Core/Src/GUI.c **** 	{
 338:Core/Src/GUI.c ****     _swap(&y0,&y1); 
 339:Core/Src/GUI.c **** 		_swap(&x0,&x1);
 340:Core/Src/GUI.c ****   }
 341:Core/Src/GUI.c **** 	if(y0 == y2) 
 910              		.loc 1 341 2 is_stmt 1 view .LVU217
 911              		.loc 1 341 8 is_stmt 0 view .LVU218
 912 0036 BDF81440 		ldrh	r4, [sp, #20]
ARM GAS  C:\Users\savao\AppData\Local\Temp\ccRdM6zw.s 			page 26


 913 003a BDF84C30 		ldrh	r3, [sp, #76]
 914              		.loc 1 341 4 view .LVU219
 915 003e 9C42     		cmp	r4, r3
 916 0040 3FD0     		beq	.L77
 342:Core/Src/GUI.c **** 	{ 
 343:Core/Src/GUI.c **** 		a = b = x0;
 344:Core/Src/GUI.c **** 		if(x1 < a)
 345:Core/Src/GUI.c ****     {
 346:Core/Src/GUI.c **** 			a = x1;
 347:Core/Src/GUI.c ****     }
 348:Core/Src/GUI.c ****     else if(x1 > b)
 349:Core/Src/GUI.c ****     {
 350:Core/Src/GUI.c **** 			b = x1;
 351:Core/Src/GUI.c ****     }
 352:Core/Src/GUI.c ****     if(x2 < a)
 353:Core/Src/GUI.c ****     {
 354:Core/Src/GUI.c **** 			a = x2;
 355:Core/Src/GUI.c ****     }
 356:Core/Src/GUI.c **** 		else if(x2 > b)
 357:Core/Src/GUI.c ****     {
 358:Core/Src/GUI.c **** 			b = x2;
 359:Core/Src/GUI.c ****     }
 360:Core/Src/GUI.c **** 		LCD_Fill(a,y0,b,y0,POINT_COLOR);
 361:Core/Src/GUI.c ****     return;
 362:Core/Src/GUI.c **** 	}
 363:Core/Src/GUI.c **** 	dx01 = x1 - x0;
 917              		.loc 1 363 2 is_stmt 1 view .LVU220
 918              		.loc 1 363 12 is_stmt 0 view .LVU221
 919 0042 BDF81220 		ldrh	r2, [sp, #18]
 920 0046 BDF81670 		ldrh	r7, [sp, #22]
 921              		.loc 1 363 7 view .LVU222
 922 004a D11B     		subs	r1, r2, r7
 923              	.LVL99:
 364:Core/Src/GUI.c **** 	dy01 = y1 - y0;
 924              		.loc 1 364 2 is_stmt 1 view .LVU223
 925              		.loc 1 364 12 is_stmt 0 view .LVU224
 926 004c BDF81090 		ldrh	r9, [sp, #16]
 927              		.loc 1 364 7 view .LVU225
 928 0050 A9EB040B 		sub	fp, r9, r4
 929              	.LVL100:
 365:Core/Src/GUI.c **** 	dx02 = x2 - x0;
 930              		.loc 1 365 2 is_stmt 1 view .LVU226
 931              		.loc 1 365 12 is_stmt 0 view .LVU227
 932 0054 BDF848A0 		ldrh	r10, [sp, #72]
 933              		.loc 1 365 7 view .LVU228
 934 0058 AAEB0707 		sub	r7, r10, r7
 935              	.LVL101:
 366:Core/Src/GUI.c **** 	dy02 = y2 - y0;
 936              		.loc 1 366 2 is_stmt 1 view .LVU229
 937              		.loc 1 366 7 is_stmt 0 view .LVU230
 938 005c A3EB0408 		sub	r8, r3, r4
 939              	.LVL102:
 367:Core/Src/GUI.c **** 	dx12 = x2 - x1;
 940              		.loc 1 367 2 is_stmt 1 view .LVU231
 941              		.loc 1 367 7 is_stmt 0 view .LVU232
 942 0060 AAEB020A 		sub	r10, r10, r2
 943              	.LVL103:
ARM GAS  C:\Users\savao\AppData\Local\Temp\ccRdM6zw.s 			page 27


 368:Core/Src/GUI.c **** 	dy12 = y2 - y1;
 944              		.loc 1 368 2 is_stmt 1 view .LVU233
 945              		.loc 1 368 7 is_stmt 0 view .LVU234
 946 0064 A3EB0902 		sub	r2, r3, r9
 947 0068 0292     		str	r2, [sp, #8]
 948              	.LVL104:
 369:Core/Src/GUI.c **** 	
 370:Core/Src/GUI.c **** 	if(y1 == y2)
 949              		.loc 1 370 2 is_stmt 1 view .LVU235
 950              		.loc 1 370 4 is_stmt 0 view .LVU236
 951 006a 4B45     		cmp	r3, r9
 952 006c 03D0     		beq	.L66
 371:Core/Src/GUI.c **** 	{
 372:Core/Src/GUI.c **** 		last = y1; 
 373:Core/Src/GUI.c **** 	}
 374:Core/Src/GUI.c ****   else
 375:Core/Src/GUI.c **** 	{
 376:Core/Src/GUI.c **** 		last = y1-1; 
 953              		.loc 1 376 3 is_stmt 1 view .LVU237
 954              		.loc 1 376 8 is_stmt 0 view .LVU238
 955 006e 09F1FF39 		add	r9, r9, #-1
 956 0072 1FFA89F9 		uxth	r9, r9
 957              	.LVL105:
 958              	.L66:
 377:Core/Src/GUI.c **** 	}
 378:Core/Src/GUI.c **** 	for(y=y0; y<=last; y++) 
 959              		.loc 1 378 2 is_stmt 1 view .LVU239
 325:Core/Src/GUI.c ****  	if (y0 > y1) 
 960              		.loc 1 325 7 is_stmt 0 view .LVU240
 961 0076 0025     		movs	r5, #0
 324:Core/Src/GUI.c **** 	long sb = 0;
 962              		.loc 1 324 7 view .LVU241
 963 0078 2E46     		mov	r6, r5
 964 007a CDF80CA0 		str	r10, [sp, #12]
 965 007e 8A46     		mov	r10, r1
 966              	.LVL106:
 967              		.loc 1 378 2 view .LVU242
 968 0080 5AE0     		b	.L67
 969              	.LVL107:
 970              	.L74:
 328:Core/Src/GUI.c **** 		_swap(&x0,&x1);
 971              		.loc 1 328 5 is_stmt 1 view .LVU243
 972 0082 04A9     		add	r1, sp, #16
 973              	.LVL108:
 328:Core/Src/GUI.c **** 		_swap(&x0,&x1);
 974              		.loc 1 328 5 is_stmt 0 view .LVU244
 975 0084 05A8     		add	r0, sp, #20
 976              	.LVL109:
 328:Core/Src/GUI.c **** 		_swap(&x0,&x1);
 977              		.loc 1 328 5 view .LVU245
 978 0086 FFF7FEFF 		bl	_swap
 979              	.LVL110:
 329:Core/Src/GUI.c ****  	}
 980              		.loc 1 329 3 is_stmt 1 view .LVU246
 981 008a 0DF11201 		add	r1, sp, #18
 982 008e 0DF11600 		add	r0, sp, #22
 983 0092 FFF7FEFF 		bl	_swap
ARM GAS  C:\Users\savao\AppData\Local\Temp\ccRdM6zw.s 			page 28


 984              	.LVL111:
 985 0096 C2E7     		b	.L57
 986              	.L75:
 333:Core/Src/GUI.c **** 		_swap(&x2,&x1);
 987              		.loc 1 333 5 view .LVU247
 988 0098 04A9     		add	r1, sp, #16
 989 009a 13A8     		add	r0, sp, #76
 990 009c FFF7FEFF 		bl	_swap
 991              	.LVL112:
 334:Core/Src/GUI.c ****  	}
 992              		.loc 1 334 3 view .LVU248
 993 00a0 0DF11201 		add	r1, sp, #18
 994 00a4 12A8     		add	r0, sp, #72
 995 00a6 FFF7FEFF 		bl	_swap
 996              	.LVL113:
 997 00aa BEE7     		b	.L58
 998              	.L76:
 338:Core/Src/GUI.c **** 		_swap(&x0,&x1);
 999              		.loc 1 338 5 view .LVU249
 1000 00ac 04A9     		add	r1, sp, #16
 1001 00ae 05A8     		add	r0, sp, #20
 1002 00b0 FFF7FEFF 		bl	_swap
 1003              	.LVL114:
 339:Core/Src/GUI.c ****   }
 1004              		.loc 1 339 3 view .LVU250
 1005 00b4 0DF11201 		add	r1, sp, #18
 1006 00b8 0DF11600 		add	r0, sp, #22
 1007 00bc FFF7FEFF 		bl	_swap
 1008              	.LVL115:
 1009 00c0 B9E7     		b	.L59
 1010              	.L77:
 343:Core/Src/GUI.c **** 		if(x1 < a)
 1011              		.loc 1 343 3 view .LVU251
 343:Core/Src/GUI.c **** 		if(x1 < a)
 1012              		.loc 1 343 9 is_stmt 0 view .LVU252
 1013 00c2 BDF81630 		ldrh	r3, [sp, #22]
 1014 00c6 ADF81C30 		strh	r3, [sp, #28]	@ movhi
 343:Core/Src/GUI.c **** 		if(x1 < a)
 1015              		.loc 1 343 5 view .LVU253
 1016 00ca ADF81E30 		strh	r3, [sp, #30]	@ movhi
 344:Core/Src/GUI.c ****     {
 1017              		.loc 1 344 3 is_stmt 1 view .LVU254
 344:Core/Src/GUI.c ****     {
 1018              		.loc 1 344 9 is_stmt 0 view .LVU255
 1019 00ce BDF81220 		ldrh	r2, [sp, #18]
 344:Core/Src/GUI.c ****     {
 1020              		.loc 1 344 5 view .LVU256
 1021 00d2 9342     		cmp	r3, r2
 1022 00d4 17D9     		bls	.L61
 346:Core/Src/GUI.c ****     }
 1023              		.loc 1 346 4 is_stmt 1 view .LVU257
 346:Core/Src/GUI.c ****     }
 1024              		.loc 1 346 6 is_stmt 0 view .LVU258
 1025 00d6 ADF81E20 		strh	r2, [sp, #30]	@ movhi
 1026              	.L62:
 352:Core/Src/GUI.c ****     {
 1027              		.loc 1 352 5 is_stmt 1 view .LVU259
ARM GAS  C:\Users\savao\AppData\Local\Temp\ccRdM6zw.s 			page 29


 352:Core/Src/GUI.c ****     {
 1028              		.loc 1 352 11 is_stmt 0 view .LVU260
 1029 00da BDF84830 		ldrh	r3, [sp, #72]
 1030 00de BDF81E20 		ldrh	r2, [sp, #30]
 352:Core/Src/GUI.c ****     {
 1031              		.loc 1 352 7 view .LVU261
 1032 00e2 9342     		cmp	r3, r2
 1033 00e4 14D2     		bcs	.L63
 354:Core/Src/GUI.c ****     }
 1034              		.loc 1 354 4 is_stmt 1 view .LVU262
 354:Core/Src/GUI.c ****     }
 1035              		.loc 1 354 6 is_stmt 0 view .LVU263
 1036 00e6 ADF81E30 		strh	r3, [sp, #30]	@ movhi
 1037              	.L64:
 360:Core/Src/GUI.c ****     return;
 1038              		.loc 1 360 3 is_stmt 1 view .LVU264
 1039 00ea 3D4B     		ldr	r3, .L79
 1040 00ec 1B88     		ldrh	r3, [r3]
 1041 00ee 0093     		str	r3, [sp]
 1042 00f0 2346     		mov	r3, r4
 1043 00f2 BDF81C20 		ldrh	r2, [sp, #28]
 1044 00f6 2146     		mov	r1, r4
 1045 00f8 BDF81E00 		ldrh	r0, [sp, #30]
 1046 00fc FFF7FEFF 		bl	LCD_Fill
 1047              	.LVL116:
 361:Core/Src/GUI.c **** 	}
 1048              		.loc 1 361 5 view .LVU265
 1049              	.L56:
 379:Core/Src/GUI.c **** 	{
 380:Core/Src/GUI.c **** 		a = x0 + sa / dy01;
 381:Core/Src/GUI.c **** 		b = x0 + sb / dy02;
 382:Core/Src/GUI.c **** 		sa += dx01;
 383:Core/Src/GUI.c ****     sb += dx02;
 384:Core/Src/GUI.c ****     if(a > b)
 385:Core/Src/GUI.c ****     {
 386:Core/Src/GUI.c **** 			_swap(&a,&b);
 387:Core/Src/GUI.c **** 		}
 388:Core/Src/GUI.c **** 		LCD_Fill(a,y,b,y,POINT_COLOR);
 389:Core/Src/GUI.c **** 	}
 390:Core/Src/GUI.c **** 	sa = dx12 * (y - y1);
 391:Core/Src/GUI.c **** 	sb = dx02 * (y - y0);
 392:Core/Src/GUI.c **** 	for(; y<=y2; y++) 
 393:Core/Src/GUI.c **** 	{
 394:Core/Src/GUI.c **** 		a = x1 + sa / dy12;
 395:Core/Src/GUI.c **** 		b = x0 + sb / dy02;
 396:Core/Src/GUI.c **** 		sa += dx12;
 397:Core/Src/GUI.c **** 		sb += dx02;
 398:Core/Src/GUI.c **** 		if(a > b)
 399:Core/Src/GUI.c **** 		{
 400:Core/Src/GUI.c **** 			_swap(&a,&b);
 401:Core/Src/GUI.c **** 		}
 402:Core/Src/GUI.c **** 		LCD_Fill(a,y,b,y,POINT_COLOR);
 403:Core/Src/GUI.c **** 	}
 404:Core/Src/GUI.c **** }
 1050              		.loc 1 404 1 is_stmt 0 view .LVU266
 1051 0100 09B0     		add	sp, sp, #36
 1052              	.LCFI16:
ARM GAS  C:\Users\savao\AppData\Local\Temp\ccRdM6zw.s 			page 30


 1053              		.cfi_remember_state
 1054              		.cfi_def_cfa_offset 36
 1055              		@ sp needed
 1056 0102 BDE8F08F 		pop	{r4, r5, r6, r7, r8, r9, r10, fp, pc}
 1057              	.LVL117:
 1058              	.L61:
 1059              	.LCFI17:
 1060              		.cfi_restore_state
 348:Core/Src/GUI.c ****     {
 1061              		.loc 1 348 10 is_stmt 1 view .LVU267
 348:Core/Src/GUI.c ****     {
 1062              		.loc 1 348 12 is_stmt 0 view .LVU268
 1063 0106 9342     		cmp	r3, r2
 1064 0108 E7D2     		bcs	.L62
 350:Core/Src/GUI.c ****     }
 1065              		.loc 1 350 4 is_stmt 1 view .LVU269
 350:Core/Src/GUI.c ****     }
 1066              		.loc 1 350 6 is_stmt 0 view .LVU270
 1067 010a ADF81C20 		strh	r2, [sp, #28]	@ movhi
 1068 010e E4E7     		b	.L62
 1069              	.L63:
 356:Core/Src/GUI.c ****     {
 1070              		.loc 1 356 8 is_stmt 1 view .LVU271
 356:Core/Src/GUI.c ****     {
 1071              		.loc 1 356 14 is_stmt 0 view .LVU272
 1072 0110 BDF81C20 		ldrh	r2, [sp, #28]
 356:Core/Src/GUI.c ****     {
 1073              		.loc 1 356 10 view .LVU273
 1074 0114 9342     		cmp	r3, r2
 1075 0116 E8D9     		bls	.L64
 358:Core/Src/GUI.c ****     }
 1076              		.loc 1 358 4 is_stmt 1 view .LVU274
 358:Core/Src/GUI.c ****     }
 1077              		.loc 1 358 6 is_stmt 0 view .LVU275
 1078 0118 ADF81C30 		strh	r3, [sp, #28]	@ movhi
 1079 011c E5E7     		b	.L64
 1080              	.LVL118:
 1081              	.L68:
 388:Core/Src/GUI.c **** 	}
 1082              		.loc 1 388 3 is_stmt 1 discriminator 2 view .LVU276
 1083 011e 304B     		ldr	r3, .L79
 1084 0120 1B88     		ldrh	r3, [r3]
 1085 0122 0093     		str	r3, [sp]
 1086 0124 2346     		mov	r3, r4
 1087 0126 BDF81C20 		ldrh	r2, [sp, #28]
 1088 012a 2146     		mov	r1, r4
 1089 012c BDF81E00 		ldrh	r0, [sp, #30]
 1090 0130 FFF7FEFF 		bl	LCD_Fill
 1091              	.LVL119:
 378:Core/Src/GUI.c **** 	{
 1092              		.loc 1 378 21 discriminator 2 view .LVU277
 378:Core/Src/GUI.c **** 	{
 1093              		.loc 1 378 22 is_stmt 0 discriminator 2 view .LVU278
 1094 0134 0134     		adds	r4, r4, #1
 1095              	.LVL120:
 378:Core/Src/GUI.c **** 	{
 1096              		.loc 1 378 22 discriminator 2 view .LVU279
ARM GAS  C:\Users\savao\AppData\Local\Temp\ccRdM6zw.s 			page 31


 1097 0136 A4B2     		uxth	r4, r4
 1098              	.LVL121:
 1099              	.L67:
 378:Core/Src/GUI.c **** 	{
 1100              		.loc 1 378 12 is_stmt 1 discriminator 1 view .LVU280
 378:Core/Src/GUI.c **** 	{
 1101              		.loc 1 378 2 is_stmt 0 discriminator 1 view .LVU281
 1102 0138 4C45     		cmp	r4, r9
 1103 013a 17D8     		bhi	.L78
 380:Core/Src/GUI.c **** 		b = x0 + sb / dy02;
 1104              		.loc 1 380 3 is_stmt 1 view .LVU282
 380:Core/Src/GUI.c **** 		b = x0 + sb / dy02;
 1105              		.loc 1 380 15 is_stmt 0 view .LVU283
 1106 013c 96FBFBF2 		sdiv	r2, r6, fp
 380:Core/Src/GUI.c **** 		b = x0 + sb / dy02;
 1107              		.loc 1 380 10 view .LVU284
 1108 0140 BDF81630 		ldrh	r3, [sp, #22]
 1109 0144 1A44     		add	r2, r2, r3
 1110 0146 92B2     		uxth	r2, r2
 380:Core/Src/GUI.c **** 		b = x0 + sb / dy02;
 1111              		.loc 1 380 5 view .LVU285
 1112 0148 ADF81E20 		strh	r2, [sp, #30]	@ movhi
 381:Core/Src/GUI.c **** 		sa += dx01;
 1113              		.loc 1 381 3 is_stmt 1 view .LVU286
 381:Core/Src/GUI.c **** 		sa += dx01;
 1114              		.loc 1 381 15 is_stmt 0 view .LVU287
 1115 014c 95FBF8F1 		sdiv	r1, r5, r8
 381:Core/Src/GUI.c **** 		sa += dx01;
 1116              		.loc 1 381 10 view .LVU288
 1117 0150 0B44     		add	r3, r3, r1
 1118 0152 9BB2     		uxth	r3, r3
 381:Core/Src/GUI.c **** 		sa += dx01;
 1119              		.loc 1 381 5 view .LVU289
 1120 0154 ADF81C30 		strh	r3, [sp, #28]	@ movhi
 382:Core/Src/GUI.c ****     sb += dx02;
 1121              		.loc 1 382 3 is_stmt 1 view .LVU290
 382:Core/Src/GUI.c ****     sb += dx02;
 1122              		.loc 1 382 6 is_stmt 0 view .LVU291
 1123 0158 5644     		add	r6, r6, r10
 1124              	.LVL122:
 383:Core/Src/GUI.c ****     if(a > b)
 1125              		.loc 1 383 5 is_stmt 1 view .LVU292
 383:Core/Src/GUI.c ****     if(a > b)
 1126              		.loc 1 383 8 is_stmt 0 view .LVU293
 1127 015a 3D44     		add	r5, r5, r7
 1128              	.LVL123:
 384:Core/Src/GUI.c ****     {
 1129              		.loc 1 384 5 is_stmt 1 view .LVU294
 384:Core/Src/GUI.c ****     {
 1130              		.loc 1 384 7 is_stmt 0 view .LVU295
 1131 015c 9A42     		cmp	r2, r3
 1132 015e DED9     		bls	.L68
 386:Core/Src/GUI.c **** 		}
 1133              		.loc 1 386 4 is_stmt 1 view .LVU296
 1134 0160 07A9     		add	r1, sp, #28
 1135 0162 0DF11E00 		add	r0, sp, #30
 1136 0166 FFF7FEFF 		bl	_swap
ARM GAS  C:\Users\savao\AppData\Local\Temp\ccRdM6zw.s 			page 32


 1137              	.LVL124:
 1138 016a D8E7     		b	.L68
 1139              	.L78:
 390:Core/Src/GUI.c **** 	sb = dx02 * (y - y0);
 1140              		.loc 1 390 17 is_stmt 0 view .LVU297
 1141 016c DDF80CA0 		ldr	r10, [sp, #12]
 1142              	.LVL125:
 390:Core/Src/GUI.c **** 	sb = dx02 * (y - y0);
 1143              		.loc 1 390 2 is_stmt 1 view .LVU298
 390:Core/Src/GUI.c **** 	sb = dx02 * (y - y0);
 1144              		.loc 1 390 17 is_stmt 0 view .LVU299
 1145 0170 BDF81060 		ldrh	r6, [sp, #16]
 1146              	.LVL126:
 390:Core/Src/GUI.c **** 	sb = dx02 * (y - y0);
 1147              		.loc 1 390 17 view .LVU300
 1148 0174 A61B     		subs	r6, r4, r6
 390:Core/Src/GUI.c **** 	sb = dx02 * (y - y0);
 1149              		.loc 1 390 5 view .LVU301
 1150 0176 0AFB06F6 		mul	r6, r10, r6
 1151              	.LVL127:
 391:Core/Src/GUI.c **** 	for(; y<=y2; y++) 
 1152              		.loc 1 391 2 is_stmt 1 view .LVU302
 391:Core/Src/GUI.c **** 	for(; y<=y2; y++) 
 1153              		.loc 1 391 17 is_stmt 0 view .LVU303
 1154 017a BDF81450 		ldrh	r5, [sp, #20]
 1155              	.LVL128:
 391:Core/Src/GUI.c **** 	for(; y<=y2; y++) 
 1156              		.loc 1 391 17 view .LVU304
 1157 017e 651B     		subs	r5, r4, r5
 391:Core/Src/GUI.c **** 	for(; y<=y2; y++) 
 1158              		.loc 1 391 5 view .LVU305
 1159 0180 07FB05F5 		mul	r5, r7, r5
 1160              	.LVL129:
 392:Core/Src/GUI.c **** 	{
 1161              		.loc 1 392 2 is_stmt 1 view .LVU306
 1162 0184 DDF80890 		ldr	r9, [sp, #8]
 1163              	.LVL130:
 392:Core/Src/GUI.c **** 	{
 1164              		.loc 1 392 2 is_stmt 0 view .LVU307
 1165 0188 0CE0     		b	.L70
 1166              	.L71:
 402:Core/Src/GUI.c **** 	}
 1167              		.loc 1 402 3 is_stmt 1 view .LVU308
 1168 018a 154B     		ldr	r3, .L79
 1169 018c 1B88     		ldrh	r3, [r3]
 1170 018e 0093     		str	r3, [sp]
 1171 0190 2346     		mov	r3, r4
 1172 0192 BDF81C20 		ldrh	r2, [sp, #28]
 1173 0196 2146     		mov	r1, r4
 1174 0198 BDF81E00 		ldrh	r0, [sp, #30]
 1175 019c FFF7FEFF 		bl	LCD_Fill
 1176              	.LVL131:
 392:Core/Src/GUI.c **** 	{
 1177              		.loc 1 392 15 view .LVU309
 392:Core/Src/GUI.c **** 	{
 1178              		.loc 1 392 16 is_stmt 0 view .LVU310
 1179 01a0 0134     		adds	r4, r4, #1
ARM GAS  C:\Users\savao\AppData\Local\Temp\ccRdM6zw.s 			page 33


 1180              	.LVL132:
 392:Core/Src/GUI.c **** 	{
 1181              		.loc 1 392 16 view .LVU311
 1182 01a2 A4B2     		uxth	r4, r4
 1183              	.LVL133:
 1184              	.L70:
 392:Core/Src/GUI.c **** 	{
 1185              		.loc 1 392 8 is_stmt 1 discriminator 1 view .LVU312
 392:Core/Src/GUI.c **** 	{
 1186              		.loc 1 392 9 is_stmt 0 discriminator 1 view .LVU313
 1187 01a4 BDF84C30 		ldrh	r3, [sp, #76]
 392:Core/Src/GUI.c **** 	{
 1188              		.loc 1 392 2 discriminator 1 view .LVU314
 1189 01a8 A342     		cmp	r3, r4
 1190 01aa A9D3     		bcc	.L56
 394:Core/Src/GUI.c **** 		b = x0 + sb / dy02;
 1191              		.loc 1 394 3 is_stmt 1 view .LVU315
 394:Core/Src/GUI.c **** 		b = x0 + sb / dy02;
 1192              		.loc 1 394 15 is_stmt 0 view .LVU316
 1193 01ac 96FBF9F2 		sdiv	r2, r6, r9
 394:Core/Src/GUI.c **** 		b = x0 + sb / dy02;
 1194              		.loc 1 394 10 view .LVU317
 1195 01b0 BDF81230 		ldrh	r3, [sp, #18]
 1196 01b4 1A44     		add	r2, r2, r3
 1197 01b6 92B2     		uxth	r2, r2
 394:Core/Src/GUI.c **** 		b = x0 + sb / dy02;
 1198              		.loc 1 394 5 view .LVU318
 1199 01b8 ADF81E20 		strh	r2, [sp, #30]	@ movhi
 395:Core/Src/GUI.c **** 		sa += dx12;
 1200              		.loc 1 395 3 is_stmt 1 view .LVU319
 395:Core/Src/GUI.c **** 		sa += dx12;
 1201              		.loc 1 395 15 is_stmt 0 view .LVU320
 1202 01bc 95FBF8F3 		sdiv	r3, r5, r8
 395:Core/Src/GUI.c **** 		sa += dx12;
 1203              		.loc 1 395 10 view .LVU321
 1204 01c0 BDF81610 		ldrh	r1, [sp, #22]
 1205 01c4 0B44     		add	r3, r3, r1
 1206 01c6 9BB2     		uxth	r3, r3
 395:Core/Src/GUI.c **** 		sa += dx12;
 1207              		.loc 1 395 5 view .LVU322
 1208 01c8 ADF81C30 		strh	r3, [sp, #28]	@ movhi
 396:Core/Src/GUI.c **** 		sb += dx02;
 1209              		.loc 1 396 3 is_stmt 1 view .LVU323
 396:Core/Src/GUI.c **** 		sb += dx02;
 1210              		.loc 1 396 6 is_stmt 0 view .LVU324
 1211 01cc 5644     		add	r6, r6, r10
 1212              	.LVL134:
 397:Core/Src/GUI.c **** 		if(a > b)
 1213              		.loc 1 397 3 is_stmt 1 view .LVU325
 397:Core/Src/GUI.c **** 		if(a > b)
 1214              		.loc 1 397 6 is_stmt 0 view .LVU326
 1215 01ce 3D44     		add	r5, r5, r7
 1216              	.LVL135:
 398:Core/Src/GUI.c **** 		{
 1217              		.loc 1 398 3 is_stmt 1 view .LVU327
 398:Core/Src/GUI.c **** 		{
 1218              		.loc 1 398 5 is_stmt 0 view .LVU328
ARM GAS  C:\Users\savao\AppData\Local\Temp\ccRdM6zw.s 			page 34


 1219 01d0 9A42     		cmp	r2, r3
 1220 01d2 DAD9     		bls	.L71
 400:Core/Src/GUI.c **** 		}
 1221              		.loc 1 400 4 is_stmt 1 view .LVU329
 1222 01d4 07A9     		add	r1, sp, #28
 1223 01d6 0DF11E00 		add	r0, sp, #30
 1224 01da FFF7FEFF 		bl	_swap
 1225              	.LVL136:
 1226 01de D4E7     		b	.L71
 1227              	.L80:
 1228              		.align	2
 1229              	.L79:
 1230 01e0 00000000 		.word	POINT_COLOR
 1231              		.cfi_endproc
 1232              	.LFE139:
 1234              		.section	.text.LCD_ShowChar,"ax",%progbits
 1235              		.align	1
 1236              		.global	LCD_ShowChar
 1237              		.syntax unified
 1238              		.thumb
 1239              		.thumb_func
 1240              		.fpu fpv4-sp-d16
 1242              	LCD_ShowChar:
 1243              	.LVL137:
 1244              	.LFB140:
 405:Core/Src/GUI.c **** 
 406:Core/Src/GUI.c **** /*****************************************************************************
 407:Core/Src/GUI.c ****  * @name       :void LCD_ShowChar(u16 x,u16 y,u16 fc, u16 bc, u8 num,u8 size,u8 mode)
 408:Core/Src/GUI.c ****  * @date       :2018-08-09 
 409:Core/Src/GUI.c ****  * @function   :Display a single English character
 410:Core/Src/GUI.c ****  * @parameters :x:the bebinning x coordinate of the Character display position
 411:Core/Src/GUI.c ****                 y:the bebinning y coordinate of the Character display position
 412:Core/Src/GUI.c **** 								fc:the color value of display character
 413:Core/Src/GUI.c **** 								bc:the background color of display character
 414:Core/Src/GUI.c **** 								num:the ascii code of display character(0~94)
 415:Core/Src/GUI.c **** 								size:the size of display character
 416:Core/Src/GUI.c **** 								mode:0-no overlying,1-overlying
 417:Core/Src/GUI.c ****  * @retvalue   :None
 418:Core/Src/GUI.c **** ******************************************************************************/ 
 419:Core/Src/GUI.c **** void LCD_ShowChar(u16 x,u16 y,u16 fc, u16 bc, u8 num,u8 size,u8 mode)
 420:Core/Src/GUI.c **** {  
 1245              		.loc 1 420 1 view -0
 1246              		.cfi_startproc
 1247              		@ args = 12, pretend = 0, frame = 16
 1248              		@ frame_needed = 0, uses_anonymous_args = 0
 1249              		.loc 1 420 1 is_stmt 0 view .LVU331
 1250 0000 2DE9F04F 		push	{r4, r5, r6, r7, r8, r9, r10, fp, lr}
 1251              	.LCFI18:
 1252              		.cfi_def_cfa_offset 36
 1253              		.cfi_offset 4, -36
 1254              		.cfi_offset 5, -32
 1255              		.cfi_offset 6, -28
 1256              		.cfi_offset 7, -24
 1257              		.cfi_offset 8, -20
 1258              		.cfi_offset 9, -16
 1259              		.cfi_offset 10, -12
 1260              		.cfi_offset 11, -8
ARM GAS  C:\Users\savao\AppData\Local\Temp\ccRdM6zw.s 			page 35


 1261              		.cfi_offset 14, -4
 1262 0004 85B0     		sub	sp, sp, #20
 1263              	.LCFI19:
 1264              		.cfi_def_cfa_offset 56
 1265 0006 8B46     		mov	fp, r1
 1266 0008 1746     		mov	r7, r2
 1267 000a 1D46     		mov	r5, r3
 1268 000c 9DF83C90 		ldrb	r9, [sp, #60]	@ zero_extendqisi2
 1269 0010 9DF84040 		ldrb	r4, [sp, #64]	@ zero_extendqisi2
 1270 0014 0194     		str	r4, [sp, #4]
 421:Core/Src/GUI.c ****     u8 temp;
 1271              		.loc 1 421 5 is_stmt 1 view .LVU332
 422:Core/Src/GUI.c ****     u8 pos,t;
 1272              		.loc 1 422 5 view .LVU333
 423:Core/Src/GUI.c **** 	u16 colortemp=POINT_COLOR;      
 1273              		.loc 1 423 2 view .LVU334
 1274              		.loc 1 423 6 is_stmt 0 view .LVU335
 1275 0016 464B     		ldr	r3, .L105
 1276              	.LVL138:
 1277              		.loc 1 423 6 view .LVU336
 1278 0018 1A88     		ldrh	r2, [r3]
 1279              	.LVL139:
 1280              		.loc 1 423 6 view .LVU337
 1281 001a 0292     		str	r2, [sp, #8]
 1282              	.LVL140:
 424:Core/Src/GUI.c **** 		   
 425:Core/Src/GUI.c **** 	num=num-' ';//得到偏移后的值
 1283              		.loc 1 425 2 is_stmt 1 view .LVU338
 1284              		.loc 1 425 5 is_stmt 0 view .LVU339
 1285 001c 9DF838A0 		ldrb	r10, [sp, #56]	@ zero_extendqisi2
 1286 0020 AAF1200A 		sub	r10, r10, #32
 1287 0024 5FFA8AFA 		uxtb	r10, r10
 1288              	.LVL141:
 426:Core/Src/GUI.c **** 	LCD_SetWindows(x,y,x+size/2-1,y+size-1);//设置单个文字显示窗口
 1289              		.loc 1 426 2 is_stmt 1 view .LVU340
 1290              		.loc 1 426 22 is_stmt 0 view .LVU341
 1291 0028 4FEA5906 		lsr	r6, r9, #1
 1292 002c 0390     		str	r0, [sp, #12]
 1293 002e 00EB5902 		add	r2, r0, r9, lsr #1
 1294 0032 92B2     		uxth	r2, r2
 1295              		.loc 1 426 33 view .LVU342
 1296 0034 01EB0903 		add	r3, r1, r9
 1297 0038 9BB2     		uxth	r3, r3
 1298              		.loc 1 426 2 view .LVU343
 1299 003a 013B     		subs	r3, r3, #1
 1300 003c 013A     		subs	r2, r2, #1
 1301 003e 9BB2     		uxth	r3, r3
 1302 0040 92B2     		uxth	r2, r2
 1303 0042 FFF7FEFF 		bl	LCD_SetWindows
 1304              	.LVL142:
 427:Core/Src/GUI.c **** 	if(!mode) //非叠加方式
 1305              		.loc 1 427 2 is_stmt 1 view .LVU344
 1306              		.loc 1 427 4 is_stmt 0 view .LVU345
 1307 0046 84B3     		cbz	r4, .L98
 428:Core/Src/GUI.c **** 	{		
 429:Core/Src/GUI.c **** 		for(pos=0;pos<size;pos++)
 430:Core/Src/GUI.c **** 		{
ARM GAS  C:\Users\savao\AppData\Local\Temp\ccRdM6zw.s 			page 36


 431:Core/Src/GUI.c **** 			if(size==12)temp=asc2_1206[num][pos];//调用1206字体
 432:Core/Src/GUI.c **** 			else temp=asc2_1608[num][pos];		 //调用1608字体
 433:Core/Src/GUI.c **** 			for(t=0;t<size/2;t++)
 434:Core/Src/GUI.c **** 		    {                 
 435:Core/Src/GUI.c **** 		        if(temp&0x80)Lcd_WriteData_16Bit(fc); 
 436:Core/Src/GUI.c **** 				else Lcd_WriteData_16Bit(bc); 
 437:Core/Src/GUI.c **** 				temp<<=1; 
 438:Core/Src/GUI.c **** 				
 439:Core/Src/GUI.c **** 		    }
 440:Core/Src/GUI.c **** 			
 441:Core/Src/GUI.c **** 		}	
 442:Core/Src/GUI.c **** 	}else//叠加方式
 443:Core/Src/GUI.c **** 	{
 444:Core/Src/GUI.c **** 		for(pos=0;pos<size;pos++)
 1308              		.loc 1 444 10 view .LVU346
 1309 0048 4FF00008 		mov	r8, #0
 1310 004c CDF804A0 		str	r10, [sp, #4]
 1311 0050 DDF80CA0 		ldr	r10, [sp, #12]
 1312              	.LVL143:
 1313              		.loc 1 444 10 view .LVU347
 1314 0054 4DE0     		b	.L83
 1315              	.LVL144:
 1316              	.L102:
 431:Core/Src/GUI.c **** 			else temp=asc2_1608[num][pos];		 //调用1608字体
 1317              		.loc 1 431 16 is_stmt 1 discriminator 1 view .LVU348
 431:Core/Src/GUI.c **** 			else temp=asc2_1608[num][pos];		 //调用1608字体
 1318              		.loc 1 431 20 is_stmt 0 discriminator 1 view .LVU349
 1319 0056 0AEB4A03 		add	r3, r10, r10, lsl #1
 1320 005a 364A     		ldr	r2, .L105+4
 1321 005c 02EB8303 		add	r3, r2, r3, lsl #2
 1322 0060 13F80B80 		ldrb	r8, [r3, fp]	@ zero_extendqisi2
 1323              	.LVL145:
 431:Core/Src/GUI.c **** 			else temp=asc2_1608[num][pos];		 //调用1608字体
 1324              		.loc 1 431 20 discriminator 1 view .LVU350
 1325 0064 1FE0     		b	.L86
 1326              	.LVL146:
 1327              	.L101:
 435:Core/Src/GUI.c **** 				else Lcd_WriteData_16Bit(bc); 
 1328              		.loc 1 435 24 is_stmt 1 discriminator 1 view .LVU351
 1329 0066 3846     		mov	r0, r7
 1330 0068 FFF7FEFF 		bl	Lcd_WriteData_16Bit
 1331              	.LVL147:
 1332              	.L88:
 437:Core/Src/GUI.c **** 				
 1333              		.loc 1 437 5 discriminator 2 view .LVU352
 437:Core/Src/GUI.c **** 				
 1334              		.loc 1 437 9 is_stmt 0 discriminator 2 view .LVU353
 1335 006c 4FEA4808 		lsl	r8, r8, #1
 1336              	.LVL148:
 437:Core/Src/GUI.c **** 				
 1337              		.loc 1 437 9 discriminator 2 view .LVU354
 1338 0070 5FFA88F8 		uxtb	r8, r8
 1339              	.LVL149:
 433:Core/Src/GUI.c **** 		    {                 
 1340              		.loc 1 433 21 is_stmt 1 discriminator 2 view .LVU355
 433:Core/Src/GUI.c **** 		    {                 
 1341              		.loc 1 433 22 is_stmt 0 discriminator 2 view .LVU356
ARM GAS  C:\Users\savao\AppData\Local\Temp\ccRdM6zw.s 			page 37


 1342 0074 0134     		adds	r4, r4, #1
 1343              	.LVL150:
 433:Core/Src/GUI.c **** 		    {                 
 1344              		.loc 1 433 22 discriminator 2 view .LVU357
 1345 0076 E4B2     		uxtb	r4, r4
 1346              	.LVL151:
 1347              	.L85:
 433:Core/Src/GUI.c **** 		    {                 
 1348              		.loc 1 433 12 is_stmt 1 discriminator 1 view .LVU358
 433:Core/Src/GUI.c **** 		    {                 
 1349              		.loc 1 433 4 is_stmt 0 discriminator 1 view .LVU359
 1350 0078 A642     		cmp	r6, r4
 1351 007a 06D9     		bls	.L100
 435:Core/Src/GUI.c **** 				else Lcd_WriteData_16Bit(bc); 
 1352              		.loc 1 435 11 is_stmt 1 view .LVU360
 435:Core/Src/GUI.c **** 				else Lcd_WriteData_16Bit(bc); 
 1353              		.loc 1 435 13 is_stmt 0 view .LVU361
 1354 007c 18F0800F 		tst	r8, #128
 1355 0080 F1D1     		bne	.L101
 436:Core/Src/GUI.c **** 				temp<<=1; 
 1356              		.loc 1 436 10 is_stmt 1 view .LVU362
 1357 0082 2846     		mov	r0, r5
 1358 0084 FFF7FEFF 		bl	Lcd_WriteData_16Bit
 1359              	.LVL152:
 1360 0088 F0E7     		b	.L88
 1361              	.L100:
 429:Core/Src/GUI.c **** 		{
 1362              		.loc 1 429 22 discriminator 2 view .LVU363
 429:Core/Src/GUI.c **** 		{
 1363              		.loc 1 429 25 is_stmt 0 discriminator 2 view .LVU364
 1364 008a 0BF1010B 		add	fp, fp, #1
 1365              	.LVL153:
 429:Core/Src/GUI.c **** 		{
 1366              		.loc 1 429 25 discriminator 2 view .LVU365
 1367 008e 5FFA8BFB 		uxtb	fp, fp
 1368              	.LVL154:
 1369              	.L82:
 429:Core/Src/GUI.c **** 		{
 1370              		.loc 1 429 13 is_stmt 1 discriminator 1 view .LVU366
 429:Core/Src/GUI.c **** 		{
 1371              		.loc 1 429 3 is_stmt 0 discriminator 1 view .LVU367
 1372 0092 CB45     		cmp	fp, r9
 1373 0094 3AD2     		bcs	.L91
 431:Core/Src/GUI.c **** 			else temp=asc2_1608[num][pos];		 //调用1608字体
 1374              		.loc 1 431 4 is_stmt 1 view .LVU368
 431:Core/Src/GUI.c **** 			else temp=asc2_1608[num][pos];		 //调用1608字体
 1375              		.loc 1 431 6 is_stmt 0 view .LVU369
 1376 0096 B9F10C0F 		cmp	r9, #12
 1377 009a DCD0     		beq	.L102
 432:Core/Src/GUI.c **** 			for(t=0;t<size/2;t++)
 1378              		.loc 1 432 9 is_stmt 1 view .LVU370
 432:Core/Src/GUI.c **** 			for(t=0;t<size/2;t++)
 1379              		.loc 1 432 13 is_stmt 0 view .LVU371
 1380 009c 264B     		ldr	r3, .L105+8
 1381 009e 03EB0A13 		add	r3, r3, r10, lsl #4
 1382 00a2 13F80B80 		ldrb	r8, [r3, fp]	@ zero_extendqisi2
 1383              	.LVL155:
ARM GAS  C:\Users\savao\AppData\Local\Temp\ccRdM6zw.s 			page 38


 1384              	.L86:
 420:Core/Src/GUI.c ****     u8 temp;
 1385              		.loc 1 420 1 discriminator 1 view .LVU372
 1386 00a6 019C     		ldr	r4, [sp, #4]
 1387 00a8 E6E7     		b	.L85
 1388              	.LVL156:
 1389              	.L98:
 429:Core/Src/GUI.c **** 		{
 1390              		.loc 1 429 10 view .LVU373
 1391 00aa DDF804B0 		ldr	fp, [sp, #4]
 1392 00ae F0E7     		b	.L82
 1393              	.LVL157:
 1394              	.L104:
 445:Core/Src/GUI.c **** 		{
 446:Core/Src/GUI.c **** 			if(size==12)temp=asc2_1206[num][pos];//调用1206字体
 1395              		.loc 1 446 16 is_stmt 1 discriminator 1 view .LVU374
 1396              		.loc 1 446 20 is_stmt 0 discriminator 1 view .LVU375
 1397 00b0 019B     		ldr	r3, [sp, #4]
 1398 00b2 03EB4303 		add	r3, r3, r3, lsl #1
 1399 00b6 1F4A     		ldr	r2, .L105+4
 1400 00b8 02EB8303 		add	r3, r2, r3, lsl #2
 1401 00bc 13F80850 		ldrb	r5, [r3, r8]	@ zero_extendqisi2
 1402              	.LVL158:
 1403              		.loc 1 446 20 discriminator 1 view .LVU376
 1404 00c0 22E0     		b	.L94
 1405              	.LVL159:
 1406              	.L95:
 447:Core/Src/GUI.c **** 			else temp=asc2_1608[num][pos];		 //调用1608字体
 448:Core/Src/GUI.c **** 			for(t=0;t<size/2;t++)
 449:Core/Src/GUI.c **** 		    {   
 450:Core/Src/GUI.c **** 				POINT_COLOR=fc;              
 451:Core/Src/GUI.c **** 		        if(temp&0x80)LCD_DrawPoint(x+t,y+pos);//画一个点    
 452:Core/Src/GUI.c **** 		        temp<<=1; 
 1407              		.loc 1 452 11 is_stmt 1 discriminator 2 view .LVU377
 1408              		.loc 1 452 15 is_stmt 0 discriminator 2 view .LVU378
 1409 00c2 6D00     		lsls	r5, r5, #1
 1410              	.LVL160:
 1411              		.loc 1 452 15 discriminator 2 view .LVU379
 1412 00c4 EDB2     		uxtb	r5, r5
 1413              	.LVL161:
 448:Core/Src/GUI.c **** 		    {   
 1414              		.loc 1 448 21 is_stmt 1 discriminator 2 view .LVU380
 448:Core/Src/GUI.c **** 		    {   
 1415              		.loc 1 448 22 is_stmt 0 discriminator 2 view .LVU381
 1416 00c6 0134     		adds	r4, r4, #1
 1417              	.LVL162:
 448:Core/Src/GUI.c **** 		    {   
 1418              		.loc 1 448 22 discriminator 2 view .LVU382
 1419 00c8 E4B2     		uxtb	r4, r4
 1420              	.LVL163:
 1421              	.L93:
 448:Core/Src/GUI.c **** 		    {   
 1422              		.loc 1 448 12 is_stmt 1 discriminator 1 view .LVU383
 448:Core/Src/GUI.c **** 		    {   
 1423              		.loc 1 448 4 is_stmt 0 discriminator 1 view .LVU384
 1424 00ca A642     		cmp	r6, r4
 1425 00cc 0DD9     		bls	.L103
ARM GAS  C:\Users\savao\AppData\Local\Temp\ccRdM6zw.s 			page 39


 450:Core/Src/GUI.c **** 		        if(temp&0x80)LCD_DrawPoint(x+t,y+pos);//画一个点    
 1426              		.loc 1 450 5 is_stmt 1 view .LVU385
 450:Core/Src/GUI.c **** 		        if(temp&0x80)LCD_DrawPoint(x+t,y+pos);//画一个点    
 1427              		.loc 1 450 16 is_stmt 0 view .LVU386
 1428 00ce 184B     		ldr	r3, .L105
 1429 00d0 1F80     		strh	r7, [r3]	@ movhi
 451:Core/Src/GUI.c **** 		        temp<<=1; 
 1430              		.loc 1 451 11 is_stmt 1 view .LVU387
 451:Core/Src/GUI.c **** 		        temp<<=1; 
 1431              		.loc 1 451 13 is_stmt 0 view .LVU388
 1432 00d2 15F0800F 		tst	r5, #128
 1433 00d6 F4D0     		beq	.L95
 451:Core/Src/GUI.c **** 		        temp<<=1; 
 1434              		.loc 1 451 24 is_stmt 1 discriminator 1 view .LVU389
 1435 00d8 0BEB0801 		add	r1, fp, r8
 1436 00dc 0AEB0400 		add	r0, r10, r4
 1437 00e0 89B2     		uxth	r1, r1
 1438 00e2 80B2     		uxth	r0, r0
 1439 00e4 FFF7FEFF 		bl	LCD_DrawPoint
 1440              	.LVL164:
 1441 00e8 EBE7     		b	.L95
 1442              	.L103:
 444:Core/Src/GUI.c **** 		{
 1443              		.loc 1 444 22 discriminator 2 view .LVU390
 444:Core/Src/GUI.c **** 		{
 1444              		.loc 1 444 25 is_stmt 0 discriminator 2 view .LVU391
 1445 00ea 08F10108 		add	r8, r8, #1
 1446              	.LVL165:
 444:Core/Src/GUI.c **** 		{
 1447              		.loc 1 444 25 discriminator 2 view .LVU392
 1448 00ee 5FFA88F8 		uxtb	r8, r8
 1449              	.LVL166:
 1450              	.L83:
 444:Core/Src/GUI.c **** 		{
 1451              		.loc 1 444 13 is_stmt 1 discriminator 1 view .LVU393
 444:Core/Src/GUI.c **** 		{
 1452              		.loc 1 444 3 is_stmt 0 discriminator 1 view .LVU394
 1453 00f2 C845     		cmp	r8, r9
 1454 00f4 0AD2     		bcs	.L91
 446:Core/Src/GUI.c **** 			else temp=asc2_1608[num][pos];		 //调用1608字体
 1455              		.loc 1 446 4 is_stmt 1 view .LVU395
 446:Core/Src/GUI.c **** 			else temp=asc2_1608[num][pos];		 //调用1608字体
 1456              		.loc 1 446 6 is_stmt 0 view .LVU396
 1457 00f6 B9F10C0F 		cmp	r9, #12
 1458 00fa D9D0     		beq	.L104
 447:Core/Src/GUI.c **** 			for(t=0;t<size/2;t++)
 1459              		.loc 1 447 9 is_stmt 1 view .LVU397
 447:Core/Src/GUI.c **** 			for(t=0;t<size/2;t++)
 1460              		.loc 1 447 13 is_stmt 0 view .LVU398
 1461 00fc 0E4B     		ldr	r3, .L105+8
 1462 00fe 019A     		ldr	r2, [sp, #4]
 1463 0100 03EB0213 		add	r3, r3, r2, lsl #4
 1464 0104 13F80850 		ldrb	r5, [r3, r8]	@ zero_extendqisi2
 1465              	.LVL167:
 1466              	.L94:
 429:Core/Src/GUI.c **** 		{
 1467              		.loc 1 429 10 discriminator 1 view .LVU399
ARM GAS  C:\Users\savao\AppData\Local\Temp\ccRdM6zw.s 			page 40


 1468 0108 0024     		movs	r4, #0
 1469 010a DEE7     		b	.L93
 1470              	.LVL168:
 1471              	.L91:
 453:Core/Src/GUI.c **** 		    }
 454:Core/Src/GUI.c **** 		}
 455:Core/Src/GUI.c **** 	}
 456:Core/Src/GUI.c **** 	POINT_COLOR=colortemp;	
 1472              		.loc 1 456 2 is_stmt 1 view .LVU400
 1473              		.loc 1 456 13 is_stmt 0 view .LVU401
 1474 010c 084B     		ldr	r3, .L105
 1475 010e 029A     		ldr	r2, [sp, #8]
 1476 0110 1A80     		strh	r2, [r3]	@ movhi
 457:Core/Src/GUI.c **** 	LCD_SetWindows(0,0,lcddev.width-1,lcddev.height-1);//恢复窗口为全屏    	   	 	  
 1477              		.loc 1 457 2 is_stmt 1 view .LVU402
 1478              		.loc 1 457 27 is_stmt 0 view .LVU403
 1479 0112 0A4B     		ldr	r3, .L105+12
 1480 0114 9A88     		ldrh	r2, [r3, #4]
 1481              		.loc 1 457 42 view .LVU404
 1482 0116 DB88     		ldrh	r3, [r3, #6]
 1483              		.loc 1 457 2 view .LVU405
 1484 0118 013B     		subs	r3, r3, #1
 1485 011a 013A     		subs	r2, r2, #1
 1486 011c 9BB2     		uxth	r3, r3
 1487 011e 92B2     		uxth	r2, r2
 1488 0120 0021     		movs	r1, #0
 1489 0122 0846     		mov	r0, r1
 1490 0124 FFF7FEFF 		bl	LCD_SetWindows
 1491              	.LVL169:
 458:Core/Src/GUI.c **** }
 1492              		.loc 1 458 1 view .LVU406
 1493 0128 05B0     		add	sp, sp, #20
 1494              	.LCFI20:
 1495              		.cfi_def_cfa_offset 36
 1496              		@ sp needed
 1497 012a BDE8F08F 		pop	{r4, r5, r6, r7, r8, r9, r10, fp, pc}
 1498              	.LVL170:
 1499              	.L106:
 1500              		.loc 1 458 1 view .LVU407
 1501 012e 00BF     		.align	2
 1502              	.L105:
 1503 0130 00000000 		.word	POINT_COLOR
 1504 0134 00000000 		.word	.LANCHOR0
 1505 0138 00000000 		.word	.LANCHOR1
 1506 013c 00000000 		.word	lcddev
 1507              		.cfi_endproc
 1508              	.LFE140:
 1510              		.section	.text.LCD_ShowString,"ax",%progbits
 1511              		.align	1
 1512              		.global	LCD_ShowString
 1513              		.syntax unified
 1514              		.thumb
 1515              		.thumb_func
 1516              		.fpu fpv4-sp-d16
 1518              	LCD_ShowString:
 1519              	.LVL171:
 1520              	.LFB141:
ARM GAS  C:\Users\savao\AppData\Local\Temp\ccRdM6zw.s 			page 41


 459:Core/Src/GUI.c **** 
 460:Core/Src/GUI.c **** /*****************************************************************************
 461:Core/Src/GUI.c ****  * @name       :void LCD_ShowString(u16 x,u16 y,u8 size,u8 *p,u8 mode)
 462:Core/Src/GUI.c ****  * @date       :2018-08-09 
 463:Core/Src/GUI.c ****  * @function   :Display English string
 464:Core/Src/GUI.c ****  * @parameters :x:the bebinning x coordinate of the English string
 465:Core/Src/GUI.c ****                 y:the bebinning y coordinate of the English string
 466:Core/Src/GUI.c **** 								p:the start address of the English string
 467:Core/Src/GUI.c **** 								size:the size of display character
 468:Core/Src/GUI.c **** 								mode:0-no overlying,1-overlying
 469:Core/Src/GUI.c ****  * @retvalue   :None
 470:Core/Src/GUI.c **** ******************************************************************************/   	  
 471:Core/Src/GUI.c **** void LCD_ShowString(u16 x,u16 y,u8 size,u8 *p,u8 mode)
 472:Core/Src/GUI.c **** {         
 1521              		.loc 1 472 1 is_stmt 1 view -0
 1522              		.cfi_startproc
 1523              		@ args = 4, pretend = 0, frame = 0
 1524              		@ frame_needed = 0, uses_anonymous_args = 0
 1525              		.loc 1 472 1 is_stmt 0 view .LVU409
 1526 0000 2DE9F041 		push	{r4, r5, r6, r7, r8, lr}
 1527              	.LCFI21:
 1528              		.cfi_def_cfa_offset 24
 1529              		.cfi_offset 4, -24
 1530              		.cfi_offset 5, -20
 1531              		.cfi_offset 6, -16
 1532              		.cfi_offset 7, -12
 1533              		.cfi_offset 8, -8
 1534              		.cfi_offset 14, -4
 1535 0004 84B0     		sub	sp, sp, #16
 1536              	.LCFI22:
 1537              		.cfi_def_cfa_offset 40
 1538 0006 0446     		mov	r4, r0
 1539 0008 0E46     		mov	r6, r1
 1540 000a 1746     		mov	r7, r2
 1541 000c 1D46     		mov	r5, r3
 1542 000e 9DF82880 		ldrb	r8, [sp, #40]	@ zero_extendqisi2
 473:Core/Src/GUI.c ****     while((*p<='~')&&(*p>=' '))//判断是不是非法字符!
 1543              		.loc 1 473 5 is_stmt 1 view .LVU410
 1544              		.loc 1 473 10 is_stmt 0 view .LVU411
 1545 0012 0FE0     		b	.L108
 1546              	.LVL172:
 1547              	.L112:
 474:Core/Src/GUI.c ****     {   
 475:Core/Src/GUI.c **** 		if(x>(lcddev.width-1)||y>(lcddev.height-1)) 
 476:Core/Src/GUI.c **** 		return;     
 477:Core/Src/GUI.c ****         LCD_ShowChar(x,y,POINT_COLOR,BACK_COLOR,*p,size,mode);
 1548              		.loc 1 477 9 is_stmt 1 view .LVU412
 1549 0014 CDF80880 		str	r8, [sp, #8]
 1550 0018 0197     		str	r7, [sp, #4]
 1551 001a 0093     		str	r3, [sp]
 1552 001c 0E4B     		ldr	r3, .L113
 1553 001e 1B88     		ldrh	r3, [r3]
 1554 0020 0E4A     		ldr	r2, .L113+4
 1555 0022 1288     		ldrh	r2, [r2]
 1556 0024 3146     		mov	r1, r6
 1557 0026 2046     		mov	r0, r4
 1558 0028 FFF7FEFF 		bl	LCD_ShowChar
ARM GAS  C:\Users\savao\AppData\Local\Temp\ccRdM6zw.s 			page 42


 1559              	.LVL173:
 478:Core/Src/GUI.c ****         x+=size/2;
 1560              		.loc 1 478 9 view .LVU413
 1561              		.loc 1 478 10 is_stmt 0 view .LVU414
 1562 002c 04EB5704 		add	r4, r4, r7, lsr #1
 1563              	.LVL174:
 1564              		.loc 1 478 10 view .LVU415
 1565 0030 A4B2     		uxth	r4, r4
 1566              	.LVL175:
 479:Core/Src/GUI.c ****         p++;
 1567              		.loc 1 479 9 is_stmt 1 view .LVU416
 1568              		.loc 1 479 10 is_stmt 0 view .LVU417
 1569 0032 0135     		adds	r5, r5, #1
 1570              	.LVL176:
 1571              	.L108:
 473:Core/Src/GUI.c ****     {   
 1572              		.loc 1 473 10 is_stmt 1 view .LVU418
 473:Core/Src/GUI.c ****     {   
 1573              		.loc 1 473 12 is_stmt 0 view .LVU419
 1574 0034 2B78     		ldrb	r3, [r5]	@ zero_extendqisi2
 473:Core/Src/GUI.c ****     {   
 1575              		.loc 1 473 20 view .LVU420
 1576 0036 A3F12000 		sub	r0, r3, #32
 1577 003a C0B2     		uxtb	r0, r0
 473:Core/Src/GUI.c ****     {   
 1578              		.loc 1 473 10 view .LVU421
 1579 003c 5E28     		cmp	r0, #94
 1580 003e 07D8     		bhi	.L107
 475:Core/Src/GUI.c **** 		return;     
 1581              		.loc 1 475 3 is_stmt 1 view .LVU422
 475:Core/Src/GUI.c **** 		return;     
 1582              		.loc 1 475 15 is_stmt 0 view .LVU423
 1583 0040 074A     		ldr	r2, .L113+8
 1584 0042 9288     		ldrh	r2, [r2, #4]
 475:Core/Src/GUI.c **** 		return;     
 1585              		.loc 1 475 5 view .LVU424
 1586 0044 A242     		cmp	r2, r4
 1587 0046 03D9     		bls	.L107
 475:Core/Src/GUI.c **** 		return;     
 1588              		.loc 1 475 35 discriminator 1 view .LVU425
 1589 0048 054A     		ldr	r2, .L113+8
 1590 004a D288     		ldrh	r2, [r2, #6]
 475:Core/Src/GUI.c **** 		return;     
 1591              		.loc 1 475 24 discriminator 1 view .LVU426
 1592 004c B242     		cmp	r2, r6
 1593 004e E1D8     		bhi	.L112
 1594              	.L107:
 480:Core/Src/GUI.c ****     }  
 481:Core/Src/GUI.c **** } 
 1595              		.loc 1 481 1 view .LVU427
 1596 0050 04B0     		add	sp, sp, #16
 1597              	.LCFI23:
 1598              		.cfi_def_cfa_offset 24
 1599              		@ sp needed
 1600 0052 BDE8F081 		pop	{r4, r5, r6, r7, r8, pc}
 1601              	.LVL177:
 1602              	.L114:
ARM GAS  C:\Users\savao\AppData\Local\Temp\ccRdM6zw.s 			page 43


 1603              		.loc 1 481 1 view .LVU428
 1604 0056 00BF     		.align	2
 1605              	.L113:
 1606 0058 00000000 		.word	BACK_COLOR
 1607 005c 00000000 		.word	POINT_COLOR
 1608 0060 00000000 		.word	lcddev
 1609              		.cfi_endproc
 1610              	.LFE141:
 1612              		.section	.text.mypow,"ax",%progbits
 1613              		.align	1
 1614              		.global	mypow
 1615              		.syntax unified
 1616              		.thumb
 1617              		.thumb_func
 1618              		.fpu fpv4-sp-d16
 1620              	mypow:
 1621              	.LVL178:
 1622              	.LFB142:
 482:Core/Src/GUI.c **** 
 483:Core/Src/GUI.c **** /*****************************************************************************
 484:Core/Src/GUI.c ****  * @name       :u32 mypow(u8 m,u8 n)
 485:Core/Src/GUI.c ****  * @date       :2018-08-09 
 486:Core/Src/GUI.c ****  * @function   :get the nth power of m (internal call)
 487:Core/Src/GUI.c ****  * @parameters :m:the multiplier
 488:Core/Src/GUI.c ****                 n:the power
 489:Core/Src/GUI.c ****  * @retvalue   :the nth power of m
 490:Core/Src/GUI.c **** ******************************************************************************/ 
 491:Core/Src/GUI.c **** u32 mypow(u8 m,u8 n)
 492:Core/Src/GUI.c **** {
 1623              		.loc 1 492 1 is_stmt 1 view -0
 1624              		.cfi_startproc
 1625              		@ args = 0, pretend = 0, frame = 0
 1626              		@ frame_needed = 0, uses_anonymous_args = 0
 1627              		@ link register save eliminated.
 1628              		.loc 1 492 1 is_stmt 0 view .LVU430
 1629 0000 0246     		mov	r2, r0
 493:Core/Src/GUI.c **** 	u32 result=1;	 
 1630              		.loc 1 493 2 is_stmt 1 view .LVU431
 1631              	.LVL179:
 494:Core/Src/GUI.c **** 	while(n--)result*=m;    
 1632              		.loc 1 494 2 view .LVU432
 493:Core/Src/GUI.c **** 	u32 result=1;	 
 1633              		.loc 1 493 6 is_stmt 0 view .LVU433
 1634 0002 0120     		movs	r0, #1
 1635              	.LVL180:
 1636              		.loc 1 494 7 view .LVU434
 1637 0004 02E0     		b	.L116
 1638              	.LVL181:
 1639              	.L117:
 1640              		.loc 1 494 12 is_stmt 1 discriminator 2 view .LVU435
 1641              		.loc 1 494 18 is_stmt 0 discriminator 2 view .LVU436
 1642 0006 02FB00F0 		mul	r0, r2, r0
 1643              	.LVL182:
 1644              		.loc 1 494 9 discriminator 2 view .LVU437
 1645 000a 1946     		mov	r1, r3
 1646              	.LVL183:
 1647              	.L116:
ARM GAS  C:\Users\savao\AppData\Local\Temp\ccRdM6zw.s 			page 44


 1648              		.loc 1 494 7 is_stmt 1 discriminator 1 view .LVU438
 1649              		.loc 1 494 9 is_stmt 0 discriminator 1 view .LVU439
 1650 000c 4B1E     		subs	r3, r1, #1
 1651 000e DBB2     		uxtb	r3, r3
 1652              	.LVL184:
 1653              		.loc 1 494 7 discriminator 1 view .LVU440
 1654 0010 0029     		cmp	r1, #0
 1655 0012 F8D1     		bne	.L117
 495:Core/Src/GUI.c **** 	return result;
 1656              		.loc 1 495 2 is_stmt 1 view .LVU441
 496:Core/Src/GUI.c **** }
 1657              		.loc 1 496 1 is_stmt 0 view .LVU442
 1658 0014 7047     		bx	lr
 1659              		.cfi_endproc
 1660              	.LFE142:
 1662              		.section	.text.LCD_ShowNum,"ax",%progbits
 1663              		.align	1
 1664              		.global	LCD_ShowNum
 1665              		.syntax unified
 1666              		.thumb
 1667              		.thumb_func
 1668              		.fpu fpv4-sp-d16
 1670              	LCD_ShowNum:
 1671              	.LVL185:
 1672              	.LFB143:
 497:Core/Src/GUI.c **** 
 498:Core/Src/GUI.c **** /*****************************************************************************
 499:Core/Src/GUI.c ****  * @name       :void LCD_ShowNum(u16 x,u16 y,u32 num,u8 len,u8 size)
 500:Core/Src/GUI.c ****  * @date       :2018-08-09 
 501:Core/Src/GUI.c ****  * @function   :Display number
 502:Core/Src/GUI.c ****  * @parameters :x:the bebinning x coordinate of the number
 503:Core/Src/GUI.c ****                 y:the bebinning y coordinate of the number
 504:Core/Src/GUI.c **** 								num:the number(0~4294967295)
 505:Core/Src/GUI.c **** 								len:the length of the display number
 506:Core/Src/GUI.c **** 								size:the size of display number
 507:Core/Src/GUI.c ****  * @retvalue   :None
 508:Core/Src/GUI.c **** ******************************************************************************/  			 
 509:Core/Src/GUI.c **** void LCD_ShowNum(u16 x,u16 y,u32 num,u8 len,u8 size)
 510:Core/Src/GUI.c **** {         	
 1673              		.loc 1 510 1 is_stmt 1 view -0
 1674              		.cfi_startproc
 1675              		@ args = 4, pretend = 0, frame = 0
 1676              		@ frame_needed = 0, uses_anonymous_args = 0
 1677              		.loc 1 510 1 is_stmt 0 view .LVU444
 1678 0000 2DE9F047 		push	{r4, r5, r6, r7, r8, r9, r10, lr}
 1679              	.LCFI24:
 1680              		.cfi_def_cfa_offset 32
 1681              		.cfi_offset 4, -32
 1682              		.cfi_offset 5, -28
 1683              		.cfi_offset 6, -24
 1684              		.cfi_offset 7, -20
 1685              		.cfi_offset 8, -16
 1686              		.cfi_offset 9, -12
 1687              		.cfi_offset 10, -8
 1688              		.cfi_offset 14, -4
 1689 0004 84B0     		sub	sp, sp, #16
 1690              	.LCFI25:
ARM GAS  C:\Users\savao\AppData\Local\Temp\ccRdM6zw.s 			page 45


 1691              		.cfi_def_cfa_offset 48
 1692 0006 8246     		mov	r10, r0
 1693 0008 8946     		mov	r9, r1
 1694 000a 9046     		mov	r8, r2
 1695 000c 1D46     		mov	r5, r3
 1696 000e 9DF83060 		ldrb	r6, [sp, #48]	@ zero_extendqisi2
 511:Core/Src/GUI.c **** 	u8 t,temp;
 1697              		.loc 1 511 2 is_stmt 1 view .LVU445
 512:Core/Src/GUI.c **** 	u8 enshow=0;						   
 1698              		.loc 1 512 2 view .LVU446
 1699              	.LVL186:
 513:Core/Src/GUI.c **** 	for(t=0;t<len;t++)
 1700              		.loc 1 513 2 view .LVU447
 512:Core/Src/GUI.c **** 	u8 enshow=0;						   
 1701              		.loc 1 512 5 is_stmt 0 view .LVU448
 1702 0012 0027     		movs	r7, #0
 1703              		.loc 1 513 7 view .LVU449
 1704 0014 3C46     		mov	r4, r7
 1705              		.loc 1 513 2 view .LVU450
 1706 0016 22E0     		b	.L119
 1707              	.LVL187:
 1708              	.L126:
 514:Core/Src/GUI.c **** 	{
 515:Core/Src/GUI.c **** 		temp=(num/mypow(10,len-t-1))%10;
 516:Core/Src/GUI.c **** 		if(enshow==0&&t<(len-1))
 517:Core/Src/GUI.c **** 		{
 518:Core/Src/GUI.c **** 			if(temp==0)
 519:Core/Src/GUI.c **** 			{
 520:Core/Src/GUI.c **** 				LCD_ShowChar(x+(size/2)*t,y,POINT_COLOR,BACK_COLOR,' ',size,0);
 1709              		.loc 1 520 5 is_stmt 1 view .LVU451
 1710              		.loc 1 520 28 is_stmt 0 view .LVU452
 1711 0018 7008     		lsrs	r0, r6, #1
 1712              		.loc 1 520 5 view .LVU453
 1713 001a 00FB04A0 		mla	r0, r0, r4, r10
 1714 001e 0293     		str	r3, [sp, #8]
 1715 0020 0196     		str	r6, [sp, #4]
 1716 0022 2023     		movs	r3, #32
 1717              	.LVL188:
 1718              		.loc 1 520 5 view .LVU454
 1719 0024 0093     		str	r3, [sp]
 1720 0026 1F4B     		ldr	r3, .L127
 1721 0028 1B88     		ldrh	r3, [r3]
 1722 002a 1F4A     		ldr	r2, .L127+4
 1723 002c 1288     		ldrh	r2, [r2]
 1724 002e 4946     		mov	r1, r9
 1725 0030 80B2     		uxth	r0, r0
 1726 0032 FFF7FEFF 		bl	LCD_ShowChar
 1727              	.LVL189:
 521:Core/Src/GUI.c **** 				continue;
 1728              		.loc 1 521 5 is_stmt 1 view .LVU455
 1729 0036 10E0     		b	.L121
 1730              	.LVL190:
 1731              	.L120:
 522:Core/Src/GUI.c **** 			}else enshow=1; 
 523:Core/Src/GUI.c **** 		 	 
 524:Core/Src/GUI.c **** 		}
 525:Core/Src/GUI.c **** 	 	LCD_ShowChar(x+(size/2)*t,y,POINT_COLOR,BACK_COLOR,temp+'0',size,0); 
ARM GAS  C:\Users\savao\AppData\Local\Temp\ccRdM6zw.s 			page 46


 1732              		.loc 1 525 4 view .LVU456
 1733              		.loc 1 525 27 is_stmt 0 view .LVU457
 1734 0038 7008     		lsrs	r0, r6, #1
 1735              		.loc 1 525 4 view .LVU458
 1736 003a 00FB04A0 		mla	r0, r0, r4, r10
 1737 003e 0022     		movs	r2, #0
 1738 0040 0292     		str	r2, [sp, #8]
 1739 0042 0196     		str	r6, [sp, #4]
 1740 0044 3033     		adds	r3, r3, #48
 1741              	.LVL191:
 1742              		.loc 1 525 4 view .LVU459
 1743 0046 DBB2     		uxtb	r3, r3
 1744              	.LVL192:
 1745              		.loc 1 525 4 view .LVU460
 1746 0048 0093     		str	r3, [sp]
 1747 004a 164B     		ldr	r3, .L127
 1748 004c 1B88     		ldrh	r3, [r3]
 1749 004e 164A     		ldr	r2, .L127+4
 1750 0050 1288     		ldrh	r2, [r2]
 1751 0052 4946     		mov	r1, r9
 1752 0054 80B2     		uxth	r0, r0
 1753 0056 FFF7FEFF 		bl	LCD_ShowChar
 1754              	.LVL193:
 1755              	.L121:
 513:Core/Src/GUI.c **** 	{
 1756              		.loc 1 513 16 is_stmt 1 discriminator 2 view .LVU461
 513:Core/Src/GUI.c **** 	{
 1757              		.loc 1 513 17 is_stmt 0 discriminator 2 view .LVU462
 1758 005a 0134     		adds	r4, r4, #1
 1759              	.LVL194:
 513:Core/Src/GUI.c **** 	{
 1760              		.loc 1 513 17 discriminator 2 view .LVU463
 1761 005c E4B2     		uxtb	r4, r4
 1762              	.LVL195:
 1763              	.L119:
 513:Core/Src/GUI.c **** 	{
 1764              		.loc 1 513 10 is_stmt 1 discriminator 1 view .LVU464
 513:Core/Src/GUI.c **** 	{
 1765              		.loc 1 513 2 is_stmt 0 discriminator 1 view .LVU465
 1766 005e AC42     		cmp	r4, r5
 1767 0060 1CD2     		bcs	.L125
 515:Core/Src/GUI.c **** 		if(enshow==0&&t<(len-1))
 1768              		.loc 1 515 3 is_stmt 1 view .LVU466
 515:Core/Src/GUI.c **** 		if(enshow==0&&t<(len-1))
 1769              		.loc 1 515 25 is_stmt 0 view .LVU467
 1770 0062 291B     		subs	r1, r5, r4
 1771 0064 C9B2     		uxtb	r1, r1
 515:Core/Src/GUI.c **** 		if(enshow==0&&t<(len-1))
 1772              		.loc 1 515 13 view .LVU468
 1773 0066 0139     		subs	r1, r1, #1
 1774 0068 C9B2     		uxtb	r1, r1
 1775 006a 0A20     		movs	r0, #10
 1776 006c FFF7FEFF 		bl	mypow
 1777              	.LVL196:
 515:Core/Src/GUI.c **** 		if(enshow==0&&t<(len-1))
 1778              		.loc 1 515 12 view .LVU469
 1779 0070 B8FBF0F0 		udiv	r0, r8, r0
ARM GAS  C:\Users\savao\AppData\Local\Temp\ccRdM6zw.s 			page 47


 515:Core/Src/GUI.c **** 		if(enshow==0&&t<(len-1))
 1780              		.loc 1 515 31 view .LVU470
 1781 0074 0D4B     		ldr	r3, .L127+8
 1782 0076 A3FB003C 		umull	r3, ip, r3, r0
 1783 007a 4FEADC0C 		lsr	ip, ip, #3
 1784 007e 0CEB8C0C 		add	ip, ip, ip, lsl #2
 1785 0082 A0EB4C0C 		sub	ip, r0, ip, lsl #1
 515:Core/Src/GUI.c **** 		if(enshow==0&&t<(len-1))
 1786              		.loc 1 515 7 view .LVU471
 1787 0086 5FFA8CF3 		uxtb	r3, ip
 1788              	.LVL197:
 516:Core/Src/GUI.c **** 		{
 1789              		.loc 1 516 3 is_stmt 1 view .LVU472
 516:Core/Src/GUI.c **** 		{
 1790              		.loc 1 516 5 is_stmt 0 view .LVU473
 1791 008a 002F     		cmp	r7, #0
 1792 008c D4D1     		bne	.L120
 516:Core/Src/GUI.c **** 		{
 1793              		.loc 1 516 23 discriminator 1 view .LVU474
 1794 008e 6A1E     		subs	r2, r5, #1
 516:Core/Src/GUI.c **** 		{
 1795              		.loc 1 516 15 discriminator 1 view .LVU475
 1796 0090 9442     		cmp	r4, r2
 1797 0092 D1DA     		bge	.L120
 518:Core/Src/GUI.c **** 			{
 1798              		.loc 1 518 4 is_stmt 1 view .LVU476
 518:Core/Src/GUI.c **** 			{
 1799              		.loc 1 518 6 is_stmt 0 view .LVU477
 1800 0094 002B     		cmp	r3, #0
 1801 0096 BFD0     		beq	.L126
 522:Core/Src/GUI.c **** 		 	 
 1802              		.loc 1 522 16 view .LVU478
 1803 0098 0127     		movs	r7, #1
 1804              	.LVL198:
 522:Core/Src/GUI.c **** 		 	 
 1805              		.loc 1 522 16 view .LVU479
 1806 009a CDE7     		b	.L120
 1807              	.LVL199:
 1808              	.L125:
 526:Core/Src/GUI.c **** 	}
 527:Core/Src/GUI.c **** } 
 1809              		.loc 1 527 1 view .LVU480
 1810 009c 04B0     		add	sp, sp, #16
 1811              	.LCFI26:
 1812              		.cfi_def_cfa_offset 32
 1813              		@ sp needed
 1814 009e BDE8F087 		pop	{r4, r5, r6, r7, r8, r9, r10, pc}
 1815              	.LVL200:
 1816              	.L128:
 1817              		.loc 1 527 1 view .LVU481
 1818 00a2 00BF     		.align	2
 1819              	.L127:
 1820 00a4 00000000 		.word	BACK_COLOR
 1821 00a8 00000000 		.word	POINT_COLOR
 1822 00ac CDCCCCCC 		.word	-858993459
 1823              		.cfi_endproc
 1824              	.LFE143:
ARM GAS  C:\Users\savao\AppData\Local\Temp\ccRdM6zw.s 			page 48


 1826              		.section	.text.GUI_DrawFont16,"ax",%progbits
 1827              		.align	1
 1828              		.global	GUI_DrawFont16
 1829              		.syntax unified
 1830              		.thumb
 1831              		.thumb_func
 1832              		.fpu fpv4-sp-d16
 1834              	GUI_DrawFont16:
 1835              	.LVL201:
 1836              	.LFB144:
 528:Core/Src/GUI.c **** 
 529:Core/Src/GUI.c **** /*****************************************************************************
 530:Core/Src/GUI.c ****  * @name       :void GUI_DrawFont16(u16 x, u16 y, u16 fc, u16 bc, u8 *s,u8 mode)
 531:Core/Src/GUI.c ****  * @date       :2018-08-09 
 532:Core/Src/GUI.c ****  * @function   :Display a single 16x16 Chinese character
 533:Core/Src/GUI.c ****  * @parameters :x:the bebinning x coordinate of the Chinese character
 534:Core/Src/GUI.c ****                 y:the bebinning y coordinate of the Chinese character
 535:Core/Src/GUI.c **** 								fc:the color value of Chinese character
 536:Core/Src/GUI.c **** 								bc:the background color of Chinese character
 537:Core/Src/GUI.c **** 								s:the start address of the Chinese character
 538:Core/Src/GUI.c **** 								mode:0-no overlying,1-overlying
 539:Core/Src/GUI.c ****  * @retvalue   :None
 540:Core/Src/GUI.c **** ******************************************************************************/ 
 541:Core/Src/GUI.c **** void GUI_DrawFont16(u16 x, u16 y, u16 fc, u16 bc, u8 *s,u8 mode)
 542:Core/Src/GUI.c **** {
 1837              		.loc 1 542 1 is_stmt 1 view -0
 1838              		.cfi_startproc
 1839              		@ args = 8, pretend = 0, frame = 16
 1840              		@ frame_needed = 0, uses_anonymous_args = 0
 1841              		.loc 1 542 1 is_stmt 0 view .LVU483
 1842 0000 2DE9F04F 		push	{r4, r5, r6, r7, r8, r9, r10, fp, lr}
 1843              	.LCFI27:
 1844              		.cfi_def_cfa_offset 36
 1845              		.cfi_offset 4, -36
 1846              		.cfi_offset 5, -32
 1847              		.cfi_offset 6, -28
 1848              		.cfi_offset 7, -24
 1849              		.cfi_offset 8, -20
 1850              		.cfi_offset 9, -16
 1851              		.cfi_offset 10, -12
 1852              		.cfi_offset 11, -8
 1853              		.cfi_offset 14, -4
 1854 0004 85B0     		sub	sp, sp, #20
 1855              	.LCFI28:
 1856              		.cfi_def_cfa_offset 56
 1857 0006 8346     		mov	fp, r0
 1858 0008 0191     		str	r1, [sp, #4]
 1859 000a 9246     		mov	r10, r2
 1860 000c 0393     		str	r3, [sp, #12]
 1861 000e 9DF83C90 		ldrb	r9, [sp, #60]	@ zero_extendqisi2
 543:Core/Src/GUI.c **** 	u8 i,j;
 1862              		.loc 1 543 2 is_stmt 1 view .LVU484
 544:Core/Src/GUI.c **** 	u16 k;
 1863              		.loc 1 544 2 view .LVU485
 545:Core/Src/GUI.c **** 	u16 HZnum;
 1864              		.loc 1 545 2 view .LVU486
 546:Core/Src/GUI.c **** 	u16 x0=x;
ARM GAS  C:\Users\savao\AppData\Local\Temp\ccRdM6zw.s 			page 49


 1865              		.loc 1 546 2 view .LVU487
 1866              	.LVL202:
 547:Core/Src/GUI.c **** 	HZnum=sizeof(tfont16)/sizeof(typFNT_GB16);	//自动统计汉字数目
 1867              		.loc 1 547 2 view .LVU488
 548:Core/Src/GUI.c **** 	
 549:Core/Src/GUI.c **** 			
 550:Core/Src/GUI.c **** 	for (k=0;k<HZnum;k++) 
 1868              		.loc 1 550 2 view .LVU489
 1869              		.loc 1 550 2 is_stmt 0 view .LVU490
 1870 0012 0546     		mov	r5, r0
 1871              		.loc 1 550 8 view .LVU491
 1872 0014 4FF00008 		mov	r8, #0
 1873              		.loc 1 550 2 view .LVU492
 1874 0018 43E0     		b	.L130
 1875              	.LVL203:
 1876              	.L134:
 551:Core/Src/GUI.c **** 	{
 552:Core/Src/GUI.c **** 	  if ((tfont16[k].Index[0]==*(s))&&(tfont16[k].Index[1]==*(s+1)))
 553:Core/Src/GUI.c **** 	  { 	LCD_SetWindows(x,y,x+16-1,y+16-1);
 554:Core/Src/GUI.c **** 		    for(i=0;i<16*2;i++)
 555:Core/Src/GUI.c **** 		    {
 556:Core/Src/GUI.c **** 				for(j=0;j<8;j++)
 557:Core/Src/GUI.c **** 		    	{	
 558:Core/Src/GUI.c **** 					if(!mode) //非叠加方式
 559:Core/Src/GUI.c **** 					{
 560:Core/Src/GUI.c **** 						if(tfont16[k].Msk[i]&(0x80>>j))	Lcd_WriteData_16Bit(fc);
 561:Core/Src/GUI.c **** 						else Lcd_WriteData_16Bit(bc);
 1877              		.loc 1 561 12 is_stmt 1 view .LVU493
 1878 001a 4046     		mov	r0, r8
 1879 001c FFF7FEFF 		bl	Lcd_WriteData_16Bit
 1880              	.LVL204:
 1881 0020 13E0     		b	.L135
 1882              	.L133:
 562:Core/Src/GUI.c **** 					}
 563:Core/Src/GUI.c **** 					else
 564:Core/Src/GUI.c **** 					{
 565:Core/Src/GUI.c **** 						POINT_COLOR=fc;
 1883              		.loc 1 565 7 view .LVU494
 1884              		.loc 1 565 18 is_stmt 0 view .LVU495
 1885 0022 3A4B     		ldr	r3, .L147
 1886 0024 A3F800A0 		strh	r10, [r3]	@ movhi
 566:Core/Src/GUI.c **** 						if(tfont16[k].Msk[i]&(0x80>>j))	LCD_DrawPoint(x,y);//画一个点
 1887              		.loc 1 566 7 is_stmt 1 view .LVU496
 1888              		.loc 1 566 24 is_stmt 0 view .LVU497
 1889 0028 06EB0613 		add	r3, r6, r6, lsl #4
 1890 002c 384A     		ldr	r2, .L147+4
 1891 002e 02EB4303 		add	r3, r2, r3, lsl #1
 1892 0032 3B44     		add	r3, r3, r7
 1893 0034 9A78     		ldrb	r2, [r3, #2]	@ zero_extendqisi2
 1894              		.loc 1 566 33 view .LVU498
 1895 0036 8023     		movs	r3, #128
 1896 0038 2341     		asrs	r3, r3, r4
 1897              		.loc 1 566 9 view .LVU499
 1898 003a 1A42     		tst	r2, r3
 1899 003c 1BD1     		bne	.L143
 1900              	.L136:
 567:Core/Src/GUI.c **** 						x++;
ARM GAS  C:\Users\savao\AppData\Local\Temp\ccRdM6zw.s 			page 50


 1901              		.loc 1 567 7 is_stmt 1 view .LVU500
 1902              		.loc 1 567 8 is_stmt 0 view .LVU501
 1903 003e 0135     		adds	r5, r5, #1
 1904              	.LVL205:
 1905              		.loc 1 567 8 view .LVU502
 1906 0040 ADB2     		uxth	r5, r5
 1907              	.LVL206:
 568:Core/Src/GUI.c **** 						if((x-x0)==16)
 1908              		.loc 1 568 7 is_stmt 1 view .LVU503
 1909              		.loc 1 568 12 is_stmt 0 view .LVU504
 1910 0042 A5EB0B03 		sub	r3, r5, fp
 1911              		.loc 1 568 9 view .LVU505
 1912 0046 102B     		cmp	r3, #16
 1913 0048 1AD0     		beq	.L144
 1914              	.L135:
 556:Core/Src/GUI.c **** 		    	{	
 1915              		.loc 1 556 17 is_stmt 1 discriminator 2 view .LVU506
 556:Core/Src/GUI.c **** 		    	{	
 1916              		.loc 1 556 18 is_stmt 0 discriminator 2 view .LVU507
 1917 004a 0134     		adds	r4, r4, #1
 1918              	.LVL207:
 556:Core/Src/GUI.c **** 		    	{	
 1919              		.loc 1 556 18 discriminator 2 view .LVU508
 1920 004c E4B2     		uxtb	r4, r4
 1921              	.LVL208:
 1922              	.L139:
 556:Core/Src/GUI.c **** 		    	{	
 1923              		.loc 1 556 13 is_stmt 1 discriminator 1 view .LVU509
 556:Core/Src/GUI.c **** 		    	{	
 1924              		.loc 1 556 5 is_stmt 0 discriminator 1 view .LVU510
 1925 004e 072C     		cmp	r4, #7
 1926 0050 1BD8     		bhi	.L137
 558:Core/Src/GUI.c **** 					{
 1927              		.loc 1 558 6 is_stmt 1 view .LVU511
 558:Core/Src/GUI.c **** 					{
 1928              		.loc 1 558 8 is_stmt 0 view .LVU512
 1929 0052 B9F1000F 		cmp	r9, #0
 1930 0056 E4D1     		bne	.L133
 560:Core/Src/GUI.c **** 						else Lcd_WriteData_16Bit(bc);
 1931              		.loc 1 560 7 is_stmt 1 view .LVU513
 560:Core/Src/GUI.c **** 						else Lcd_WriteData_16Bit(bc);
 1932              		.loc 1 560 24 is_stmt 0 view .LVU514
 1933 0058 06EB0613 		add	r3, r6, r6, lsl #4
 1934 005c 2C4A     		ldr	r2, .L147+4
 1935 005e 02EB4303 		add	r3, r2, r3, lsl #1
 1936 0062 3B44     		add	r3, r3, r7
 1937 0064 9A78     		ldrb	r2, [r3, #2]	@ zero_extendqisi2
 560:Core/Src/GUI.c **** 						else Lcd_WriteData_16Bit(bc);
 1938              		.loc 1 560 33 view .LVU515
 1939 0066 8023     		movs	r3, #128
 1940 0068 2341     		asrs	r3, r3, r4
 560:Core/Src/GUI.c **** 						else Lcd_WriteData_16Bit(bc);
 1941              		.loc 1 560 9 view .LVU516
 1942 006a 1A42     		tst	r2, r3
 1943 006c D5D0     		beq	.L134
 560:Core/Src/GUI.c **** 						else Lcd_WriteData_16Bit(bc);
 1944              		.loc 1 560 39 is_stmt 1 discriminator 1 view .LVU517
ARM GAS  C:\Users\savao\AppData\Local\Temp\ccRdM6zw.s 			page 51


 1945 006e 5046     		mov	r0, r10
 1946 0070 FFF7FEFF 		bl	Lcd_WriteData_16Bit
 1947              	.LVL209:
 1948 0074 E9E7     		b	.L135
 1949              	.L143:
 566:Core/Src/GUI.c **** 						x++;
 1950              		.loc 1 566 39 discriminator 1 view .LVU518
 1951 0076 0199     		ldr	r1, [sp, #4]
 1952 0078 2846     		mov	r0, r5
 1953 007a FFF7FEFF 		bl	LCD_DrawPoint
 1954              	.LVL210:
 1955 007e DEE7     		b	.L136
 1956              	.L144:
 569:Core/Src/GUI.c **** 						{
 570:Core/Src/GUI.c **** 							x=x0;
 1957              		.loc 1 570 8 view .LVU519
 1958              	.LVL211:
 571:Core/Src/GUI.c **** 							y++;
 1959              		.loc 1 571 8 view .LVU520
 1960              		.loc 1 571 9 is_stmt 0 view .LVU521
 1961 0080 019B     		ldr	r3, [sp, #4]
 1962 0082 0133     		adds	r3, r3, #1
 1963 0084 9BB2     		uxth	r3, r3
 1964 0086 0193     		str	r3, [sp, #4]
 1965              	.LVL212:
 572:Core/Src/GUI.c **** 							break;
 1966              		.loc 1 572 8 is_stmt 1 view .LVU522
 570:Core/Src/GUI.c **** 							y++;
 1967              		.loc 1 570 9 is_stmt 0 view .LVU523
 1968 0088 5D46     		mov	r5, fp
 1969              	.LVL213:
 1970              	.L137:
 554:Core/Src/GUI.c **** 		    {
 1971              		.loc 1 554 22 is_stmt 1 discriminator 2 view .LVU524
 554:Core/Src/GUI.c **** 		    {
 1972              		.loc 1 554 23 is_stmt 0 discriminator 2 view .LVU525
 1973 008a 0137     		adds	r7, r7, #1
 1974              	.LVL214:
 554:Core/Src/GUI.c **** 		    {
 1975              		.loc 1 554 23 discriminator 2 view .LVU526
 1976 008c FFB2     		uxtb	r7, r7
 1977              	.LVL215:
 1978              	.L132:
 554:Core/Src/GUI.c **** 		    {
 1979              		.loc 1 554 15 is_stmt 1 discriminator 1 view .LVU527
 554:Core/Src/GUI.c **** 		    {
 1980              		.loc 1 554 7 is_stmt 0 discriminator 1 view .LVU528
 1981 008e 1F2F     		cmp	r7, #31
 1982 0090 01D8     		bhi	.L145
 556:Core/Src/GUI.c **** 		    	{	
 1983              		.loc 1 556 10 view .LVU529
 1984 0092 0024     		movs	r4, #0
 1985 0094 DBE7     		b	.L139
 1986              	.L145:
 1987 0096 DDF80880 		ldr	r8, [sp, #8]
 1988              	.LVL216:
 1989              	.L131:
ARM GAS  C:\Users\savao\AppData\Local\Temp\ccRdM6zw.s 			page 52


 573:Core/Src/GUI.c **** 						}
 574:Core/Src/GUI.c **** 					}
 575:Core/Src/GUI.c **** 
 576:Core/Src/GUI.c **** 				}
 577:Core/Src/GUI.c **** 				
 578:Core/Src/GUI.c **** 			}
 579:Core/Src/GUI.c **** 			
 580:Core/Src/GUI.c **** 			
 581:Core/Src/GUI.c **** 		}				  	
 582:Core/Src/GUI.c **** 		continue;  //查找到对应点阵字库立即退出，防止多个汉字重复取模带来影响
 1990              		.loc 1 582 3 is_stmt 1 view .LVU530
 550:Core/Src/GUI.c **** 	{
 1991              		.loc 1 550 19 view .LVU531
 550:Core/Src/GUI.c **** 	{
 1992              		.loc 1 550 20 is_stmt 0 view .LVU532
 1993 009a 08F10108 		add	r8, r8, #1
 1994 009e 1FFA88F8 		uxth	r8, r8
 1995              	.LVL217:
 1996              	.L130:
 550:Core/Src/GUI.c **** 	{
 1997              		.loc 1 550 11 is_stmt 1 discriminator 1 view .LVU533
 550:Core/Src/GUI.c **** 	{
 1998              		.loc 1 550 2 is_stmt 0 discriminator 1 view .LVU534
 1999 00a2 B8F1470F 		cmp	r8, #71
 2000 00a6 23D8     		bhi	.L146
 552:Core/Src/GUI.c **** 	  { 	LCD_SetWindows(x,y,x+16-1,y+16-1);
 2001              		.loc 1 552 4 is_stmt 1 view .LVU535
 552:Core/Src/GUI.c **** 	  { 	LCD_SetWindows(x,y,x+16-1,y+16-1);
 2002              		.loc 1 552 25 is_stmt 0 view .LVU536
 2003 00a8 4646     		mov	r6, r8
 2004 00aa 08EB0813 		add	r3, r8, r8, lsl #4
 2005 00ae 184A     		ldr	r2, .L147+4
 2006 00b0 12F81320 		ldrb	r2, [r2, r3, lsl #1]	@ zero_extendqisi2
 552:Core/Src/GUI.c **** 	  { 	LCD_SetWindows(x,y,x+16-1,y+16-1);
 2007              		.loc 1 552 28 view .LVU537
 2008 00b4 0E9B     		ldr	r3, [sp, #56]
 2009 00b6 1B78     		ldrb	r3, [r3]	@ zero_extendqisi2
 552:Core/Src/GUI.c **** 	  { 	LCD_SetWindows(x,y,x+16-1,y+16-1);
 2010              		.loc 1 552 7 view .LVU538
 2011 00b8 9A42     		cmp	r2, r3
 2012 00ba EED1     		bne	.L131
 552:Core/Src/GUI.c **** 	  { 	LCD_SetWindows(x,y,x+16-1,y+16-1);
 2013              		.loc 1 552 54 discriminator 1 view .LVU539
 2014 00bc 08EB0813 		add	r3, r8, r8, lsl #4
 2015 00c0 134A     		ldr	r2, .L147+4
 2016 00c2 02EB4303 		add	r3, r2, r3, lsl #1
 2017 00c6 5A78     		ldrb	r2, [r3, #1]	@ zero_extendqisi2
 552:Core/Src/GUI.c **** 	  { 	LCD_SetWindows(x,y,x+16-1,y+16-1);
 2018              		.loc 1 552 57 discriminator 1 view .LVU540
 2019 00c8 0E9B     		ldr	r3, [sp, #56]
 2020 00ca 5B78     		ldrb	r3, [r3, #1]	@ zero_extendqisi2
 552:Core/Src/GUI.c **** 	  { 	LCD_SetWindows(x,y,x+16-1,y+16-1);
 2021              		.loc 1 552 35 discriminator 1 view .LVU541
 2022 00cc 9A42     		cmp	r2, r3
 2023 00ce E4D1     		bne	.L131
 553:Core/Src/GUI.c **** 		    for(i=0;i<16*2;i++)
 2024              		.loc 1 553 7 is_stmt 1 view .LVU542
ARM GAS  C:\Users\savao\AppData\Local\Temp\ccRdM6zw.s 			page 53


 2025 00d0 0199     		ldr	r1, [sp, #4]
 2026 00d2 0B46     		mov	r3, r1
 2027 00d4 0F33     		adds	r3, r3, #15
 2028 00d6 05F10F02 		add	r2, r5, #15
 2029 00da 9BB2     		uxth	r3, r3
 2030 00dc 92B2     		uxth	r2, r2
 2031 00de 2846     		mov	r0, r5
 2032 00e0 FFF7FEFF 		bl	LCD_SetWindows
 2033              	.LVL218:
 554:Core/Src/GUI.c **** 		    {
 2034              		.loc 1 554 7 view .LVU543
 554:Core/Src/GUI.c **** 		    {
 2035              		.loc 1 554 12 is_stmt 0 view .LVU544
 2036 00e4 0027     		movs	r7, #0
 2037 00e6 CDF80880 		str	r8, [sp, #8]
 2038 00ea DDF80C80 		ldr	r8, [sp, #12]
 2039              	.LVL219:
 554:Core/Src/GUI.c **** 		    {
 2040              		.loc 1 554 7 view .LVU545
 2041 00ee CEE7     		b	.L132
 2042              	.LVL220:
 2043              	.L146:
 583:Core/Src/GUI.c **** 	}
 584:Core/Src/GUI.c **** 
 585:Core/Src/GUI.c **** 	LCD_SetWindows(0,0,lcddev.width-1,lcddev.height-1);//恢复窗口为全屏  
 2044              		.loc 1 585 2 is_stmt 1 view .LVU546
 2045              		.loc 1 585 27 is_stmt 0 view .LVU547
 2046 00f0 084B     		ldr	r3, .L147+8
 2047 00f2 9A88     		ldrh	r2, [r3, #4]
 2048              		.loc 1 585 42 view .LVU548
 2049 00f4 DB88     		ldrh	r3, [r3, #6]
 2050              		.loc 1 585 2 view .LVU549
 2051 00f6 013B     		subs	r3, r3, #1
 2052 00f8 013A     		subs	r2, r2, #1
 2053 00fa 9BB2     		uxth	r3, r3
 2054 00fc 92B2     		uxth	r2, r2
 2055 00fe 0021     		movs	r1, #0
 2056 0100 0846     		mov	r0, r1
 2057 0102 FFF7FEFF 		bl	LCD_SetWindows
 2058              	.LVL221:
 586:Core/Src/GUI.c **** } 
 2059              		.loc 1 586 1 view .LVU550
 2060 0106 05B0     		add	sp, sp, #20
 2061              	.LCFI29:
 2062              		.cfi_def_cfa_offset 36
 2063              		@ sp needed
 2064 0108 BDE8F08F 		pop	{r4, r5, r6, r7, r8, r9, r10, fp, pc}
 2065              	.LVL222:
 2066              	.L148:
 2067              		.loc 1 586 1 view .LVU551
 2068              		.align	2
 2069              	.L147:
 2070 010c 00000000 		.word	POINT_COLOR
 2071 0110 00000000 		.word	.LANCHOR2
 2072 0114 00000000 		.word	lcddev
 2073              		.cfi_endproc
 2074              	.LFE144:
ARM GAS  C:\Users\savao\AppData\Local\Temp\ccRdM6zw.s 			page 54


 2076              		.section	.text.GUI_DrawFont24,"ax",%progbits
 2077              		.align	1
 2078              		.global	GUI_DrawFont24
 2079              		.syntax unified
 2080              		.thumb
 2081              		.thumb_func
 2082              		.fpu fpv4-sp-d16
 2084              	GUI_DrawFont24:
 2085              	.LVL223:
 2086              	.LFB145:
 587:Core/Src/GUI.c **** 
 588:Core/Src/GUI.c **** /*****************************************************************************
 589:Core/Src/GUI.c ****  * @name       :void GUI_DrawFont24(u16 x, u16 y, u16 fc, u16 bc, u8 *s,u8 mode)
 590:Core/Src/GUI.c ****  * @date       :2018-08-09 
 591:Core/Src/GUI.c ****  * @function   :Display a single 24x24 Chinese character
 592:Core/Src/GUI.c ****  * @parameters :x:the bebinning x coordinate of the Chinese character
 593:Core/Src/GUI.c ****                 y:the bebinning y coordinate of the Chinese character
 594:Core/Src/GUI.c **** 								fc:the color value of Chinese character
 595:Core/Src/GUI.c **** 								bc:the background color of Chinese character
 596:Core/Src/GUI.c **** 								s:the start address of the Chinese character
 597:Core/Src/GUI.c **** 								mode:0-no overlying,1-overlying
 598:Core/Src/GUI.c ****  * @retvalue   :None
 599:Core/Src/GUI.c **** ******************************************************************************/ 
 600:Core/Src/GUI.c **** void GUI_DrawFont24(u16 x, u16 y, u16 fc, u16 bc, u8 *s,u8 mode)
 601:Core/Src/GUI.c **** {
 2087              		.loc 1 601 1 is_stmt 1 view -0
 2088              		.cfi_startproc
 2089              		@ args = 8, pretend = 0, frame = 16
 2090              		@ frame_needed = 0, uses_anonymous_args = 0
 2091              		.loc 1 601 1 is_stmt 0 view .LVU553
 2092 0000 2DE9F04F 		push	{r4, r5, r6, r7, r8, r9, r10, fp, lr}
 2093              	.LCFI30:
 2094              		.cfi_def_cfa_offset 36
 2095              		.cfi_offset 4, -36
 2096              		.cfi_offset 5, -32
 2097              		.cfi_offset 6, -28
 2098              		.cfi_offset 7, -24
 2099              		.cfi_offset 8, -20
 2100              		.cfi_offset 9, -16
 2101              		.cfi_offset 10, -12
 2102              		.cfi_offset 11, -8
 2103              		.cfi_offset 14, -4
 2104 0004 85B0     		sub	sp, sp, #20
 2105              	.LCFI31:
 2106              		.cfi_def_cfa_offset 56
 2107 0006 8246     		mov	r10, r0
 2108 0008 0191     		str	r1, [sp, #4]
 2109 000a 9146     		mov	r9, r2
 2110 000c 0293     		str	r3, [sp, #8]
 2111 000e 9DF83C80 		ldrb	r8, [sp, #60]	@ zero_extendqisi2
 602:Core/Src/GUI.c **** 	u8 i,j;
 2112              		.loc 1 602 2 is_stmt 1 view .LVU554
 603:Core/Src/GUI.c **** 	u16 k;
 2113              		.loc 1 603 2 view .LVU555
 604:Core/Src/GUI.c **** 	u16 HZnum;
 2114              		.loc 1 604 2 view .LVU556
 605:Core/Src/GUI.c **** 	u16 x0=x;
ARM GAS  C:\Users\savao\AppData\Local\Temp\ccRdM6zw.s 			page 55


 2115              		.loc 1 605 2 view .LVU557
 2116              	.LVL224:
 606:Core/Src/GUI.c **** 	HZnum=sizeof(tfont24)/sizeof(typFNT_GB24);	//自动统计汉字数目
 2117              		.loc 1 606 2 view .LVU558
 607:Core/Src/GUI.c **** 		
 608:Core/Src/GUI.c **** 			for (k=0;k<HZnum;k++) 
 2118              		.loc 1 608 4 view .LVU559
 2119              		.loc 1 608 4 is_stmt 0 view .LVU560
 2120 0012 0546     		mov	r5, r0
 2121              		.loc 1 608 10 view .LVU561
 2122 0014 4FF0000B 		mov	fp, #0
 2123              		.loc 1 608 4 view .LVU562
 2124 0018 41E0     		b	.L150
 2125              	.LVL225:
 2126              	.L154:
 609:Core/Src/GUI.c **** 			{
 610:Core/Src/GUI.c **** 			  if ((tfont24[k].Index[0]==*(s))&&(tfont24[k].Index[1]==*(s+1)))
 611:Core/Src/GUI.c **** 			  { 	LCD_SetWindows(x,y,x+24-1,y+24-1);
 612:Core/Src/GUI.c **** 				    for(i=0;i<24*3;i++)
 613:Core/Src/GUI.c **** 				    {
 614:Core/Src/GUI.c **** 							for(j=0;j<8;j++)
 615:Core/Src/GUI.c **** 							{
 616:Core/Src/GUI.c **** 								if(!mode) //非叠加方式
 617:Core/Src/GUI.c **** 								{
 618:Core/Src/GUI.c **** 									if(tfont24[k].Msk[i]&(0x80>>j))	Lcd_WriteData_16Bit(fc);
 619:Core/Src/GUI.c **** 									else Lcd_WriteData_16Bit(bc);
 2127              		.loc 1 619 15 is_stmt 1 view .LVU563
 2128 001a 5846     		mov	r0, fp
 2129 001c FFF7FEFF 		bl	Lcd_WriteData_16Bit
 2130              	.LVL226:
 2131 0020 12E0     		b	.L155
 2132              	.L153:
 620:Core/Src/GUI.c **** 								}
 621:Core/Src/GUI.c **** 							else
 622:Core/Src/GUI.c **** 							{
 623:Core/Src/GUI.c **** 								POINT_COLOR=fc;
 2133              		.loc 1 623 9 view .LVU564
 2134              		.loc 1 623 20 is_stmt 0 view .LVU565
 2135 0022 394B     		ldr	r3, .L167
 2136 0024 A3F80090 		strh	r9, [r3]	@ movhi
 624:Core/Src/GUI.c **** 								if(tfont24[k].Msk[i]&(0x80>>j))	LCD_DrawPoint(x,y);//画一个点
 2137              		.loc 1 624 9 is_stmt 1 view .LVU566
 2138              		.loc 1 624 26 is_stmt 0 view .LVU567
 2139 0028 384B     		ldr	r3, .L167+4
 2140 002a 4A22     		movs	r2, #74
 2141 002c 02FB0733 		mla	r3, r2, r7, r3
 2142 0030 3344     		add	r3, r3, r6
 2143 0032 9A78     		ldrb	r2, [r3, #2]	@ zero_extendqisi2
 2144              		.loc 1 624 35 view .LVU568
 2145 0034 8023     		movs	r3, #128
 2146 0036 2341     		asrs	r3, r3, r4
 2147              		.loc 1 624 11 view .LVU569
 2148 0038 1A42     		tst	r2, r3
 2149 003a 1AD1     		bne	.L163
 2150              	.L156:
 625:Core/Src/GUI.c **** 								x++;
 2151              		.loc 1 625 9 is_stmt 1 view .LVU570
ARM GAS  C:\Users\savao\AppData\Local\Temp\ccRdM6zw.s 			page 56


 2152              		.loc 1 625 10 is_stmt 0 view .LVU571
 2153 003c 0135     		adds	r5, r5, #1
 2154              	.LVL227:
 2155              		.loc 1 625 10 view .LVU572
 2156 003e ADB2     		uxth	r5, r5
 2157              	.LVL228:
 626:Core/Src/GUI.c **** 								if((x-x0)==24)
 2158              		.loc 1 626 9 is_stmt 1 view .LVU573
 2159              		.loc 1 626 14 is_stmt 0 view .LVU574
 2160 0040 A5EB0A03 		sub	r3, r5, r10
 2161              		.loc 1 626 11 view .LVU575
 2162 0044 182B     		cmp	r3, #24
 2163 0046 19D0     		beq	.L164
 2164              	.L155:
 614:Core/Src/GUI.c **** 							{
 2165              		.loc 1 614 20 is_stmt 1 discriminator 2 view .LVU576
 614:Core/Src/GUI.c **** 							{
 2166              		.loc 1 614 21 is_stmt 0 discriminator 2 view .LVU577
 2167 0048 0134     		adds	r4, r4, #1
 2168              	.LVL229:
 614:Core/Src/GUI.c **** 							{
 2169              		.loc 1 614 21 discriminator 2 view .LVU578
 2170 004a E4B2     		uxtb	r4, r4
 2171              	.LVL230:
 2172              	.L159:
 614:Core/Src/GUI.c **** 							{
 2173              		.loc 1 614 16 is_stmt 1 discriminator 1 view .LVU579
 614:Core/Src/GUI.c **** 							{
 2174              		.loc 1 614 8 is_stmt 0 discriminator 1 view .LVU580
 2175 004c 072C     		cmp	r4, #7
 2176 004e 1AD8     		bhi	.L157
 616:Core/Src/GUI.c **** 								{
 2177              		.loc 1 616 9 is_stmt 1 view .LVU581
 616:Core/Src/GUI.c **** 								{
 2178              		.loc 1 616 11 is_stmt 0 view .LVU582
 2179 0050 B8F1000F 		cmp	r8, #0
 2180 0054 E5D1     		bne	.L153
 618:Core/Src/GUI.c **** 									else Lcd_WriteData_16Bit(bc);
 2181              		.loc 1 618 10 is_stmt 1 view .LVU583
 618:Core/Src/GUI.c **** 									else Lcd_WriteData_16Bit(bc);
 2182              		.loc 1 618 27 is_stmt 0 view .LVU584
 2183 0056 2D4B     		ldr	r3, .L167+4
 2184 0058 4A22     		movs	r2, #74
 2185 005a 02FB0733 		mla	r3, r2, r7, r3
 2186 005e 3344     		add	r3, r3, r6
 2187 0060 9A78     		ldrb	r2, [r3, #2]	@ zero_extendqisi2
 618:Core/Src/GUI.c **** 									else Lcd_WriteData_16Bit(bc);
 2188              		.loc 1 618 36 view .LVU585
 2189 0062 8023     		movs	r3, #128
 2190 0064 2341     		asrs	r3, r3, r4
 618:Core/Src/GUI.c **** 									else Lcd_WriteData_16Bit(bc);
 2191              		.loc 1 618 12 view .LVU586
 2192 0066 1A42     		tst	r2, r3
 2193 0068 D7D0     		beq	.L154
 618:Core/Src/GUI.c **** 									else Lcd_WriteData_16Bit(bc);
 2194              		.loc 1 618 42 is_stmt 1 discriminator 1 view .LVU587
 2195 006a 4846     		mov	r0, r9
ARM GAS  C:\Users\savao\AppData\Local\Temp\ccRdM6zw.s 			page 57


 2196 006c FFF7FEFF 		bl	Lcd_WriteData_16Bit
 2197              	.LVL231:
 2198 0070 EAE7     		b	.L155
 2199              	.L163:
 624:Core/Src/GUI.c **** 								x++;
 2200              		.loc 1 624 41 discriminator 1 view .LVU588
 2201 0072 0199     		ldr	r1, [sp, #4]
 2202 0074 2846     		mov	r0, r5
 2203 0076 FFF7FEFF 		bl	LCD_DrawPoint
 2204              	.LVL232:
 2205 007a DFE7     		b	.L156
 2206              	.L164:
 627:Core/Src/GUI.c **** 								{
 628:Core/Src/GUI.c **** 									x=x0;
 2207              		.loc 1 628 10 view .LVU589
 2208              	.LVL233:
 629:Core/Src/GUI.c **** 									y++;
 2209              		.loc 1 629 10 view .LVU590
 2210              		.loc 1 629 11 is_stmt 0 view .LVU591
 2211 007c 019B     		ldr	r3, [sp, #4]
 2212 007e 0133     		adds	r3, r3, #1
 2213 0080 9BB2     		uxth	r3, r3
 2214 0082 0193     		str	r3, [sp, #4]
 2215              	.LVL234:
 630:Core/Src/GUI.c **** 									break;
 2216              		.loc 1 630 10 is_stmt 1 view .LVU592
 628:Core/Src/GUI.c **** 									y++;
 2217              		.loc 1 628 11 is_stmt 0 view .LVU593
 2218 0084 5546     		mov	r5, r10
 2219              	.LVL235:
 2220              	.L157:
 612:Core/Src/GUI.c **** 				    {
 2221              		.loc 1 612 24 is_stmt 1 discriminator 2 view .LVU594
 612:Core/Src/GUI.c **** 				    {
 2222              		.loc 1 612 25 is_stmt 0 discriminator 2 view .LVU595
 2223 0086 0136     		adds	r6, r6, #1
 2224              	.LVL236:
 612:Core/Src/GUI.c **** 				    {
 2225              		.loc 1 612 25 discriminator 2 view .LVU596
 2226 0088 F6B2     		uxtb	r6, r6
 2227              	.LVL237:
 2228              	.L152:
 612:Core/Src/GUI.c **** 				    {
 2229              		.loc 1 612 17 is_stmt 1 discriminator 1 view .LVU597
 612:Core/Src/GUI.c **** 				    {
 2230              		.loc 1 612 9 is_stmt 0 discriminator 1 view .LVU598
 2231 008a 472E     		cmp	r6, #71
 2232 008c 01D8     		bhi	.L165
 614:Core/Src/GUI.c **** 							{
 2233              		.loc 1 614 13 view .LVU599
 2234 008e 0024     		movs	r4, #0
 2235 0090 DCE7     		b	.L159
 2236              	.L165:
 2237 0092 DDF80CB0 		ldr	fp, [sp, #12]
 2238              	.LVL238:
 2239              	.L151:
 631:Core/Src/GUI.c **** 								}
ARM GAS  C:\Users\savao\AppData\Local\Temp\ccRdM6zw.s 			page 58


 632:Core/Src/GUI.c **** 							}
 633:Core/Src/GUI.c **** 						}
 634:Core/Src/GUI.c **** 					}
 635:Core/Src/GUI.c **** 					
 636:Core/Src/GUI.c **** 					
 637:Core/Src/GUI.c **** 				}				  	
 638:Core/Src/GUI.c **** 				continue;  //查找到对应点阵字库立即退出，防止多个汉字重复取模带来影响
 2240              		.loc 1 638 5 is_stmt 1 view .LVU600
 608:Core/Src/GUI.c **** 			{
 2241              		.loc 1 608 21 view .LVU601
 608:Core/Src/GUI.c **** 			{
 2242              		.loc 1 608 22 is_stmt 0 view .LVU602
 2243 0096 0BF1010B 		add	fp, fp, #1
 2244 009a 1FFA8BFB 		uxth	fp, fp
 2245              	.LVL239:
 2246              	.L150:
 608:Core/Src/GUI.c **** 			{
 2247              		.loc 1 608 13 is_stmt 1 discriminator 1 view .LVU603
 608:Core/Src/GUI.c **** 			{
 2248              		.loc 1 608 4 is_stmt 0 discriminator 1 view .LVU604
 2249 009e BBF1060F 		cmp	fp, #6
 2250 00a2 22D8     		bhi	.L166
 610:Core/Src/GUI.c **** 			  { 	LCD_SetWindows(x,y,x+24-1,y+24-1);
 2251              		.loc 1 610 6 is_stmt 1 view .LVU605
 610:Core/Src/GUI.c **** 			  { 	LCD_SetWindows(x,y,x+24-1,y+24-1);
 2252              		.loc 1 610 27 is_stmt 0 view .LVU606
 2253 00a4 5F46     		mov	r7, fp
 2254 00a6 4A23     		movs	r3, #74
 2255 00a8 03FB0BF3 		mul	r3, r3, fp
 2256 00ac 174A     		ldr	r2, .L167+4
 2257 00ae D25C     		ldrb	r2, [r2, r3]	@ zero_extendqisi2
 610:Core/Src/GUI.c **** 			  { 	LCD_SetWindows(x,y,x+24-1,y+24-1);
 2258              		.loc 1 610 30 view .LVU607
 2259 00b0 0E9B     		ldr	r3, [sp, #56]
 2260 00b2 1B78     		ldrb	r3, [r3]	@ zero_extendqisi2
 610:Core/Src/GUI.c **** 			  { 	LCD_SetWindows(x,y,x+24-1,y+24-1);
 2261              		.loc 1 610 9 view .LVU608
 2262 00b4 9A42     		cmp	r2, r3
 2263 00b6 EED1     		bne	.L151
 610:Core/Src/GUI.c **** 			  { 	LCD_SetWindows(x,y,x+24-1,y+24-1);
 2264              		.loc 1 610 56 discriminator 1 view .LVU609
 2265 00b8 144B     		ldr	r3, .L167+4
 2266 00ba 4A22     		movs	r2, #74
 2267 00bc 02FB0B33 		mla	r3, r2, fp, r3
 2268 00c0 5A78     		ldrb	r2, [r3, #1]	@ zero_extendqisi2
 610:Core/Src/GUI.c **** 			  { 	LCD_SetWindows(x,y,x+24-1,y+24-1);
 2269              		.loc 1 610 59 discriminator 1 view .LVU610
 2270 00c2 0E9B     		ldr	r3, [sp, #56]
 2271 00c4 5B78     		ldrb	r3, [r3, #1]	@ zero_extendqisi2
 610:Core/Src/GUI.c **** 			  { 	LCD_SetWindows(x,y,x+24-1,y+24-1);
 2272              		.loc 1 610 37 discriminator 1 view .LVU611
 2273 00c6 9A42     		cmp	r2, r3
 2274 00c8 E5D1     		bne	.L151
 611:Core/Src/GUI.c **** 				    for(i=0;i<24*3;i++)
 2275              		.loc 1 611 9 is_stmt 1 view .LVU612
 2276 00ca 0199     		ldr	r1, [sp, #4]
 2277 00cc 0B46     		mov	r3, r1
ARM GAS  C:\Users\savao\AppData\Local\Temp\ccRdM6zw.s 			page 59


 2278 00ce 1733     		adds	r3, r3, #23
 2279 00d0 05F11702 		add	r2, r5, #23
 2280 00d4 9BB2     		uxth	r3, r3
 2281 00d6 92B2     		uxth	r2, r2
 2282 00d8 2846     		mov	r0, r5
 2283 00da FFF7FEFF 		bl	LCD_SetWindows
 2284              	.LVL240:
 612:Core/Src/GUI.c **** 				    {
 2285              		.loc 1 612 9 view .LVU613
 612:Core/Src/GUI.c **** 				    {
 2286              		.loc 1 612 14 is_stmt 0 view .LVU614
 2287 00de 0026     		movs	r6, #0
 2288 00e0 CDF80CB0 		str	fp, [sp, #12]
 2289 00e4 DDF808B0 		ldr	fp, [sp, #8]
 2290              	.LVL241:
 612:Core/Src/GUI.c **** 				    {
 2291              		.loc 1 612 9 view .LVU615
 2292 00e8 CFE7     		b	.L152
 2293              	.LVL242:
 2294              	.L166:
 639:Core/Src/GUI.c **** 			}
 640:Core/Src/GUI.c **** 
 641:Core/Src/GUI.c **** 	LCD_SetWindows(0,0,lcddev.width-1,lcddev.height-1);//恢复窗口为全屏  
 2295              		.loc 1 641 2 is_stmt 1 view .LVU616
 2296              		.loc 1 641 27 is_stmt 0 view .LVU617
 2297 00ea 094B     		ldr	r3, .L167+8
 2298 00ec 9A88     		ldrh	r2, [r3, #4]
 2299              		.loc 1 641 42 view .LVU618
 2300 00ee DB88     		ldrh	r3, [r3, #6]
 2301              		.loc 1 641 2 view .LVU619
 2302 00f0 013B     		subs	r3, r3, #1
 2303 00f2 013A     		subs	r2, r2, #1
 2304 00f4 9BB2     		uxth	r3, r3
 2305 00f6 92B2     		uxth	r2, r2
 2306 00f8 0021     		movs	r1, #0
 2307 00fa 0846     		mov	r0, r1
 2308 00fc FFF7FEFF 		bl	LCD_SetWindows
 2309              	.LVL243:
 642:Core/Src/GUI.c **** }
 2310              		.loc 1 642 1 view .LVU620
 2311 0100 05B0     		add	sp, sp, #20
 2312              	.LCFI32:
 2313              		.cfi_def_cfa_offset 36
 2314              		@ sp needed
 2315 0102 BDE8F08F 		pop	{r4, r5, r6, r7, r8, r9, r10, fp, pc}
 2316              	.LVL244:
 2317              	.L168:
 2318              		.loc 1 642 1 view .LVU621
 2319 0106 00BF     		.align	2
 2320              	.L167:
 2321 0108 00000000 		.word	POINT_COLOR
 2322 010c 00000000 		.word	.LANCHOR3
 2323 0110 00000000 		.word	lcddev
 2324              		.cfi_endproc
 2325              	.LFE145:
 2327              		.section	.text.GUI_DrawFont32,"ax",%progbits
 2328              		.align	1
ARM GAS  C:\Users\savao\AppData\Local\Temp\ccRdM6zw.s 			page 60


 2329              		.global	GUI_DrawFont32
 2330              		.syntax unified
 2331              		.thumb
 2332              		.thumb_func
 2333              		.fpu fpv4-sp-d16
 2335              	GUI_DrawFont32:
 2336              	.LVL245:
 2337              	.LFB146:
 643:Core/Src/GUI.c **** 
 644:Core/Src/GUI.c **** /*****************************************************************************
 645:Core/Src/GUI.c ****  * @name       :void GUI_DrawFont32(u16 x, u16 y, u16 fc, u16 bc, u8 *s,u8 mode)
 646:Core/Src/GUI.c ****  * @date       :2018-08-09 
 647:Core/Src/GUI.c ****  * @function   :Display a single 32x32 Chinese character
 648:Core/Src/GUI.c ****  * @parameters :x:the bebinning x coordinate of the Chinese character
 649:Core/Src/GUI.c ****                 y:the bebinning y coordinate of the Chinese character
 650:Core/Src/GUI.c **** 								fc:the color value of Chinese character
 651:Core/Src/GUI.c **** 								bc:the background color of Chinese character
 652:Core/Src/GUI.c **** 								s:the start address of the Chinese character
 653:Core/Src/GUI.c **** 								mode:0-no overlying,1-overlying
 654:Core/Src/GUI.c ****  * @retvalue   :None
 655:Core/Src/GUI.c **** ******************************************************************************/ 
 656:Core/Src/GUI.c **** void GUI_DrawFont32(u16 x, u16 y, u16 fc, u16 bc, u8 *s,u8 mode)
 657:Core/Src/GUI.c **** {
 2338              		.loc 1 657 1 is_stmt 1 view -0
 2339              		.cfi_startproc
 2340              		@ args = 8, pretend = 0, frame = 16
 2341              		@ frame_needed = 0, uses_anonymous_args = 0
 2342              		.loc 1 657 1 is_stmt 0 view .LVU623
 2343 0000 2DE9F04F 		push	{r4, r5, r6, r7, r8, r9, r10, fp, lr}
 2344              	.LCFI33:
 2345              		.cfi_def_cfa_offset 36
 2346              		.cfi_offset 4, -36
 2347              		.cfi_offset 5, -32
 2348              		.cfi_offset 6, -28
 2349              		.cfi_offset 7, -24
 2350              		.cfi_offset 8, -20
 2351              		.cfi_offset 9, -16
 2352              		.cfi_offset 10, -12
 2353              		.cfi_offset 11, -8
 2354              		.cfi_offset 14, -4
 2355 0004 85B0     		sub	sp, sp, #20
 2356              	.LCFI34:
 2357              		.cfi_def_cfa_offset 56
 2358 0006 8246     		mov	r10, r0
 2359 0008 0191     		str	r1, [sp, #4]
 2360 000a 9146     		mov	r9, r2
 2361 000c 0293     		str	r3, [sp, #8]
 2362 000e 9DF83C80 		ldrb	r8, [sp, #60]	@ zero_extendqisi2
 658:Core/Src/GUI.c **** 	u8 i,j;
 2363              		.loc 1 658 2 is_stmt 1 view .LVU624
 659:Core/Src/GUI.c **** 	u16 k;
 2364              		.loc 1 659 2 view .LVU625
 660:Core/Src/GUI.c **** 	u16 HZnum;
 2365              		.loc 1 660 2 view .LVU626
 661:Core/Src/GUI.c **** 	u16 x0=x;
 2366              		.loc 1 661 2 view .LVU627
 2367              	.LVL246:
ARM GAS  C:\Users\savao\AppData\Local\Temp\ccRdM6zw.s 			page 61


 662:Core/Src/GUI.c **** 	HZnum=sizeof(tfont32)/sizeof(typFNT_GB32);	//自动统计汉字数目
 2368              		.loc 1 662 2 view .LVU628
 663:Core/Src/GUI.c **** 	for (k=0;k<HZnum;k++) 
 2369              		.loc 1 663 2 view .LVU629
 2370              		.loc 1 663 2 is_stmt 0 view .LVU630
 2371 0012 0546     		mov	r5, r0
 2372              		.loc 1 663 8 view .LVU631
 2373 0014 4FF0000B 		mov	fp, #0
 2374              		.loc 1 663 2 view .LVU632
 2375 0018 44E0     		b	.L170
 2376              	.LVL247:
 2377              	.L174:
 664:Core/Src/GUI.c **** 			{
 665:Core/Src/GUI.c **** 			  if ((tfont32[k].Index[0]==*(s))&&(tfont32[k].Index[1]==*(s+1)))
 666:Core/Src/GUI.c **** 			  { 	LCD_SetWindows(x,y,x+32-1,y+32-1);
 667:Core/Src/GUI.c **** 				    for(i=0;i<32*4;i++)
 668:Core/Src/GUI.c **** 				    {
 669:Core/Src/GUI.c **** 						for(j=0;j<8;j++)
 670:Core/Src/GUI.c **** 				    	{
 671:Core/Src/GUI.c **** 							if(!mode) //非叠加方式
 672:Core/Src/GUI.c **** 							{
 673:Core/Src/GUI.c **** 								if(tfont32[k].Msk[i]&(0x80>>j))	Lcd_WriteData_16Bit(fc);
 674:Core/Src/GUI.c **** 								else Lcd_WriteData_16Bit(bc);
 2378              		.loc 1 674 14 is_stmt 1 view .LVU633
 2379 001a 5846     		mov	r0, fp
 2380 001c FFF7FEFF 		bl	Lcd_WriteData_16Bit
 2381              	.LVL248:
 2382 0020 13E0     		b	.L175
 2383              	.L173:
 675:Core/Src/GUI.c **** 							}
 676:Core/Src/GUI.c **** 							else
 677:Core/Src/GUI.c **** 							{
 678:Core/Src/GUI.c **** 								POINT_COLOR=fc;
 2384              		.loc 1 678 9 view .LVU634
 2385              		.loc 1 678 20 is_stmt 0 view .LVU635
 2386 0022 3B4B     		ldr	r3, .L187
 2387 0024 A3F80090 		strh	r9, [r3]	@ movhi
 679:Core/Src/GUI.c **** 								if(tfont32[k].Msk[i]&(0x80>>j))	LCD_DrawPoint(x,y);//画一个点
 2388              		.loc 1 679 9 is_stmt 1 view .LVU636
 2389              		.loc 1 679 26 is_stmt 0 view .LVU637
 2390 0028 06EB8613 		add	r3, r6, r6, lsl #6
 2391 002c 394A     		ldr	r2, .L187+4
 2392 002e 02EB4303 		add	r3, r2, r3, lsl #1
 2393 0032 3B44     		add	r3, r3, r7
 2394 0034 9A78     		ldrb	r2, [r3, #2]	@ zero_extendqisi2
 2395              		.loc 1 679 35 view .LVU638
 2396 0036 8023     		movs	r3, #128
 2397 0038 2341     		asrs	r3, r3, r4
 2398              		.loc 1 679 11 view .LVU639
 2399 003a 1A42     		tst	r2, r3
 2400 003c 1BD1     		bne	.L183
 2401              	.L176:
 680:Core/Src/GUI.c **** 								x++;
 2402              		.loc 1 680 9 is_stmt 1 view .LVU640
 2403              		.loc 1 680 10 is_stmt 0 view .LVU641
 2404 003e 0135     		adds	r5, r5, #1
 2405              	.LVL249:
ARM GAS  C:\Users\savao\AppData\Local\Temp\ccRdM6zw.s 			page 62


 2406              		.loc 1 680 10 view .LVU642
 2407 0040 ADB2     		uxth	r5, r5
 2408              	.LVL250:
 681:Core/Src/GUI.c **** 								if((x-x0)==32)
 2409              		.loc 1 681 9 is_stmt 1 view .LVU643
 2410              		.loc 1 681 14 is_stmt 0 view .LVU644
 2411 0042 A5EB0A03 		sub	r3, r5, r10
 2412              		.loc 1 681 11 view .LVU645
 2413 0046 202B     		cmp	r3, #32
 2414 0048 1AD0     		beq	.L184
 2415              	.L175:
 669:Core/Src/GUI.c **** 				    	{
 2416              		.loc 1 669 19 is_stmt 1 discriminator 2 view .LVU646
 669:Core/Src/GUI.c **** 				    	{
 2417              		.loc 1 669 20 is_stmt 0 discriminator 2 view .LVU647
 2418 004a 0134     		adds	r4, r4, #1
 2419              	.LVL251:
 669:Core/Src/GUI.c **** 				    	{
 2420              		.loc 1 669 20 discriminator 2 view .LVU648
 2421 004c E4B2     		uxtb	r4, r4
 2422              	.LVL252:
 2423              	.L179:
 669:Core/Src/GUI.c **** 				    	{
 2424              		.loc 1 669 15 is_stmt 1 discriminator 1 view .LVU649
 669:Core/Src/GUI.c **** 				    	{
 2425              		.loc 1 669 7 is_stmt 0 discriminator 1 view .LVU650
 2426 004e 072C     		cmp	r4, #7
 2427 0050 1BD8     		bhi	.L177
 671:Core/Src/GUI.c **** 							{
 2428              		.loc 1 671 8 is_stmt 1 view .LVU651
 671:Core/Src/GUI.c **** 							{
 2429              		.loc 1 671 10 is_stmt 0 view .LVU652
 2430 0052 B8F1000F 		cmp	r8, #0
 2431 0056 E4D1     		bne	.L173
 673:Core/Src/GUI.c **** 								else Lcd_WriteData_16Bit(bc);
 2432              		.loc 1 673 9 is_stmt 1 view .LVU653
 673:Core/Src/GUI.c **** 								else Lcd_WriteData_16Bit(bc);
 2433              		.loc 1 673 26 is_stmt 0 view .LVU654
 2434 0058 06EB8613 		add	r3, r6, r6, lsl #6
 2435 005c 2D4A     		ldr	r2, .L187+4
 2436 005e 02EB4303 		add	r3, r2, r3, lsl #1
 2437 0062 3B44     		add	r3, r3, r7
 2438 0064 9A78     		ldrb	r2, [r3, #2]	@ zero_extendqisi2
 673:Core/Src/GUI.c **** 								else Lcd_WriteData_16Bit(bc);
 2439              		.loc 1 673 35 view .LVU655
 2440 0066 8023     		movs	r3, #128
 2441 0068 2341     		asrs	r3, r3, r4
 673:Core/Src/GUI.c **** 								else Lcd_WriteData_16Bit(bc);
 2442              		.loc 1 673 11 view .LVU656
 2443 006a 1A42     		tst	r2, r3
 2444 006c D5D0     		beq	.L174
 673:Core/Src/GUI.c **** 								else Lcd_WriteData_16Bit(bc);
 2445              		.loc 1 673 41 is_stmt 1 discriminator 1 view .LVU657
 2446 006e 4846     		mov	r0, r9
 2447 0070 FFF7FEFF 		bl	Lcd_WriteData_16Bit
 2448              	.LVL253:
 2449 0074 E9E7     		b	.L175
ARM GAS  C:\Users\savao\AppData\Local\Temp\ccRdM6zw.s 			page 63


 2450              	.L183:
 679:Core/Src/GUI.c **** 								x++;
 2451              		.loc 1 679 41 discriminator 1 view .LVU658
 2452 0076 0199     		ldr	r1, [sp, #4]
 2453 0078 2846     		mov	r0, r5
 2454 007a FFF7FEFF 		bl	LCD_DrawPoint
 2455              	.LVL254:
 2456 007e DEE7     		b	.L176
 2457              	.L184:
 682:Core/Src/GUI.c **** 								{
 683:Core/Src/GUI.c **** 									x=x0;
 2458              		.loc 1 683 10 view .LVU659
 2459              	.LVL255:
 684:Core/Src/GUI.c **** 									y++;
 2460              		.loc 1 684 10 view .LVU660
 2461              		.loc 1 684 11 is_stmt 0 view .LVU661
 2462 0080 019B     		ldr	r3, [sp, #4]
 2463 0082 0133     		adds	r3, r3, #1
 2464 0084 9BB2     		uxth	r3, r3
 2465 0086 0193     		str	r3, [sp, #4]
 2466              	.LVL256:
 685:Core/Src/GUI.c **** 									break;
 2467              		.loc 1 685 10 is_stmt 1 view .LVU662
 683:Core/Src/GUI.c **** 									y++;
 2468              		.loc 1 683 11 is_stmt 0 view .LVU663
 2469 0088 5546     		mov	r5, r10
 2470              	.LVL257:
 2471              	.L177:
 667:Core/Src/GUI.c **** 				    {
 2472              		.loc 1 667 24 is_stmt 1 discriminator 2 view .LVU664
 667:Core/Src/GUI.c **** 				    {
 2473              		.loc 1 667 25 is_stmt 0 discriminator 2 view .LVU665
 2474 008a 0137     		adds	r7, r7, #1
 2475              	.LVL258:
 667:Core/Src/GUI.c **** 				    {
 2476              		.loc 1 667 25 discriminator 2 view .LVU666
 2477 008c FFB2     		uxtb	r7, r7
 2478              	.LVL259:
 2479              	.L172:
 667:Core/Src/GUI.c **** 				    {
 2480              		.loc 1 667 17 is_stmt 1 discriminator 1 view .LVU667
 667:Core/Src/GUI.c **** 				    {
 2481              		.loc 1 667 9 is_stmt 0 discriminator 1 view .LVU668
 2482 008e 17F0800F 		tst	r7, #128
 2483 0092 01D1     		bne	.L185
 669:Core/Src/GUI.c **** 				    	{
 2484              		.loc 1 669 12 view .LVU669
 2485 0094 0024     		movs	r4, #0
 2486 0096 DAE7     		b	.L179
 2487              	.L185:
 2488 0098 DDF80CB0 		ldr	fp, [sp, #12]
 2489              	.LVL260:
 2490              	.L171:
 686:Core/Src/GUI.c **** 								}
 687:Core/Src/GUI.c **** 							}
 688:Core/Src/GUI.c **** 						}
 689:Core/Src/GUI.c **** 					}
ARM GAS  C:\Users\savao\AppData\Local\Temp\ccRdM6zw.s 			page 64


 690:Core/Src/GUI.c **** 					
 691:Core/Src/GUI.c **** 					
 692:Core/Src/GUI.c **** 				}				  	
 693:Core/Src/GUI.c **** 				continue;  //查找到对应点阵字库立即退出，防止多个汉字重复取模带来影响
 2491              		.loc 1 693 5 is_stmt 1 view .LVU670
 663:Core/Src/GUI.c **** 			{
 2492              		.loc 1 663 19 view .LVU671
 663:Core/Src/GUI.c **** 			{
 2493              		.loc 1 663 20 is_stmt 0 view .LVU672
 2494 009c 0BF1010B 		add	fp, fp, #1
 2495 00a0 1FFA8BFB 		uxth	fp, fp
 2496              	.LVL261:
 2497              	.L170:
 663:Core/Src/GUI.c **** 			{
 2498              		.loc 1 663 11 is_stmt 1 discriminator 1 view .LVU673
 663:Core/Src/GUI.c **** 			{
 2499              		.loc 1 663 2 is_stmt 0 discriminator 1 view .LVU674
 2500 00a4 BBF1030F 		cmp	fp, #3
 2501 00a8 23D8     		bhi	.L186
 665:Core/Src/GUI.c **** 			  { 	LCD_SetWindows(x,y,x+32-1,y+32-1);
 2502              		.loc 1 665 6 is_stmt 1 view .LVU675
 665:Core/Src/GUI.c **** 			  { 	LCD_SetWindows(x,y,x+32-1,y+32-1);
 2503              		.loc 1 665 27 is_stmt 0 view .LVU676
 2504 00aa 5E46     		mov	r6, fp
 2505 00ac 0BEB8B13 		add	r3, fp, fp, lsl #6
 2506 00b0 184A     		ldr	r2, .L187+4
 2507 00b2 12F81320 		ldrb	r2, [r2, r3, lsl #1]	@ zero_extendqisi2
 665:Core/Src/GUI.c **** 			  { 	LCD_SetWindows(x,y,x+32-1,y+32-1);
 2508              		.loc 1 665 30 view .LVU677
 2509 00b6 0E9B     		ldr	r3, [sp, #56]
 2510 00b8 1B78     		ldrb	r3, [r3]	@ zero_extendqisi2
 665:Core/Src/GUI.c **** 			  { 	LCD_SetWindows(x,y,x+32-1,y+32-1);
 2511              		.loc 1 665 9 view .LVU678
 2512 00ba 9A42     		cmp	r2, r3
 2513 00bc EED1     		bne	.L171
 665:Core/Src/GUI.c **** 			  { 	LCD_SetWindows(x,y,x+32-1,y+32-1);
 2514              		.loc 1 665 56 discriminator 1 view .LVU679
 2515 00be 0BEB8B13 		add	r3, fp, fp, lsl #6
 2516 00c2 144A     		ldr	r2, .L187+4
 2517 00c4 02EB4303 		add	r3, r2, r3, lsl #1
 2518 00c8 5A78     		ldrb	r2, [r3, #1]	@ zero_extendqisi2
 665:Core/Src/GUI.c **** 			  { 	LCD_SetWindows(x,y,x+32-1,y+32-1);
 2519              		.loc 1 665 59 discriminator 1 view .LVU680
 2520 00ca 0E9B     		ldr	r3, [sp, #56]
 2521 00cc 5B78     		ldrb	r3, [r3, #1]	@ zero_extendqisi2
 665:Core/Src/GUI.c **** 			  { 	LCD_SetWindows(x,y,x+32-1,y+32-1);
 2522              		.loc 1 665 37 discriminator 1 view .LVU681
 2523 00ce 9A42     		cmp	r2, r3
 2524 00d0 E4D1     		bne	.L171
 666:Core/Src/GUI.c **** 				    for(i=0;i<32*4;i++)
 2525              		.loc 1 666 9 is_stmt 1 view .LVU682
 2526 00d2 0199     		ldr	r1, [sp, #4]
 2527 00d4 0B46     		mov	r3, r1
 2528 00d6 1F33     		adds	r3, r3, #31
 2529 00d8 05F11F02 		add	r2, r5, #31
 2530 00dc 9BB2     		uxth	r3, r3
 2531 00de 92B2     		uxth	r2, r2
ARM GAS  C:\Users\savao\AppData\Local\Temp\ccRdM6zw.s 			page 65


 2532 00e0 2846     		mov	r0, r5
 2533 00e2 FFF7FEFF 		bl	LCD_SetWindows
 2534              	.LVL262:
 667:Core/Src/GUI.c **** 				    {
 2535              		.loc 1 667 9 view .LVU683
 667:Core/Src/GUI.c **** 				    {
 2536              		.loc 1 667 14 is_stmt 0 view .LVU684
 2537 00e6 0027     		movs	r7, #0
 2538 00e8 CDF80CB0 		str	fp, [sp, #12]
 2539 00ec DDF808B0 		ldr	fp, [sp, #8]
 2540              	.LVL263:
 667:Core/Src/GUI.c **** 				    {
 2541              		.loc 1 667 9 view .LVU685
 2542 00f0 CDE7     		b	.L172
 2543              	.LVL264:
 2544              	.L186:
 694:Core/Src/GUI.c **** 			}
 695:Core/Src/GUI.c **** 	
 696:Core/Src/GUI.c **** 	LCD_SetWindows(0,0,lcddev.width-1,lcddev.height-1);//恢复窗口为全屏  
 2545              		.loc 1 696 2 is_stmt 1 view .LVU686
 2546              		.loc 1 696 27 is_stmt 0 view .LVU687
 2547 00f2 094B     		ldr	r3, .L187+8
 2548 00f4 9A88     		ldrh	r2, [r3, #4]
 2549              		.loc 1 696 42 view .LVU688
 2550 00f6 DB88     		ldrh	r3, [r3, #6]
 2551              		.loc 1 696 2 view .LVU689
 2552 00f8 013B     		subs	r3, r3, #1
 2553 00fa 013A     		subs	r2, r2, #1
 2554 00fc 9BB2     		uxth	r3, r3
 2555 00fe 92B2     		uxth	r2, r2
 2556 0100 0021     		movs	r1, #0
 2557 0102 0846     		mov	r0, r1
 2558 0104 FFF7FEFF 		bl	LCD_SetWindows
 2559              	.LVL265:
 697:Core/Src/GUI.c **** } 
 2560              		.loc 1 697 1 view .LVU690
 2561 0108 05B0     		add	sp, sp, #20
 2562              	.LCFI35:
 2563              		.cfi_def_cfa_offset 36
 2564              		@ sp needed
 2565 010a BDE8F08F 		pop	{r4, r5, r6, r7, r8, r9, r10, fp, pc}
 2566              	.LVL266:
 2567              	.L188:
 2568              		.loc 1 697 1 view .LVU691
 2569 010e 00BF     		.align	2
 2570              	.L187:
 2571 0110 00000000 		.word	POINT_COLOR
 2572 0114 00000000 		.word	.LANCHOR4
 2573 0118 00000000 		.word	lcddev
 2574              		.cfi_endproc
 2575              	.LFE146:
 2577              		.section	.text.Show_Str,"ax",%progbits
 2578              		.align	1
 2579              		.global	Show_Str
 2580              		.syntax unified
 2581              		.thumb
 2582              		.thumb_func
ARM GAS  C:\Users\savao\AppData\Local\Temp\ccRdM6zw.s 			page 66


 2583              		.fpu fpv4-sp-d16
 2585              	Show_Str:
 2586              	.LVL267:
 2587              	.LFB147:
 698:Core/Src/GUI.c **** 
 699:Core/Src/GUI.c **** /*****************************************************************************
 700:Core/Src/GUI.c ****  * @name       :void Show_Str(u16 x, u16 y, u16 fc, u16 bc, u8 *str,u8 size,u8 mode)
 701:Core/Src/GUI.c ****  * @date       :2018-08-09 
 702:Core/Src/GUI.c ****  * @function   :Display Chinese and English strings
 703:Core/Src/GUI.c ****  * @parameters :x:the bebinning x coordinate of the Chinese and English strings
 704:Core/Src/GUI.c ****                 y:the bebinning y coordinate of the Chinese and English strings
 705:Core/Src/GUI.c **** 								fc:the color value of Chinese and English strings
 706:Core/Src/GUI.c **** 								bc:the background color of Chinese and English strings
 707:Core/Src/GUI.c **** 								str:the start address of the Chinese and English strings
 708:Core/Src/GUI.c **** 								size:the size of Chinese and English strings
 709:Core/Src/GUI.c **** 								mode:0-no overlying,1-overlying
 710:Core/Src/GUI.c ****  * @retvalue   :None
 711:Core/Src/GUI.c **** ******************************************************************************/	   		   
 712:Core/Src/GUI.c **** void Show_Str(u16 x, u16 y, u16 fc, u16 bc, u8 *str,u8 size,u8 mode)
 713:Core/Src/GUI.c **** {					
 2588              		.loc 1 713 1 is_stmt 1 view -0
 2589              		.cfi_startproc
 2590              		@ args = 12, pretend = 0, frame = 8
 2591              		@ frame_needed = 0, uses_anonymous_args = 0
 2592              		.loc 1 713 1 is_stmt 0 view .LVU693
 2593 0000 2DE9F04F 		push	{r4, r5, r6, r7, r8, r9, r10, fp, lr}
 2594              	.LCFI36:
 2595              		.cfi_def_cfa_offset 36
 2596              		.cfi_offset 4, -36
 2597              		.cfi_offset 5, -32
 2598              		.cfi_offset 6, -28
 2599              		.cfi_offset 7, -24
 2600              		.cfi_offset 8, -20
 2601              		.cfi_offset 9, -16
 2602              		.cfi_offset 10, -12
 2603              		.cfi_offset 11, -8
 2604              		.cfi_offset 14, -4
 2605 0004 87B0     		sub	sp, sp, #28
 2606              	.LCFI37:
 2607              		.cfi_def_cfa_offset 64
 2608 0006 0590     		str	r0, [sp, #20]
 2609 0008 8846     		mov	r8, r1
 2610 000a 9246     		mov	r10, r2
 2611 000c 0493     		str	r3, [sp, #16]
 2612 000e 109F     		ldr	r7, [sp, #64]
 2613 0010 9DF84460 		ldrb	r6, [sp, #68]	@ zero_extendqisi2
 2614 0014 9DF848B0 		ldrb	fp, [sp, #72]	@ zero_extendqisi2
 714:Core/Src/GUI.c **** 	u16 x0=x;							  	  
 2615              		.loc 1 714 2 is_stmt 1 view .LVU694
 2616              	.LVL268:
 715:Core/Src/GUI.c ****   	u8 bHz=0;     //字符或者中文 
 2617              		.loc 1 715 4 view .LVU695
 716:Core/Src/GUI.c ****     while(*str!=0)//数据未结束
 2618              		.loc 1 716 5 view .LVU696
 2619              		.loc 1 716 10 is_stmt 0 view .LVU697
 2620 0018 0446     		mov	r4, r0
 715:Core/Src/GUI.c ****   	u8 bHz=0;     //字符或者中文 
ARM GAS  C:\Users\savao\AppData\Local\Temp\ccRdM6zw.s 			page 67


 2621              		.loc 1 715 7 view .LVU698
 2622 001a 4FF00009 		mov	r9, #0
 2623              		.loc 1 716 10 view .LVU699
 2624 001e 2FE0     		b	.L190
 2625              	.LVL269:
 2626              	.L205:
 717:Core/Src/GUI.c ****     { 
 718:Core/Src/GUI.c ****         if(!bHz)
 719:Core/Src/GUI.c ****         {
 720:Core/Src/GUI.c **** 			if(x>(lcddev.width-size/2)||y>(lcddev.height-size)) 
 721:Core/Src/GUI.c **** 			return; 
 722:Core/Src/GUI.c **** 	        if(*str>0x80)bHz=1;//中文 
 723:Core/Src/GUI.c **** 	        else              //字符
 724:Core/Src/GUI.c **** 	        {          
 725:Core/Src/GUI.c **** 		        if(*str==0x0D)//换行符号
 726:Core/Src/GUI.c **** 		        {         
 727:Core/Src/GUI.c **** 		            y+=size;
 2627              		.loc 1 727 15 is_stmt 1 view .LVU700
 2628              		.loc 1 727 16 is_stmt 0 view .LVU701
 2629 0020 B044     		add	r8, r8, r6
 2630              	.LVL270:
 2631              		.loc 1 727 16 view .LVU702
 2632 0022 1FFA88F8 		uxth	r8, r8
 2633              	.LVL271:
 728:Core/Src/GUI.c **** 					x=x0;
 2634              		.loc 1 728 6 is_stmt 1 view .LVU703
 729:Core/Src/GUI.c **** 		            str++; 
 2635              		.loc 1 729 15 view .LVU704
 2636              		.loc 1 729 18 is_stmt 0 view .LVU705
 2637 0026 0137     		adds	r7, r7, #1
 2638              	.LVL272:
 728:Core/Src/GUI.c **** 					x=x0;
 2639              		.loc 1 728 7 view .LVU706
 2640 0028 059C     		ldr	r4, [sp, #20]
 2641              	.LVL273:
 2642              	.L195:
 730:Core/Src/GUI.c **** 		        }  
 731:Core/Src/GUI.c **** 		        else
 732:Core/Src/GUI.c **** 				{
 733:Core/Src/GUI.c **** 					if(size>16)//字库中没有集成12X24 16X32的英文字体,用8X16代替
 734:Core/Src/GUI.c **** 					{  
 735:Core/Src/GUI.c **** 					LCD_ShowChar(x,y,fc,bc,*str,16,mode);
 736:Core/Src/GUI.c **** 					x+=8; //字符,为全字的一半 
 737:Core/Src/GUI.c **** 					}
 738:Core/Src/GUI.c **** 					else
 739:Core/Src/GUI.c **** 					{
 740:Core/Src/GUI.c **** 					LCD_ShowChar(x,y,fc,bc,*str,size,mode);
 741:Core/Src/GUI.c **** 					x+=size/2; //字符,为全字的一半 
 742:Core/Src/GUI.c **** 					}
 743:Core/Src/GUI.c **** 				} 
 744:Core/Src/GUI.c **** 				str++; 
 2643              		.loc 1 744 5 is_stmt 1 view .LVU707
 2644              		.loc 1 744 8 is_stmt 0 view .LVU708
 2645 002a 0137     		adds	r7, r7, #1
 2646              	.LVL274:
 2647              		.loc 1 744 8 view .LVU709
 2648 002c 28E0     		b	.L190
ARM GAS  C:\Users\savao\AppData\Local\Temp\ccRdM6zw.s 			page 68


 2649              	.L196:
 740:Core/Src/GUI.c **** 					x+=size/2; //字符,为全字的一半 
 2650              		.loc 1 740 6 is_stmt 1 view .LVU710
 2651 002e CDF808B0 		str	fp, [sp, #8]
 2652 0032 0196     		str	r6, [sp, #4]
 2653 0034 0093     		str	r3, [sp]
 2654 0036 049B     		ldr	r3, [sp, #16]
 2655 0038 5246     		mov	r2, r10
 2656 003a 4146     		mov	r1, r8
 2657 003c 2046     		mov	r0, r4
 2658 003e FFF7FEFF 		bl	LCD_ShowChar
 2659              	.LVL275:
 741:Core/Src/GUI.c **** 					}
 2660              		.loc 1 741 6 view .LVU711
 741:Core/Src/GUI.c **** 					}
 2661              		.loc 1 741 7 is_stmt 0 view .LVU712
 2662 0042 2C44     		add	r4, r4, r5
 2663              	.LVL276:
 741:Core/Src/GUI.c **** 					}
 2664              		.loc 1 741 7 view .LVU713
 2665 0044 A4B2     		uxth	r4, r4
 2666              	.LVL277:
 741:Core/Src/GUI.c **** 					}
 2667              		.loc 1 741 7 view .LVU714
 2668 0046 F0E7     		b	.L195
 2669              	.L191:
 745:Core/Src/GUI.c **** 		        
 746:Core/Src/GUI.c **** 	        }
 747:Core/Src/GUI.c ****         }else//中文 
 748:Core/Src/GUI.c ****         {   
 749:Core/Src/GUI.c **** 			if(x>(lcddev.width-size)||y>(lcddev.height-size)) 
 2670              		.loc 1 749 4 is_stmt 1 view .LVU715
 2671              		.loc 1 749 16 is_stmt 0 view .LVU716
 2672 0048 2D4B     		ldr	r3, .L206
 2673 004a 9B88     		ldrh	r3, [r3, #4]
 2674              		.loc 1 749 22 view .LVU717
 2675 004c 9B1B     		subs	r3, r3, r6
 2676              		.loc 1 749 6 view .LVU718
 2677 004e 9C42     		cmp	r4, r3
 2678 0050 53DC     		bgt	.L189
 2679              		.loc 1 749 39 discriminator 1 view .LVU719
 2680 0052 2B4B     		ldr	r3, .L206
 2681 0054 DB88     		ldrh	r3, [r3, #6]
 2682              		.loc 1 749 46 discriminator 1 view .LVU720
 2683 0056 9B1B     		subs	r3, r3, r6
 2684              		.loc 1 749 28 discriminator 1 view .LVU721
 2685 0058 9845     		cmp	r8, r3
 2686 005a 4EDC     		bgt	.L189
 750:Core/Src/GUI.c **** 			return;  
 751:Core/Src/GUI.c ****             bHz=0;//有汉字库    
 2687              		.loc 1 751 13 is_stmt 1 view .LVU722
 2688              	.LVL278:
 752:Core/Src/GUI.c **** 			if(size==32)
 2689              		.loc 1 752 4 view .LVU723
 2690              		.loc 1 752 6 is_stmt 0 view .LVU724
 2691 005c 202E     		cmp	r6, #32
 2692 005e 35D0     		beq	.L203
ARM GAS  C:\Users\savao\AppData\Local\Temp\ccRdM6zw.s 			page 69


 753:Core/Src/GUI.c **** 			GUI_DrawFont32(x,y,fc,bc,str,mode);	 	
 754:Core/Src/GUI.c **** 			else if(size==24)
 2693              		.loc 1 754 9 is_stmt 1 view .LVU725
 2694              		.loc 1 754 11 is_stmt 0 view .LVU726
 2695 0060 182E     		cmp	r6, #24
 2696 0062 3DD0     		beq	.L204
 755:Core/Src/GUI.c **** 			GUI_DrawFont24(x,y,fc,bc,str,mode);	
 756:Core/Src/GUI.c **** 			else
 757:Core/Src/GUI.c **** 			GUI_DrawFont16(x,y,fc,bc,str,mode);
 2697              		.loc 1 757 4 is_stmt 1 view .LVU727
 2698 0064 CDF804B0 		str	fp, [sp, #4]
 2699 0068 0097     		str	r7, [sp]
 2700 006a 049B     		ldr	r3, [sp, #16]
 2701 006c 5246     		mov	r2, r10
 2702 006e 4146     		mov	r1, r8
 2703 0070 2046     		mov	r0, r4
 2704 0072 FFF7FEFF 		bl	GUI_DrawFont16
 2705              	.LVL279:
 2706              	.L198:
 758:Core/Src/GUI.c **** 				
 759:Core/Src/GUI.c **** 	        str+=2; 
 2707              		.loc 1 759 10 view .LVU728
 2708              		.loc 1 759 13 is_stmt 0 view .LVU729
 2709 0076 0237     		adds	r7, r7, #2
 2710              	.LVL280:
 760:Core/Src/GUI.c **** 	        x+=size;//下一个汉字偏移	    
 2711              		.loc 1 760 10 is_stmt 1 view .LVU730
 2712              		.loc 1 760 11 is_stmt 0 view .LVU731
 2713 0078 3444     		add	r4, r4, r6
 2714              	.LVL281:
 2715              		.loc 1 760 11 view .LVU732
 2716 007a A4B2     		uxth	r4, r4
 2717              	.LVL282:
 751:Core/Src/GUI.c **** 			if(size==32)
 2718              		.loc 1 751 16 view .LVU733
 2719 007c 4FF00009 		mov	r9, #0
 2720              	.LVL283:
 2721              	.L190:
 716:Core/Src/GUI.c ****     { 
 2722              		.loc 1 716 10 is_stmt 1 view .LVU734
 716:Core/Src/GUI.c ****     { 
 2723              		.loc 1 716 11 is_stmt 0 view .LVU735
 2724 0080 3B78     		ldrb	r3, [r7]	@ zero_extendqisi2
 716:Core/Src/GUI.c ****     { 
 2725              		.loc 1 716 10 view .LVU736
 2726 0082 002B     		cmp	r3, #0
 2727 0084 39D0     		beq	.L189
 718:Core/Src/GUI.c ****         {
 2728              		.loc 1 718 9 is_stmt 1 view .LVU737
 718:Core/Src/GUI.c ****         {
 2729              		.loc 1 718 11 is_stmt 0 view .LVU738
 2730 0086 B9F1000F 		cmp	r9, #0
 2731 008a DDD1     		bne	.L191
 720:Core/Src/GUI.c **** 			return; 
 2732              		.loc 1 720 4 is_stmt 1 view .LVU739
 720:Core/Src/GUI.c **** 			return; 
 2733              		.loc 1 720 16 is_stmt 0 view .LVU740
ARM GAS  C:\Users\savao\AppData\Local\Temp\ccRdM6zw.s 			page 70


 2734 008c 1C4A     		ldr	r2, .L206
 2735 008e 9288     		ldrh	r2, [r2, #4]
 720:Core/Src/GUI.c **** 			return; 
 2736              		.loc 1 720 27 view .LVU741
 2737 0090 7508     		lsrs	r5, r6, #1
 720:Core/Src/GUI.c **** 			return; 
 2738              		.loc 1 720 22 view .LVU742
 2739 0092 A2EB5602 		sub	r2, r2, r6, lsr #1
 720:Core/Src/GUI.c **** 			return; 
 2740              		.loc 1 720 6 view .LVU743
 2741 0096 9442     		cmp	r4, r2
 2742 0098 2FDC     		bgt	.L189
 720:Core/Src/GUI.c **** 			return; 
 2743              		.loc 1 720 41 discriminator 1 view .LVU744
 2744 009a 194A     		ldr	r2, .L206
 2745 009c D288     		ldrh	r2, [r2, #6]
 720:Core/Src/GUI.c **** 			return; 
 2746              		.loc 1 720 48 discriminator 1 view .LVU745
 2747 009e 921B     		subs	r2, r2, r6
 720:Core/Src/GUI.c **** 			return; 
 2748              		.loc 1 720 30 discriminator 1 view .LVU746
 2749 00a0 9045     		cmp	r8, r2
 2750 00a2 2ADC     		bgt	.L189
 722:Core/Src/GUI.c **** 	        else              //字符
 2751              		.loc 1 722 10 is_stmt 1 view .LVU747
 722:Core/Src/GUI.c **** 	        else              //字符
 2752              		.loc 1 722 12 is_stmt 0 view .LVU748
 2753 00a4 802B     		cmp	r3, #128
 2754 00a6 25D8     		bhi	.L201
 725:Core/Src/GUI.c **** 		        {         
 2755              		.loc 1 725 11 is_stmt 1 view .LVU749
 725:Core/Src/GUI.c **** 		        {         
 2756              		.loc 1 725 13 is_stmt 0 view .LVU750
 2757 00a8 0D2B     		cmp	r3, #13
 2758 00aa B9D0     		beq	.L205
 733:Core/Src/GUI.c **** 					{  
 2759              		.loc 1 733 6 is_stmt 1 view .LVU751
 733:Core/Src/GUI.c **** 					{  
 2760              		.loc 1 733 8 is_stmt 0 view .LVU752
 2761 00ac 102E     		cmp	r6, #16
 2762 00ae BED9     		bls	.L196
 735:Core/Src/GUI.c **** 					x+=8; //字符,为全字的一半 
 2763              		.loc 1 735 6 is_stmt 1 view .LVU753
 2764 00b0 CDF808B0 		str	fp, [sp, #8]
 2765 00b4 1022     		movs	r2, #16
 2766 00b6 0192     		str	r2, [sp, #4]
 2767 00b8 0093     		str	r3, [sp]
 2768 00ba 049B     		ldr	r3, [sp, #16]
 2769 00bc 5246     		mov	r2, r10
 2770 00be 4146     		mov	r1, r8
 2771 00c0 2046     		mov	r0, r4
 2772 00c2 FFF7FEFF 		bl	LCD_ShowChar
 2773              	.LVL284:
 736:Core/Src/GUI.c **** 					}
 2774              		.loc 1 736 6 view .LVU754
 736:Core/Src/GUI.c **** 					}
 2775              		.loc 1 736 7 is_stmt 0 view .LVU755
ARM GAS  C:\Users\savao\AppData\Local\Temp\ccRdM6zw.s 			page 71


 2776 00c6 0834     		adds	r4, r4, #8
 2777              	.LVL285:
 736:Core/Src/GUI.c **** 					}
 2778              		.loc 1 736 7 view .LVU756
 2779 00c8 A4B2     		uxth	r4, r4
 2780              	.LVL286:
 736:Core/Src/GUI.c **** 					}
 2781              		.loc 1 736 7 view .LVU757
 2782 00ca AEE7     		b	.L195
 2783              	.LVL287:
 2784              	.L203:
 753:Core/Src/GUI.c **** 			else if(size==24)
 2785              		.loc 1 753 4 is_stmt 1 view .LVU758
 2786 00cc CDF804B0 		str	fp, [sp, #4]
 2787 00d0 0097     		str	r7, [sp]
 2788 00d2 049B     		ldr	r3, [sp, #16]
 2789 00d4 5246     		mov	r2, r10
 2790 00d6 4146     		mov	r1, r8
 2791 00d8 2046     		mov	r0, r4
 2792 00da FFF7FEFF 		bl	GUI_DrawFont32
 2793              	.LVL288:
 2794 00de CAE7     		b	.L198
 2795              	.L204:
 755:Core/Src/GUI.c **** 			else
 2796              		.loc 1 755 4 view .LVU759
 2797 00e0 CDF804B0 		str	fp, [sp, #4]
 2798 00e4 0097     		str	r7, [sp]
 2799 00e6 049B     		ldr	r3, [sp, #16]
 2800 00e8 5246     		mov	r2, r10
 2801 00ea 4146     		mov	r1, r8
 2802 00ec 2046     		mov	r0, r4
 2803 00ee FFF7FEFF 		bl	GUI_DrawFont24
 2804              	.LVL289:
 2805 00f2 C0E7     		b	.L198
 2806              	.LVL290:
 2807              	.L201:
 722:Core/Src/GUI.c **** 	        else              //字符
 2808              		.loc 1 722 26 is_stmt 0 view .LVU760
 2809 00f4 4FF00109 		mov	r9, #1
 2810              	.LVL291:
 722:Core/Src/GUI.c **** 	        else              //字符
 2811              		.loc 1 722 26 view .LVU761
 2812 00f8 C2E7     		b	.L190
 2813              	.LVL292:
 2814              	.L189:
 761:Core/Src/GUI.c ****         }						 
 762:Core/Src/GUI.c ****     }   
 763:Core/Src/GUI.c **** }
 2815              		.loc 1 763 1 view .LVU762
 2816 00fa 07B0     		add	sp, sp, #28
 2817              	.LCFI38:
 2818              		.cfi_def_cfa_offset 36
 2819              		@ sp needed
 2820 00fc BDE8F08F 		pop	{r4, r5, r6, r7, r8, r9, r10, fp, pc}
 2821              	.LVL293:
 2822              	.L207:
 2823              		.loc 1 763 1 view .LVU763
ARM GAS  C:\Users\savao\AppData\Local\Temp\ccRdM6zw.s 			page 72


 2824              		.align	2
 2825              	.L206:
 2826 0100 00000000 		.word	lcddev
 2827              		.cfi_endproc
 2828              	.LFE147:
 2830              		.section	.text.Gui_StrCenter,"ax",%progbits
 2831              		.align	1
 2832              		.global	Gui_StrCenter
 2833              		.syntax unified
 2834              		.thumb
 2835              		.thumb_func
 2836              		.fpu fpv4-sp-d16
 2838              	Gui_StrCenter:
 2839              	.LVL294:
 2840              	.LFB148:
 764:Core/Src/GUI.c **** 
 765:Core/Src/GUI.c **** /*****************************************************************************
 766:Core/Src/GUI.c ****  * @name       :void Gui_StrCenter(u16 x, u16 y, u16 fc, u16 bc, u8 *str,u8 size,u8 mode)
 767:Core/Src/GUI.c ****  * @date       :2018-08-09 
 768:Core/Src/GUI.c ****  * @function   :Centered display of English and Chinese strings
 769:Core/Src/GUI.c ****  * @parameters :x:the bebinning x coordinate of the Chinese and English strings
 770:Core/Src/GUI.c ****                 y:the bebinning y coordinate of the Chinese and English strings
 771:Core/Src/GUI.c **** 								fc:the color value of Chinese and English strings
 772:Core/Src/GUI.c **** 								bc:the background color of Chinese and English strings
 773:Core/Src/GUI.c **** 								str:the start address of the Chinese and English strings
 774:Core/Src/GUI.c **** 								size:the size of Chinese and English strings
 775:Core/Src/GUI.c **** 								mode:0-no overlying,1-overlying
 776:Core/Src/GUI.c ****  * @retvalue   :None
 777:Core/Src/GUI.c **** ******************************************************************************/ 
 778:Core/Src/GUI.c **** void Gui_StrCenter(u16 x, u16 y, u16 fc, u16 bc, u8 *str,u8 size,u8 mode)
 779:Core/Src/GUI.c **** {
 2841              		.loc 1 779 1 is_stmt 1 view -0
 2842              		.cfi_startproc
 2843              		@ args = 12, pretend = 0, frame = 0
 2844              		@ frame_needed = 0, uses_anonymous_args = 0
 2845              		.loc 1 779 1 is_stmt 0 view .LVU765
 2846 0000 F0B5     		push	{r4, r5, r6, r7, lr}
 2847              	.LCFI39:
 2848              		.cfi_def_cfa_offset 20
 2849              		.cfi_offset 4, -20
 2850              		.cfi_offset 5, -16
 2851              		.cfi_offset 6, -12
 2852              		.cfi_offset 7, -8
 2853              		.cfi_offset 14, -4
 2854 0002 85B0     		sub	sp, sp, #20
 2855              	.LCFI40:
 2856              		.cfi_def_cfa_offset 40
 2857 0004 0C46     		mov	r4, r1
 2858 0006 1546     		mov	r5, r2
 2859 0008 1E46     		mov	r6, r3
 2860 000a 0A9F     		ldr	r7, [sp, #40]
 780:Core/Src/GUI.c **** 	u16 len=strlen((const char *)str);
 2861              		.loc 1 780 2 is_stmt 1 view .LVU766
 2862              		.loc 1 780 10 is_stmt 0 view .LVU767
 2863 000c 3846     		mov	r0, r7
 2864              	.LVL295:
 2865              		.loc 1 780 10 view .LVU768
ARM GAS  C:\Users\savao\AppData\Local\Temp\ccRdM6zw.s 			page 73


 2866 000e FFF7FEFF 		bl	strlen
 2867              	.LVL296:
 781:Core/Src/GUI.c **** 	u16 x1=(lcddev.width-len*8)/2;
 2868              		.loc 1 781 2 is_stmt 1 view .LVU769
 2869              		.loc 1 781 16 is_stmt 0 view .LVU770
 2870 0012 0C4B     		ldr	r3, .L210
 2871 0014 B3F804C0 		ldrh	ip, [r3, #4]
 2872              		.loc 1 781 26 view .LVU771
 2873 0018 80B2     		uxth	r0, r0
 2874              		.loc 1 781 22 view .LVU772
 2875 001a ACEBC000 		sub	r0, ip, r0, lsl #3
 2876              	.LVL297:
 2877              		.loc 1 781 29 view .LVU773
 2878 001e 00EBD070 		add	r0, r0, r0, lsr #31
 2879              	.LVL298:
 782:Core/Src/GUI.c **** 	Show_Str(x1,y,fc,bc,str,size,mode);
 2880              		.loc 1 782 2 is_stmt 1 view .LVU774
 2881 0022 9DF83030 		ldrb	r3, [sp, #48]	@ zero_extendqisi2
 2882 0026 0293     		str	r3, [sp, #8]
 2883 0028 9DF82C30 		ldrb	r3, [sp, #44]	@ zero_extendqisi2
 2884 002c 0193     		str	r3, [sp, #4]
 2885 002e 0097     		str	r7, [sp]
 2886 0030 3346     		mov	r3, r6
 2887 0032 2A46     		mov	r2, r5
 2888 0034 2146     		mov	r1, r4
 2889 0036 C0F34F00 		ubfx	r0, r0, #1, #16
 2890              	.LVL299:
 2891              		.loc 1 782 2 is_stmt 0 view .LVU775
 2892 003a FFF7FEFF 		bl	Show_Str
 2893              	.LVL300:
 783:Core/Src/GUI.c **** } 
 2894              		.loc 1 783 1 view .LVU776
 2895 003e 05B0     		add	sp, sp, #20
 2896              	.LCFI41:
 2897              		.cfi_def_cfa_offset 20
 2898              		@ sp needed
 2899 0040 F0BD     		pop	{r4, r5, r6, r7, pc}
 2900              	.LVL301:
 2901              	.L211:
 2902              		.loc 1 783 1 view .LVU777
 2903 0042 00BF     		.align	2
 2904              	.L210:
 2905 0044 00000000 		.word	lcddev
 2906              		.cfi_endproc
 2907              	.LFE148:
 2909              		.section	.text.Gui_Drawbmp16,"ax",%progbits
 2910              		.align	1
 2911              		.global	Gui_Drawbmp16
 2912              		.syntax unified
 2913              		.thumb
 2914              		.thumb_func
 2915              		.fpu fpv4-sp-d16
 2917              	Gui_Drawbmp16:
 2918              	.LVL302:
 2919              	.LFB149:
 784:Core/Src/GUI.c ****  
 785:Core/Src/GUI.c **** /*****************************************************************************
ARM GAS  C:\Users\savao\AppData\Local\Temp\ccRdM6zw.s 			page 74


 786:Core/Src/GUI.c ****  * @name       :void Gui_Drawbmp16(u16 x,u16 y,u16 pwidth, u16 pheight, const unsigned char *p) //
 787:Core/Src/GUI.c ****  * @date       :2018-08-09 
 788:Core/Src/GUI.c ****  * @function   :Display a 16-bit BMP image
 789:Core/Src/GUI.c ****  * @parameters :x:the bebinning x coordinate of the BMP image
 790:Core/Src/GUI.c ****                 y:the bebinning y coordinate of the BMP image
 791:Core/Src/GUI.c **** 								p:the start address of image array
 792:Core/Src/GUI.c ****  * @retvalue   :None
 793:Core/Src/GUI.c **** ******************************************************************************/ 
 794:Core/Src/GUI.c **** void Gui_Drawbmp16(u16 x,u16 y,u16 pwidth, u16 pheight, const unsigned char *p) //显示图片
 795:Core/Src/GUI.c **** {
 2920              		.loc 1 795 1 is_stmt 1 view -0
 2921              		.cfi_startproc
 2922              		@ args = 4, pretend = 0, frame = 0
 2923              		@ frame_needed = 0, uses_anonymous_args = 0
 2924              		.loc 1 795 1 is_stmt 0 view .LVU779
 2925 0000 F8B5     		push	{r3, r4, r5, r6, r7, lr}
 2926              	.LCFI42:
 2927              		.cfi_def_cfa_offset 24
 2928              		.cfi_offset 3, -24
 2929              		.cfi_offset 4, -20
 2930              		.cfi_offset 5, -16
 2931              		.cfi_offset 6, -12
 2932              		.cfi_offset 7, -8
 2933              		.cfi_offset 14, -4
 2934 0002 1746     		mov	r7, r2
 2935 0004 1E46     		mov	r6, r3
 2936 0006 069D     		ldr	r5, [sp, #24]
 796:Core/Src/GUI.c ****   	int i; 
 2937              		.loc 1 796 4 is_stmt 1 view .LVU780
 797:Core/Src/GUI.c **** 	unsigned char picH,picL; 
 2938              		.loc 1 797 2 view .LVU781
 798:Core/Src/GUI.c **** 	LCD_SetWindows(x,y,x+pwidth-1,y+pheight-1);//窗口设置
 2939              		.loc 1 798 2 view .LVU782
 2940              		.loc 1 798 22 is_stmt 0 view .LVU783
 2941 0008 8218     		adds	r2, r0, r2
 2942              	.LVL303:
 2943              		.loc 1 798 22 view .LVU784
 2944 000a 92B2     		uxth	r2, r2
 2945              		.loc 1 798 33 view .LVU785
 2946 000c CB18     		adds	r3, r1, r3
 2947              	.LVL304:
 2948              		.loc 1 798 33 view .LVU786
 2949 000e 9BB2     		uxth	r3, r3
 2950              		.loc 1 798 2 view .LVU787
 2951 0010 013B     		subs	r3, r3, #1
 2952 0012 013A     		subs	r2, r2, #1
 2953 0014 9BB2     		uxth	r3, r3
 2954 0016 92B2     		uxth	r2, r2
 2955 0018 FFF7FEFF 		bl	LCD_SetWindows
 2956              	.LVL305:
 799:Core/Src/GUI.c ****     for(i=0;i<pwidth*pheight;i++)
 2957              		.loc 1 799 5 is_stmt 1 view .LVU788
 2958              		.loc 1 799 10 is_stmt 0 view .LVU789
 2959 001c 0024     		movs	r4, #0
 2960              		.loc 1 799 5 view .LVU790
 2961 001e 09E0     		b	.L213
 2962              	.LVL306:
ARM GAS  C:\Users\savao\AppData\Local\Temp\ccRdM6zw.s 			page 75


 2963              	.L214:
 800:Core/Src/GUI.c **** 	{	
 801:Core/Src/GUI.c **** 	 	picL=*(p+i*2);	//数据低位在前
 2964              		.loc 1 801 4 is_stmt 1 discriminator 3 view .LVU791
 2965              		.loc 1 801 14 is_stmt 0 discriminator 3 view .LVU792
 2966 0020 6100     		lsls	r1, r4, #1
 2967              		.loc 1 801 8 discriminator 3 view .LVU793
 2968 0022 15F81400 		ldrb	r0, [r5, r4, lsl #1]	@ zero_extendqisi2
 2969              	.LVL307:
 802:Core/Src/GUI.c **** 		picH=*(p+i*2+1);				
 2970              		.loc 1 802 3 is_stmt 1 discriminator 3 view .LVU794
 2971              		.loc 1 802 15 is_stmt 0 discriminator 3 view .LVU795
 2972 0026 0131     		adds	r1, r1, #1
 2973              		.loc 1 802 7 discriminator 3 view .LVU796
 2974 0028 6B5C     		ldrb	r3, [r5, r1]	@ zero_extendqisi2
 2975              	.LVL308:
 803:Core/Src/GUI.c **** 		Lcd_WriteData_16Bit(picH<<8|picL);  						
 2976              		.loc 1 803 3 is_stmt 1 discriminator 3 view .LVU797
 2977 002a 40EA0320 		orr	r0, r0, r3, lsl #8
 2978              	.LVL309:
 2979              		.loc 1 803 3 is_stmt 0 discriminator 3 view .LVU798
 2980 002e FFF7FEFF 		bl	Lcd_WriteData_16Bit
 2981              	.LVL310:
 799:Core/Src/GUI.c **** 	{	
 2982              		.loc 1 799 30 is_stmt 1 discriminator 3 view .LVU799
 799:Core/Src/GUI.c **** 	{	
 2983              		.loc 1 799 31 is_stmt 0 discriminator 3 view .LVU800
 2984 0032 0134     		adds	r4, r4, #1
 2985              	.LVL311:
 2986              	.L213:
 799:Core/Src/GUI.c **** 	{	
 2987              		.loc 1 799 13 is_stmt 1 discriminator 1 view .LVU801
 799:Core/Src/GUI.c **** 	{	
 2988              		.loc 1 799 21 is_stmt 0 discriminator 1 view .LVU802
 2989 0034 06FB07F1 		mul	r1, r6, r7
 799:Core/Src/GUI.c **** 	{	
 2990              		.loc 1 799 5 discriminator 1 view .LVU803
 2991 0038 A142     		cmp	r1, r4
 2992 003a F1DC     		bgt	.L214
 804:Core/Src/GUI.c **** 	}	
 805:Core/Src/GUI.c **** 	LCD_SetWindows(0,0,lcddev.width-1,lcddev.height-1);//恢复显示窗口为全屏	
 2993              		.loc 1 805 2 is_stmt 1 view .LVU804
 2994              		.loc 1 805 27 is_stmt 0 view .LVU805
 2995 003c 054B     		ldr	r3, .L216
 2996 003e 9A88     		ldrh	r2, [r3, #4]
 2997              		.loc 1 805 42 view .LVU806
 2998 0040 DB88     		ldrh	r3, [r3, #6]
 2999              		.loc 1 805 2 view .LVU807
 3000 0042 013B     		subs	r3, r3, #1
 3001 0044 013A     		subs	r2, r2, #1
 3002 0046 9BB2     		uxth	r3, r3
 3003 0048 92B2     		uxth	r2, r2
 3004 004a 0021     		movs	r1, #0
 3005 004c 0846     		mov	r0, r1
 3006 004e FFF7FEFF 		bl	LCD_SetWindows
 3007              	.LVL312:
 806:Core/Src/GUI.c **** }
ARM GAS  C:\Users\savao\AppData\Local\Temp\ccRdM6zw.s 			page 76


 3008              		.loc 1 806 1 view .LVU808
 3009 0052 F8BD     		pop	{r3, r4, r5, r6, r7, pc}
 3010              	.LVL313:
 3011              	.L217:
 3012              		.loc 1 806 1 view .LVU809
 3013              		.align	2
 3014              	.L216:
 3015 0054 00000000 		.word	lcddev
 3016              		.cfi_endproc
 3017              	.LFE149:
 3019              		.section	.text.LCD_Draw9Point,"ax",%progbits
 3020              		.align	1
 3021              		.global	LCD_Draw9Point
 3022              		.syntax unified
 3023              		.thumb
 3024              		.thumb_func
 3025              		.fpu fpv4-sp-d16
 3027              	LCD_Draw9Point:
 3028              	.LVL314:
 3029              	.LFB150:
 807:Core/Src/GUI.c **** 
 808:Core/Src/GUI.c **** /*******************************************************************
 809:Core/Src/GUI.c ****  * @name       :void LCD_Draw9Point(uint16_t x, uint16_t y, uint16_t color)
 810:Core/Src/GUI.c ****  * @date       :2018-12-29 
 811:Core/Src/GUI.c ****  * @function   :Draw a point with a radius of 9 pixels in LCD screen
 812:Core/Src/GUI.c ****  * @parameters :x:the x coordinate of the point
 813:Core/Src/GUI.c ****                 y:the y coordinate of the point
 814:Core/Src/GUI.c **** 								color:the color value of the point
 815:Core/Src/GUI.c ****  * @retvalue   :None
 816:Core/Src/GUI.c **** ********************************************************************/
 817:Core/Src/GUI.c **** void LCD_Draw9Point(uint16_t x, uint16_t y, uint16_t color)
 818:Core/Src/GUI.c **** {
 3030              		.loc 1 818 1 is_stmt 1 view -0
 3031              		.cfi_startproc
 3032              		@ args = 0, pretend = 0, frame = 0
 3033              		@ frame_needed = 0, uses_anonymous_args = 0
 3034              		.loc 1 818 1 is_stmt 0 view .LVU811
 3035 0000 2DE9F04F 		push	{r4, r5, r6, r7, r8, r9, r10, fp, lr}
 3036              	.LCFI43:
 3037              		.cfi_def_cfa_offset 36
 3038              		.cfi_offset 4, -36
 3039              		.cfi_offset 5, -32
 3040              		.cfi_offset 6, -28
 3041              		.cfi_offset 7, -24
 3042              		.cfi_offset 8, -20
 3043              		.cfi_offset 9, -16
 3044              		.cfi_offset 10, -12
 3045              		.cfi_offset 11, -8
 3046              		.cfi_offset 14, -4
 3047 0004 83B0     		sub	sp, sp, #12
 3048              	.LCFI44:
 3049              		.cfi_def_cfa_offset 48
 3050 0006 0546     		mov	r5, r0
 3051 0008 0C46     		mov	r4, r1
 3052 000a 9046     		mov	r8, r2
 819:Core/Src/GUI.c **** 	POINT_COLOR=color;
 3053              		.loc 1 819 2 is_stmt 1 view .LVU812
ARM GAS  C:\Users\savao\AppData\Local\Temp\ccRdM6zw.s 			page 77


 3054              		.loc 1 819 13 is_stmt 0 view .LVU813
 3055 000c 274E     		ldr	r6, .L220
 3056 000e 3280     		strh	r2, [r6]	@ movhi
 820:Core/Src/GUI.c **** 	LCD_DrawPoint(x-1,y-4);
 3057              		.loc 1 820 2 is_stmt 1 view .LVU814
 3058 0010 00F1FF39 		add	r9, r0, #-1
 3059 0014 1FFA89F9 		uxth	r9, r9
 3060 0018 0439     		subs	r1, r1, #4
 3061              	.LVL315:
 3062              		.loc 1 820 2 is_stmt 0 view .LVU815
 3063 001a 89B2     		uxth	r1, r1
 3064 001c 4846     		mov	r0, r9
 3065              	.LVL316:
 3066              		.loc 1 820 2 view .LVU816
 3067 001e FFF7FEFF 		bl	LCD_DrawPoint
 3068              	.LVL317:
 821:Core/Src/GUI.c **** 	LCD_WR_DATA(POINT_COLOR);
 3069              		.loc 1 821 2 is_stmt 1 view .LVU817
 3070 0022 3088     		ldrh	r0, [r6]
 3071 0024 FFF7FEFF 		bl	LCD_WR_DATA
 3072              	.LVL318:
 822:Core/Src/GUI.c **** 	LCD_WR_DATA(POINT_COLOR);
 3073              		.loc 1 822 2 view .LVU818
 3074 0028 3088     		ldrh	r0, [r6]
 3075 002a FFF7FEFF 		bl	LCD_WR_DATA
 3076              	.LVL319:
 823:Core/Src/GUI.c **** 	LCD_DrawPoint(x-4,y-1);
 3077              		.loc 1 823 2 view .LVU819
 3078 002e 2F1F     		subs	r7, r5, #4
 3079 0030 BFB2     		uxth	r7, r7
 3080 0032 04F1FF3B 		add	fp, r4, #-1
 3081 0036 1FFA8BFB 		uxth	fp, fp
 3082 003a 5946     		mov	r1, fp
 3083 003c 3846     		mov	r0, r7
 3084 003e FFF7FEFF 		bl	LCD_DrawPoint
 3085              	.LVL320:
 824:Core/Src/GUI.c **** 	LCD_DrawPoint(x-4,y);
 3086              		.loc 1 824 2 view .LVU820
 3087 0042 2146     		mov	r1, r4
 3088 0044 3846     		mov	r0, r7
 3089 0046 FFF7FEFF 		bl	LCD_DrawPoint
 3090              	.LVL321:
 825:Core/Src/GUI.c **** 	LCD_DrawPoint(x-4,y+1);
 3091              		.loc 1 825 2 view .LVU821
 3092 004a 04F1010A 		add	r10, r4, #1
 3093 004e 1FFA8AFA 		uxth	r10, r10
 3094 0052 5146     		mov	r1, r10
 3095 0054 3846     		mov	r0, r7
 3096 0056 FFF7FEFF 		bl	LCD_DrawPoint
 3097              	.LVL322:
 826:Core/Src/GUI.c **** 	LCD_DrawPoint(x+4,y-1);
 3098              		.loc 1 826 2 view .LVU822
 3099 005a 2F1D     		adds	r7, r5, #4
 3100 005c BFB2     		uxth	r7, r7
 3101 005e 5946     		mov	r1, fp
 3102 0060 3846     		mov	r0, r7
 3103 0062 FFF7FEFF 		bl	LCD_DrawPoint
ARM GAS  C:\Users\savao\AppData\Local\Temp\ccRdM6zw.s 			page 78


 3104              	.LVL323:
 827:Core/Src/GUI.c **** 	LCD_DrawPoint(x+4,y);
 3105              		.loc 1 827 2 view .LVU823
 3106 0066 2146     		mov	r1, r4
 3107 0068 3846     		mov	r0, r7
 3108 006a FFF7FEFF 		bl	LCD_DrawPoint
 3109              	.LVL324:
 828:Core/Src/GUI.c **** 	LCD_DrawPoint(x+4,y+1);
 3110              		.loc 1 828 2 view .LVU824
 3111 006e 5146     		mov	r1, r10
 3112 0070 3846     		mov	r0, r7
 3113 0072 FFF7FEFF 		bl	LCD_DrawPoint
 3114              	.LVL325:
 829:Core/Src/GUI.c **** 	LCD_DrawPoint(x-1,y+4);
 3115              		.loc 1 829 2 view .LVU825
 3116 0076 211D     		adds	r1, r4, #4
 3117 0078 89B2     		uxth	r1, r1
 3118 007a 4846     		mov	r0, r9
 3119 007c FFF7FEFF 		bl	LCD_DrawPoint
 3120              	.LVL326:
 830:Core/Src/GUI.c **** 	LCD_WR_DATA(POINT_COLOR);
 3121              		.loc 1 830 2 view .LVU826
 3122 0080 3088     		ldrh	r0, [r6]
 3123 0082 FFF7FEFF 		bl	LCD_WR_DATA
 3124              	.LVL327:
 831:Core/Src/GUI.c **** 	LCD_WR_DATA(POINT_COLOR);
 3125              		.loc 1 831 2 view .LVU827
 3126 0086 3088     		ldrh	r0, [r6]
 3127 0088 FFF7FEFF 		bl	LCD_WR_DATA
 3128              	.LVL328:
 832:Core/Src/GUI.c **** 	LCD_Fill(x-3,y-3,x+3,y+3, color);
 3129              		.loc 1 832 2 view .LVU828
 3130 008c E31C     		adds	r3, r4, #3
 3131 008e EA1C     		adds	r2, r5, #3
 3132 0090 E11E     		subs	r1, r4, #3
 3133 0092 E81E     		subs	r0, r5, #3
 3134 0094 CDF80080 		str	r8, [sp]
 3135 0098 9BB2     		uxth	r3, r3
 3136 009a 92B2     		uxth	r2, r2
 3137 009c 89B2     		uxth	r1, r1
 3138 009e 80B2     		uxth	r0, r0
 3139 00a0 FFF7FEFF 		bl	LCD_Fill
 3140              	.LVL329:
 833:Core/Src/GUI.c **** }
 3141              		.loc 1 833 1 is_stmt 0 view .LVU829
 3142 00a4 03B0     		add	sp, sp, #12
 3143              	.LCFI45:
 3144              		.cfi_def_cfa_offset 36
 3145              		@ sp needed
 3146 00a6 BDE8F08F 		pop	{r4, r5, r6, r7, r8, r9, r10, fp, pc}
 3147              	.L221:
 3148 00aa 00BF     		.align	2
 3149              	.L220:
 3150 00ac 00000000 		.word	POINT_COLOR
 3151              		.cfi_endproc
 3152              	.LFE150:
 3154              		.section	.text.Draw_TextBox,"ax",%progbits
ARM GAS  C:\Users\savao\AppData\Local\Temp\ccRdM6zw.s 			page 79


 3155              		.align	1
 3156              		.global	Draw_TextBox
 3157              		.syntax unified
 3158              		.thumb
 3159              		.thumb_func
 3160              		.fpu fpv4-sp-d16
 3162              	Draw_TextBox:
 3163              	.LVL330:
 3164              	.LFB151:
 834:Core/Src/GUI.c **** 
 835:Core/Src/GUI.c **** /*******************************************************************
 836:Core/Src/GUI.c ****  * @name       :void Draw_TextBox(uint16_t xstart, uint16_t ystart, uint16_t xend, uint16_t yend)
 837:Core/Src/GUI.c ****  * @date       :2018-12-29 
 838:Core/Src/GUI.c ****  * @function   :Draw a text input box
 839:Core/Src/GUI.c ****  * @parameters :xstart:the bebinning x coordinate of the specified area
 840:Core/Src/GUI.c ****                 ystart:the bebinning y coordinate of the specified area
 841:Core/Src/GUI.c **** 								xend:the ending x coordinate of the specified area
 842:Core/Src/GUI.c **** 								yend:the ending y coordinate of the specified area
 843:Core/Src/GUI.c ****  * @retvalue   :None
 844:Core/Src/GUI.c **** ********************************************************************/
 845:Core/Src/GUI.c **** void Draw_TextBox(uint16_t xstart, uint16_t ystart, uint16_t xend, uint16_t yend)
 846:Core/Src/GUI.c **** {
 3165              		.loc 1 846 1 is_stmt 1 view -0
 3166              		.cfi_startproc
 3167              		@ args = 0, pretend = 0, frame = 8
 3168              		@ frame_needed = 0, uses_anonymous_args = 0
 3169              		.loc 1 846 1 is_stmt 0 view .LVU831
 3170 0000 2DE9F04F 		push	{r4, r5, r6, r7, r8, r9, r10, fp, lr}
 3171              	.LCFI46:
 3172              		.cfi_def_cfa_offset 36
 3173              		.cfi_offset 4, -36
 3174              		.cfi_offset 5, -32
 3175              		.cfi_offset 6, -28
 3176              		.cfi_offset 7, -24
 3177              		.cfi_offset 8, -20
 3178              		.cfi_offset 9, -16
 3179              		.cfi_offset 10, -12
 3180              		.cfi_offset 11, -8
 3181              		.cfi_offset 14, -4
 3182 0004 85B0     		sub	sp, sp, #20
 3183              	.LCFI47:
 3184              		.cfi_def_cfa_offset 56
 3185 0006 8246     		mov	r10, r0
 3186 0008 0E46     		mov	r6, r1
 3187 000a 1546     		mov	r5, r2
 3188 000c 1C46     		mov	r4, r3
 847:Core/Src/GUI.c **** 	POINT_COLOR=DARKGRAY;
 3189              		.loc 1 847 2 is_stmt 1 view .LVU832
 3190              		.loc 1 847 13 is_stmt 0 view .LVU833
 3191 000e DFF8BCB0 		ldr	fp, .L224
 3192 0012 48F21043 		movw	r3, #33808
 3193              	.LVL331:
 3194              		.loc 1 847 13 view .LVU834
 3195 0016 ABF80030 		strh	r3, [fp]	@ movhi
 848:Core/Src/GUI.c **** 	LCD_DrawLine(xstart, ystart, xend, ystart);//画顶部横线1
 3196              		.loc 1 848 2 is_stmt 1 view .LVU835
 3197 001a 0B46     		mov	r3, r1
ARM GAS  C:\Users\savao\AppData\Local\Temp\ccRdM6zw.s 			page 80


 3198 001c FFF7FEFF 		bl	LCD_DrawLine
 3199              	.LVL332:
 849:Core/Src/GUI.c **** 	LCD_DrawLine(xstart, ystart+1, xstart, yend);//画左面竖线1
 3200              		.loc 1 849 2 view .LVU836
 3201 0020 0296     		str	r6, [sp, #8]
 3202 0022 771C     		adds	r7, r6, #1
 3203 0024 BFB2     		uxth	r7, r7
 3204 0026 2346     		mov	r3, r4
 3205 0028 5246     		mov	r2, r10
 3206 002a 3946     		mov	r1, r7
 3207 002c 5046     		mov	r0, r10
 3208 002e FFF7FEFF 		bl	LCD_DrawLine
 3209              	.LVL333:
 850:Core/Src/GUI.c **** 	POINT_COLOR=BLACK;
 3210              		.loc 1 850 2 view .LVU837
 3211              		.loc 1 850 13 is_stmt 0 view .LVU838
 3212 0032 0023     		movs	r3, #0
 3213 0034 ABF80030 		strh	r3, [fp]	@ movhi
 851:Core/Src/GUI.c **** 	LCD_DrawLine(xstart+1, ystart+1, xend-1, ystart+1);//画顶部横线2
 3214              		.loc 1 851 2 is_stmt 1 view .LVU839
 3215 0038 0AF10109 		add	r9, r10, #1
 3216 003c 1FFA89F9 		uxth	r9, r9
 3217 0040 6E1E     		subs	r6, r5, #1
 3218 0042 B6B2     		uxth	r6, r6
 3219 0044 3B46     		mov	r3, r7
 3220 0046 3246     		mov	r2, r6
 3221 0048 3946     		mov	r1, r7
 3222 004a 4846     		mov	r0, r9
 3223 004c FFF7FEFF 		bl	LCD_DrawLine
 3224              	.LVL334:
 852:Core/Src/GUI.c **** 	LCD_DrawLine(xstart+1, ystart+2, xstart+1, yend-1);//画左面竖线2
 3225              		.loc 1 852 2 view .LVU840
 3226 0050 029B     		ldr	r3, [sp, #8]
 3227 0052 0233     		adds	r3, r3, #2
 3228 0054 98B2     		uxth	r0, r3
 3229 0056 04F1FF38 		add	r8, r4, #-1
 3230 005a 1FFA88F8 		uxth	r8, r8
 3231 005e 4346     		mov	r3, r8
 3232 0060 4A46     		mov	r2, r9
 3233 0062 0390     		str	r0, [sp, #12]
 3234 0064 0146     		mov	r1, r0
 3235 0066 4846     		mov	r0, r9
 3236 0068 FFF7FEFF 		bl	LCD_DrawLine
 3237              	.LVL335:
 853:Core/Src/GUI.c **** 	POINT_COLOR=WHITE;
 3238              		.loc 1 853 2 view .LVU841
 3239              		.loc 1 853 13 is_stmt 0 view .LVU842
 3240 006c 4FF0FF32 		mov	r2, #-1	@ movhi
 3241 0070 ABF80020 		strh	r2, [fp]	@ movhi
 854:Core/Src/GUI.c **** 	LCD_DrawLine(xstart, yend, xend, yend);//画底部横线1
 3242              		.loc 1 854 2 is_stmt 1 view .LVU843
 3243 0074 2346     		mov	r3, r4
 3244 0076 2A46     		mov	r2, r5
 3245 0078 2146     		mov	r1, r4
 3246 007a 5046     		mov	r0, r10
 3247 007c FFF7FEFF 		bl	LCD_DrawLine
 3248              	.LVL336:
ARM GAS  C:\Users\savao\AppData\Local\Temp\ccRdM6zw.s 			page 81


 855:Core/Src/GUI.c **** 	LCD_DrawLine(xend, ystart, xend, yend);//画右面竖线1
 3249              		.loc 1 855 2 view .LVU844
 3250 0080 2346     		mov	r3, r4
 3251 0082 2A46     		mov	r2, r5
 3252 0084 0299     		ldr	r1, [sp, #8]
 3253 0086 2846     		mov	r0, r5
 3254 0088 FFF7FEFF 		bl	LCD_DrawLine
 3255              	.LVL337:
 856:Core/Src/GUI.c **** 	POINT_COLOR=LGRAY;
 3256              		.loc 1 856 2 view .LVU845
 3257              		.loc 1 856 13 is_stmt 0 view .LVU846
 3258 008c 4CF21863 		movw	r3, #50712
 3259 0090 ABF80030 		strh	r3, [fp]	@ movhi
 857:Core/Src/GUI.c **** 	LCD_DrawLine(xstart+1, yend-1, xend-1, yend-1);//画底部横线2
 3260              		.loc 1 857 2 is_stmt 1 view .LVU847
 3261 0094 4346     		mov	r3, r8
 3262 0096 3246     		mov	r2, r6
 3263 0098 4146     		mov	r1, r8
 3264 009a 4846     		mov	r0, r9
 3265 009c FFF7FEFF 		bl	LCD_DrawLine
 3266              	.LVL338:
 858:Core/Src/GUI.c **** 	LCD_DrawLine(xend-1, ystart+1, xend-1, yend-1);//画右面竖线2
 3267              		.loc 1 858 2 view .LVU848
 3268 00a0 4346     		mov	r3, r8
 3269 00a2 3246     		mov	r2, r6
 3270 00a4 3946     		mov	r1, r7
 3271 00a6 3046     		mov	r0, r6
 3272 00a8 FFF7FEFF 		bl	LCD_DrawLine
 3273              	.LVL339:
 859:Core/Src/GUI.c **** 	LCD_Fill(xstart+2, ystart+2, xend-2, yend-2,WHITE);	
 3274              		.loc 1 859 2 view .LVU849
 3275 00ac A31E     		subs	r3, r4, #2
 3276 00ae AA1E     		subs	r2, r5, #2
 3277 00b0 0AF10200 		add	r0, r10, #2
 3278 00b4 4FF6FF74 		movw	r4, #65535
 3279 00b8 0094     		str	r4, [sp]
 3280 00ba 9BB2     		uxth	r3, r3
 3281 00bc 92B2     		uxth	r2, r2
 3282 00be 0399     		ldr	r1, [sp, #12]
 3283 00c0 80B2     		uxth	r0, r0
 3284 00c2 FFF7FEFF 		bl	LCD_Fill
 3285              	.LVL340:
 860:Core/Src/GUI.c **** }
 3286              		.loc 1 860 1 is_stmt 0 view .LVU850
 3287 00c6 05B0     		add	sp, sp, #20
 3288              	.LCFI48:
 3289              		.cfi_def_cfa_offset 36
 3290              		@ sp needed
 3291 00c8 BDE8F08F 		pop	{r4, r5, r6, r7, r8, r9, r10, fp, pc}
 3292              	.L225:
 3293              		.align	2
 3294              	.L224:
 3295 00cc 00000000 		.word	POINT_COLOR
 3296              		.cfi_endproc
 3297              	.LFE151:
 3299              		.section	.text.EscButton,"ax",%progbits
 3300              		.align	1
ARM GAS  C:\Users\savao\AppData\Local\Temp\ccRdM6zw.s 			page 82


 3301              		.global	EscButton
 3302              		.syntax unified
 3303              		.thumb
 3304              		.thumb_func
 3305              		.fpu fpv4-sp-d16
 3307              	EscButton:
 3308              	.LVL341:
 3309              	.LFB153:
 861:Core/Src/GUI.c **** 
 862:Core/Src/GUI.c **** /*******************************************************************
 863:Core/Src/GUI.c ****  * @name       :void Draw_Button(uint16_t xstart,uint16_t ystart,uint16_t xend,uint16_t yend)
 864:Core/Src/GUI.c ****  * @date       :2018-12-29 
 865:Core/Src/GUI.c ****  * @function   :Draw a button
 866:Core/Src/GUI.c ****  * @parameters :xstart:the bebinning x coordinate of the button
 867:Core/Src/GUI.c ****                 ystart:the bebinning y coordinate of the button
 868:Core/Src/GUI.c **** 								xend:the ending x coordinate of the button
 869:Core/Src/GUI.c **** 								yend:the ending y coordinate of the button
 870:Core/Src/GUI.c ****  * @retvalue   :None
 871:Core/Src/GUI.c **** ********************************************************************/
 872:Core/Src/GUI.c **** void Draw_Button(uint16_t xstart,uint16_t ystart,uint16_t xend,uint16_t yend)
 873:Core/Src/GUI.c **** {
 874:Core/Src/GUI.c **** 	EscButton(xstart, ystart, xend, yend);
 875:Core/Src/GUI.c **** 	LCD_Fill(xstart+2, ystart+2, xend-2, yend-2,LGRAY);//填充中间颜色
 876:Core/Src/GUI.c **** }
 877:Core/Src/GUI.c **** 
 878:Core/Src/GUI.c **** /*******************************************************************
 879:Core/Src/GUI.c ****  * @name       :void EscButton(uint16_t xstart,uint16_t ystart,uint8_t xend,uint16_t yend)
 880:Core/Src/GUI.c ****  * @date       :2018-12-29 
 881:Core/Src/GUI.c ****  * @function   :Draw a Esc button
 882:Core/Src/GUI.c ****  * @parameters :xstart:the bebinning x coordinate of the button
 883:Core/Src/GUI.c ****                 ystart:the bebinning y coordinate of the button
 884:Core/Src/GUI.c **** 								xend:the ending x coordinate of the button
 885:Core/Src/GUI.c **** 								yend:the ending y coordinate of the button
 886:Core/Src/GUI.c ****  * @retvalue   :None
 887:Core/Src/GUI.c **** ********************************************************************/
 888:Core/Src/GUI.c **** void EscButton(uint16_t xstart,uint16_t ystart,uint8_t xend,uint16_t yend)
 889:Core/Src/GUI.c **** {
 3310              		.loc 1 889 1 is_stmt 1 view -0
 3311              		.cfi_startproc
 3312              		@ args = 0, pretend = 0, frame = 8
 3313              		@ frame_needed = 0, uses_anonymous_args = 0
 3314              		.loc 1 889 1 is_stmt 0 view .LVU852
 3315 0000 2DE9F04F 		push	{r4, r5, r6, r7, r8, r9, r10, fp, lr}
 3316              	.LCFI49:
 3317              		.cfi_def_cfa_offset 36
 3318              		.cfi_offset 4, -36
 3319              		.cfi_offset 5, -32
 3320              		.cfi_offset 6, -28
 3321              		.cfi_offset 7, -24
 3322              		.cfi_offset 8, -20
 3323              		.cfi_offset 9, -16
 3324              		.cfi_offset 10, -12
 3325              		.cfi_offset 11, -8
 3326              		.cfi_offset 14, -4
 3327 0004 83B0     		sub	sp, sp, #12
 3328              	.LCFI50:
 3329              		.cfi_def_cfa_offset 48
ARM GAS  C:\Users\savao\AppData\Local\Temp\ccRdM6zw.s 			page 83


 3330 0006 8246     		mov	r10, r0
 3331 0008 0E46     		mov	r6, r1
 3332 000a 1D46     		mov	r5, r3
 890:Core/Src/GUI.c **** 	POINT_COLOR=LGRAY;
 3333              		.loc 1 890 2 is_stmt 1 view .LVU853
 3334              		.loc 1 890 13 is_stmt 0 view .LVU854
 3335 000c DFF89CB0 		ldr	fp, .L228
 3336 0010 4CF21863 		movw	r3, #50712
 3337              	.LVL342:
 3338              		.loc 1 890 13 view .LVU855
 3339 0014 ABF80030 		strh	r3, [fp]	@ movhi
 891:Core/Src/GUI.c **** 	LCD_DrawLine(xstart, ystart, xend, ystart);//画顶部横线1
 3340              		.loc 1 891 2 is_stmt 1 view .LVU856
 3341 0018 1446     		mov	r4, r2
 3342 001a 0B46     		mov	r3, r1
 3343 001c FFF7FEFF 		bl	LCD_DrawLine
 3344              	.LVL343:
 892:Core/Src/GUI.c **** 	LCD_DrawLine(xstart, ystart, xstart, yend);//画左边竖线1
 3345              		.loc 1 892 2 view .LVU857
 3346 0020 2B46     		mov	r3, r5
 3347 0022 5246     		mov	r2, r10
 3348 0024 3146     		mov	r1, r6
 3349 0026 5046     		mov	r0, r10
 3350 0028 FFF7FEFF 		bl	LCD_DrawLine
 3351              	.LVL344:
 893:Core/Src/GUI.c **** 	POINT_COLOR=WHITE;
 3352              		.loc 1 893 2 view .LVU858
 3353              		.loc 1 893 13 is_stmt 0 view .LVU859
 3354 002c 4FF6FF73 		movw	r3, #65535
 3355 0030 ABF80030 		strh	r3, [fp]	@ movhi
 894:Core/Src/GUI.c **** 	LCD_DrawLine(xstart+1, ystart+1, xend-1, ystart+1);//画顶部横线2
 3356              		.loc 1 894 2 is_stmt 1 view .LVU860
 3357 0034 0AF10109 		add	r9, r10, #1
 3358 0038 1FFA89F9 		uxth	r9, r9
 3359 003c 0196     		str	r6, [sp, #4]
 3360 003e 771C     		adds	r7, r6, #1
 3361 0040 BFB2     		uxth	r7, r7
 3362 0042 661E     		subs	r6, r4, #1
 3363 0044 B6B2     		uxth	r6, r6
 3364 0046 3B46     		mov	r3, r7
 3365 0048 3246     		mov	r2, r6
 3366 004a 3946     		mov	r1, r7
 3367 004c 4846     		mov	r0, r9
 3368 004e FFF7FEFF 		bl	LCD_DrawLine
 3369              	.LVL345:
 895:Core/Src/GUI.c **** 	LCD_DrawLine(xstart+1, ystart+1, xstart+1, yend-1);//画左边竖线2
 3370              		.loc 1 895 2 view .LVU861
 3371 0052 05F1FF38 		add	r8, r5, #-1
 3372 0056 1FFA88F8 		uxth	r8, r8
 3373 005a 4346     		mov	r3, r8
 3374 005c 4A46     		mov	r2, r9
 3375 005e 3946     		mov	r1, r7
 3376 0060 4846     		mov	r0, r9
 3377 0062 FFF7FEFF 		bl	LCD_DrawLine
 3378              	.LVL346:
 896:Core/Src/GUI.c **** 	POINT_COLOR=BLACK;
 3379              		.loc 1 896 2 view .LVU862
ARM GAS  C:\Users\savao\AppData\Local\Temp\ccRdM6zw.s 			page 84


 3380              		.loc 1 896 13 is_stmt 0 view .LVU863
 3381 0066 0023     		movs	r3, #0
 3382 0068 ABF80030 		strh	r3, [fp]	@ movhi
 897:Core/Src/GUI.c **** 	LCD_DrawLine(xstart, yend, xend, yend);//画底部横线1
 3383              		.loc 1 897 2 is_stmt 1 view .LVU864
 3384 006c 2B46     		mov	r3, r5
 3385 006e 2246     		mov	r2, r4
 3386 0070 2946     		mov	r1, r5
 3387 0072 5046     		mov	r0, r10
 3388 0074 FFF7FEFF 		bl	LCD_DrawLine
 3389              	.LVL347:
 898:Core/Src/GUI.c **** 	LCD_DrawLine(xend, ystart, xend, yend);//画右边竖线1
 3390              		.loc 1 898 2 view .LVU865
 3391 0078 2B46     		mov	r3, r5
 3392 007a 2246     		mov	r2, r4
 3393 007c 0199     		ldr	r1, [sp, #4]
 3394 007e 2046     		mov	r0, r4
 3395 0080 FFF7FEFF 		bl	LCD_DrawLine
 3396              	.LVL348:
 899:Core/Src/GUI.c **** 	POINT_COLOR=DARKGRAY;
 3397              		.loc 1 899 2 view .LVU866
 3398              		.loc 1 899 13 is_stmt 0 view .LVU867
 3399 0084 48F21043 		movw	r3, #33808
 3400 0088 ABF80030 		strh	r3, [fp]	@ movhi
 900:Core/Src/GUI.c **** 	LCD_DrawLine(xstart+1, yend-1, xend-1, yend-1);//画底部横线2
 3401              		.loc 1 900 2 is_stmt 1 view .LVU868
 3402 008c 4346     		mov	r3, r8
 3403 008e 3246     		mov	r2, r6
 3404 0090 4146     		mov	r1, r8
 3405 0092 4846     		mov	r0, r9
 3406 0094 FFF7FEFF 		bl	LCD_DrawLine
 3407              	.LVL349:
 901:Core/Src/GUI.c **** 	LCD_DrawLine(xend-1, ystart+1, xend-1, yend-1);//画右边竖线2
 3408              		.loc 1 901 2 view .LVU869
 3409 0098 4346     		mov	r3, r8
 3410 009a 3246     		mov	r2, r6
 3411 009c 3946     		mov	r1, r7
 3412 009e 3046     		mov	r0, r6
 3413 00a0 FFF7FEFF 		bl	LCD_DrawLine
 3414              	.LVL350:
 902:Core/Src/GUI.c **** }
 3415              		.loc 1 902 1 is_stmt 0 view .LVU870
 3416 00a4 03B0     		add	sp, sp, #12
 3417              	.LCFI51:
 3418              		.cfi_def_cfa_offset 36
 3419              		@ sp needed
 3420 00a6 BDE8F08F 		pop	{r4, r5, r6, r7, r8, r9, r10, fp, pc}
 3421              	.L229:
 3422 00aa 00BF     		.align	2
 3423              	.L228:
 3424 00ac 00000000 		.word	POINT_COLOR
 3425              		.cfi_endproc
 3426              	.LFE153:
 3428              		.section	.text.Draw_Button,"ax",%progbits
 3429              		.align	1
 3430              		.global	Draw_Button
 3431              		.syntax unified
ARM GAS  C:\Users\savao\AppData\Local\Temp\ccRdM6zw.s 			page 85


 3432              		.thumb
 3433              		.thumb_func
 3434              		.fpu fpv4-sp-d16
 3436              	Draw_Button:
 3437              	.LVL351:
 3438              	.LFB152:
 873:Core/Src/GUI.c **** 	EscButton(xstart, ystart, xend, yend);
 3439              		.loc 1 873 1 is_stmt 1 view -0
 3440              		.cfi_startproc
 3441              		@ args = 0, pretend = 0, frame = 0
 3442              		@ frame_needed = 0, uses_anonymous_args = 0
 873:Core/Src/GUI.c **** 	EscButton(xstart, ystart, xend, yend);
 3443              		.loc 1 873 1 is_stmt 0 view .LVU872
 3444 0000 F0B5     		push	{r4, r5, r6, r7, lr}
 3445              	.LCFI52:
 3446              		.cfi_def_cfa_offset 20
 3447              		.cfi_offset 4, -20
 3448              		.cfi_offset 5, -16
 3449              		.cfi_offset 6, -12
 3450              		.cfi_offset 7, -8
 3451              		.cfi_offset 14, -4
 3452 0002 83B0     		sub	sp, sp, #12
 3453              	.LCFI53:
 3454              		.cfi_def_cfa_offset 32
 3455 0004 0546     		mov	r5, r0
 3456 0006 0E46     		mov	r6, r1
 3457 0008 1446     		mov	r4, r2
 3458 000a 1F46     		mov	r7, r3
 874:Core/Src/GUI.c **** 	LCD_Fill(xstart+2, ystart+2, xend-2, yend-2,LGRAY);//填充中间颜色
 3459              		.loc 1 874 2 is_stmt 1 view .LVU873
 3460 000c D2B2     		uxtb	r2, r2
 3461              	.LVL352:
 874:Core/Src/GUI.c **** 	LCD_Fill(xstart+2, ystart+2, xend-2, yend-2,LGRAY);//填充中间颜色
 3462              		.loc 1 874 2 is_stmt 0 view .LVU874
 3463 000e FFF7FEFF 		bl	EscButton
 3464              	.LVL353:
 875:Core/Src/GUI.c **** }
 3465              		.loc 1 875 2 is_stmt 1 view .LVU875
 3466 0012 BB1E     		subs	r3, r7, #2
 3467 0014 A21E     		subs	r2, r4, #2
 3468 0016 B11C     		adds	r1, r6, #2
 3469 0018 A81C     		adds	r0, r5, #2
 3470 001a 4CF21864 		movw	r4, #50712
 3471 001e 0094     		str	r4, [sp]
 3472 0020 9BB2     		uxth	r3, r3
 3473 0022 92B2     		uxth	r2, r2
 3474 0024 89B2     		uxth	r1, r1
 3475 0026 80B2     		uxth	r0, r0
 3476 0028 FFF7FEFF 		bl	LCD_Fill
 3477              	.LVL354:
 876:Core/Src/GUI.c **** 
 3478              		.loc 1 876 1 is_stmt 0 view .LVU876
 3479 002c 03B0     		add	sp, sp, #12
 3480              	.LCFI54:
 3481              		.cfi_def_cfa_offset 20
 3482              		@ sp needed
 3483 002e F0BD     		pop	{r4, r5, r6, r7, pc}
ARM GAS  C:\Users\savao\AppData\Local\Temp\ccRdM6zw.s 			page 86


 3484              		.cfi_endproc
 3485              	.LFE152:
 3487              		.section	.text.SetButton,"ax",%progbits
 3488              		.align	1
 3489              		.global	SetButton
 3490              		.syntax unified
 3491              		.thumb
 3492              		.thumb_func
 3493              		.fpu fpv4-sp-d16
 3495              	SetButton:
 3496              	.LVL355:
 3497              	.LFB154:
 903:Core/Src/GUI.c **** 
 904:Core/Src/GUI.c **** /*******************************************************************
 905:Core/Src/GUI.c ****  * @name       :void SetButton(uint8_t xstart,uint16_t ystart,uint8_t xend,uint16_t yend)
 906:Core/Src/GUI.c ****  * @date       :2018-12-29 
 907:Core/Src/GUI.c ****  * @function   :Set a button
 908:Core/Src/GUI.c ****  * @parameters :xstart:the bebinning x coordinate of the button
 909:Core/Src/GUI.c ****                 ystart:the bebinning y coordinate of the button
 910:Core/Src/GUI.c **** 								xend:the ending x coordinate of the button
 911:Core/Src/GUI.c **** 								yend:the ending y coordinate of the button
 912:Core/Src/GUI.c ****  * @retvalue   :None
 913:Core/Src/GUI.c **** ********************************************************************/
 914:Core/Src/GUI.c **** void SetButton(uint8_t xstart,uint16_t ystart,uint8_t xend,uint16_t yend)
 915:Core/Src/GUI.c **** {
 3498              		.loc 1 915 1 is_stmt 1 view -0
 3499              		.cfi_startproc
 3500              		@ args = 0, pretend = 0, frame = 8
 3501              		@ frame_needed = 0, uses_anonymous_args = 0
 3502              		.loc 1 915 1 is_stmt 0 view .LVU878
 3503 0000 2DE9F04F 		push	{r4, r5, r6, r7, r8, r9, r10, fp, lr}
 3504              	.LCFI55:
 3505              		.cfi_def_cfa_offset 36
 3506              		.cfi_offset 4, -36
 3507              		.cfi_offset 5, -32
 3508              		.cfi_offset 6, -28
 3509              		.cfi_offset 7, -24
 3510              		.cfi_offset 8, -20
 3511              		.cfi_offset 9, -16
 3512              		.cfi_offset 10, -12
 3513              		.cfi_offset 11, -8
 3514              		.cfi_offset 14, -4
 3515 0004 83B0     		sub	sp, sp, #12
 3516              	.LCFI56:
 3517              		.cfi_def_cfa_offset 48
 3518 0006 0F46     		mov	r7, r1
 3519 0008 1D46     		mov	r5, r3
 916:Core/Src/GUI.c **** 	POINT_COLOR=BLACK;
 3520              		.loc 1 916 2 is_stmt 1 view .LVU879
 3521              		.loc 1 916 13 is_stmt 0 view .LVU880
 3522 000a DFF8A0A0 		ldr	r10, .L234
 3523 000e 0023     		movs	r3, #0
 3524              	.LVL356:
 3525              		.loc 1 916 13 view .LVU881
 3526 0010 AAF80030 		strh	r3, [r10]	@ movhi
 917:Core/Src/GUI.c **** 	LCD_DrawLine(xstart, ystart, xend, ystart);//画顶部横线1
 3527              		.loc 1 917 2 is_stmt 1 view .LVU882
ARM GAS  C:\Users\savao\AppData\Local\Temp\ccRdM6zw.s 			page 87


 3528 0014 0646     		mov	r6, r0
 3529 0016 1446     		mov	r4, r2
 3530 0018 0B46     		mov	r3, r1
 3531 001a FFF7FEFF 		bl	LCD_DrawLine
 3532              	.LVL357:
 918:Core/Src/GUI.c **** 	LCD_DrawLine(xstart, ystart, xstart, yend);//画左边竖线1
 3533              		.loc 1 918 2 view .LVU883
 3534 001e 2B46     		mov	r3, r5
 3535 0020 3246     		mov	r2, r6
 3536 0022 3946     		mov	r1, r7
 3537 0024 3046     		mov	r0, r6
 3538 0026 FFF7FEFF 		bl	LCD_DrawLine
 3539              	.LVL358:
 919:Core/Src/GUI.c **** 	POINT_COLOR=DARKGRAY;
 3540              		.loc 1 919 2 view .LVU884
 3541              		.loc 1 919 13 is_stmt 0 view .LVU885
 3542 002a 48F21043 		movw	r3, #33808
 3543 002e AAF80030 		strh	r3, [r10]	@ movhi
 920:Core/Src/GUI.c **** 	LCD_DrawLine(xstart+1, ystart+1, xend-1, ystart+1);//画顶部横线2
 3544              		.loc 1 920 2 is_stmt 1 view .LVU886
 3545 0032 06F1010B 		add	fp, r6, #1
 3546 0036 0197     		str	r7, [sp, #4]
 3547 0038 07F10108 		add	r8, r7, #1
 3548 003c 1FFA88F8 		uxth	r8, r8
 3549 0040 671E     		subs	r7, r4, #1
 3550 0042 BFB2     		uxth	r7, r7
 3551 0044 4346     		mov	r3, r8
 3552 0046 3A46     		mov	r2, r7
 3553 0048 4146     		mov	r1, r8
 3554 004a 5846     		mov	r0, fp
 3555 004c FFF7FEFF 		bl	LCD_DrawLine
 3556              	.LVL359:
 921:Core/Src/GUI.c **** 	LCD_DrawLine(xstart+1, ystart+1, xstart+1, yend-1);//画左边竖线2
 3557              		.loc 1 921 2 view .LVU887
 3558 0050 05F1FF39 		add	r9, r5, #-1
 3559 0054 1FFA89F9 		uxth	r9, r9
 3560 0058 4B46     		mov	r3, r9
 3561 005a 5A46     		mov	r2, fp
 3562 005c 4146     		mov	r1, r8
 3563 005e 5846     		mov	r0, fp
 3564 0060 FFF7FEFF 		bl	LCD_DrawLine
 3565              	.LVL360:
 922:Core/Src/GUI.c **** 	POINT_COLOR=LGRAY;
 3566              		.loc 1 922 2 view .LVU888
 3567              		.loc 1 922 13 is_stmt 0 view .LVU889
 3568 0064 4CF21863 		movw	r3, #50712
 3569 0068 AAF80030 		strh	r3, [r10]	@ movhi
 923:Core/Src/GUI.c **** 	LCD_DrawLine(xstart+1, yend-1, xend-1, yend-1);//画底部横线1
 3570              		.loc 1 923 2 is_stmt 1 view .LVU890
 3571 006c 4B46     		mov	r3, r9
 3572 006e 3A46     		mov	r2, r7
 3573 0070 4946     		mov	r1, r9
 3574 0072 5846     		mov	r0, fp
 3575 0074 FFF7FEFF 		bl	LCD_DrawLine
 3576              	.LVL361:
 924:Core/Src/GUI.c **** 	LCD_DrawLine(xend-1, ystart+1, xend-1, yend-1);//画右边竖线1	
 3577              		.loc 1 924 2 view .LVU891
ARM GAS  C:\Users\savao\AppData\Local\Temp\ccRdM6zw.s 			page 88


 3578 0078 4B46     		mov	r3, r9
 3579 007a 3A46     		mov	r2, r7
 3580 007c 4146     		mov	r1, r8
 3581 007e 3846     		mov	r0, r7
 3582 0080 FFF7FEFF 		bl	LCD_DrawLine
 3583              	.LVL362:
 925:Core/Src/GUI.c **** 	POINT_COLOR=WHITE;
 3584              		.loc 1 925 2 view .LVU892
 3585              		.loc 1 925 13 is_stmt 0 view .LVU893
 3586 0084 4FF6FF73 		movw	r3, #65535
 3587 0088 AAF80030 		strh	r3, [r10]	@ movhi
 926:Core/Src/GUI.c **** 	LCD_DrawLine(xstart, yend, xend, yend);//画底部横线2
 3588              		.loc 1 926 2 is_stmt 1 view .LVU894
 3589 008c 2B46     		mov	r3, r5
 3590 008e 2246     		mov	r2, r4
 3591 0090 2946     		mov	r1, r5
 3592 0092 3046     		mov	r0, r6
 3593 0094 FFF7FEFF 		bl	LCD_DrawLine
 3594              	.LVL363:
 927:Core/Src/GUI.c **** 	LCD_DrawLine(xend, ystart, xend, yend);//画右边竖线2
 3595              		.loc 1 927 2 view .LVU895
 3596 0098 2B46     		mov	r3, r5
 3597 009a 2246     		mov	r2, r4
 3598 009c 0199     		ldr	r1, [sp, #4]
 3599 009e 2046     		mov	r0, r4
 3600 00a0 FFF7FEFF 		bl	LCD_DrawLine
 3601              	.LVL364:
 928:Core/Src/GUI.c **** }
 3602              		.loc 1 928 1 is_stmt 0 view .LVU896
 3603 00a4 03B0     		add	sp, sp, #12
 3604              	.LCFI57:
 3605              		.cfi_def_cfa_offset 36
 3606              		@ sp needed
 3607 00a6 BDE8F08F 		pop	{r4, r5, r6, r7, r8, r9, r10, fp, pc}
 3608              	.L235:
 3609 00aa 00BF     		.align	2
 3610              	.L234:
 3611 00ac 00000000 		.word	POINT_COLOR
 3612              		.cfi_endproc
 3613              	.LFE154:
 3615              		.section	.text.Draw_DirectButton,"ax",%progbits
 3616              		.align	1
 3617              		.global	Draw_DirectButton
 3618              		.syntax unified
 3619              		.thumb
 3620              		.thumb_func
 3621              		.fpu fpv4-sp-d16
 3623              	Draw_DirectButton:
 3624              	.LVL365:
 3625              	.LFB155:
 929:Core/Src/GUI.c **** 
 930:Core/Src/GUI.c **** /*******************************************************************
 931:Core/Src/GUI.c ****  * @name       :void Draw_DirectButton(uint16_t xstart, uint16_t ystart)
 932:Core/Src/GUI.c ****  * @date       :2018-12-29 
 933:Core/Src/GUI.c ****  * @function   :Set a direct button
 934:Core/Src/GUI.c ****  * @parameters :xstart:the bebinning x coordinate of the button
 935:Core/Src/GUI.c ****                 ystart:the bebinning y coordinate of the button
ARM GAS  C:\Users\savao\AppData\Local\Temp\ccRdM6zw.s 			page 89


 936:Core/Src/GUI.c ****  * @retvalue   :None
 937:Core/Src/GUI.c **** ********************************************************************/
 938:Core/Src/GUI.c **** void Draw_DirectButton(uint16_t xstart, uint16_t ystart)
 939:Core/Src/GUI.c **** {
 3626              		.loc 1 939 1 is_stmt 1 view -0
 3627              		.cfi_startproc
 3628              		@ args = 0, pretend = 0, frame = 0
 3629              		@ frame_needed = 0, uses_anonymous_args = 0
 3630              		.loc 1 939 1 is_stmt 0 view .LVU898
 3631 0000 F8B5     		push	{r3, r4, r5, r6, r7, lr}
 3632              	.LCFI58:
 3633              		.cfi_def_cfa_offset 24
 3634              		.cfi_offset 3, -24
 3635              		.cfi_offset 4, -20
 3636              		.cfi_offset 5, -16
 3637              		.cfi_offset 6, -12
 3638              		.cfi_offset 7, -8
 3639              		.cfi_offset 14, -4
 3640 0002 0446     		mov	r4, r0
 3641 0004 0D46     		mov	r5, r1
 940:Core/Src/GUI.c **** 	POINT_COLOR=BLACK;
 3642              		.loc 1 940 2 is_stmt 1 view .LVU899
 3643              		.loc 1 940 13 is_stmt 0 view .LVU900
 3644 0006 204B     		ldr	r3, .L238
 3645 0008 0022     		movs	r2, #0
 3646 000a 1A80     		strh	r2, [r3]	@ movhi
 941:Core/Src/GUI.c **** 	LCD_DrawLine(xstart+6, ystart+8, xstart+14, ystart+8);
 3647              		.loc 1 941 2 is_stmt 1 view .LVU901
 3648 000c 0831     		adds	r1, r1, #8
 3649              	.LVL366:
 3650              		.loc 1 941 2 is_stmt 0 view .LVU902
 3651 000e 89B2     		uxth	r1, r1
 3652 0010 00F10E02 		add	r2, r0, #14
 3653 0014 0630     		adds	r0, r0, #6
 3654              	.LVL367:
 3655              		.loc 1 941 2 view .LVU903
 3656 0016 0B46     		mov	r3, r1
 3657 0018 92B2     		uxth	r2, r2
 3658 001a 80B2     		uxth	r0, r0
 3659 001c FFF7FEFF 		bl	LCD_DrawLine
 3660              	.LVL368:
 942:Core/Src/GUI.c **** 	LCD_DrawLine(xstart+7, ystart+9, xstart+13, ystart+9);
 3661              		.loc 1 942 2 is_stmt 1 view .LVU904
 3662 0020 05F10901 		add	r1, r5, #9
 3663 0024 89B2     		uxth	r1, r1
 3664 0026 04F10D02 		add	r2, r4, #13
 3665 002a E01D     		adds	r0, r4, #7
 3666 002c 0B46     		mov	r3, r1
 3667 002e 92B2     		uxth	r2, r2
 3668 0030 80B2     		uxth	r0, r0
 3669 0032 FFF7FEFF 		bl	LCD_DrawLine
 3670              	.LVL369:
 943:Core/Src/GUI.c **** 	LCD_DrawLine(xstart+8, ystart+10, xstart+12, ystart+10);
 3671              		.loc 1 943 2 view .LVU905
 3672 0036 05F10A01 		add	r1, r5, #10
 3673 003a 89B2     		uxth	r1, r1
 3674 003c 04F10C02 		add	r2, r4, #12
ARM GAS  C:\Users\savao\AppData\Local\Temp\ccRdM6zw.s 			page 90


 3675 0040 04F10800 		add	r0, r4, #8
 3676 0044 0B46     		mov	r3, r1
 3677 0046 92B2     		uxth	r2, r2
 3678 0048 80B2     		uxth	r0, r0
 3679 004a FFF7FEFF 		bl	LCD_DrawLine
 3680              	.LVL370:
 944:Core/Src/GUI.c **** 	LCD_DrawPoint(xstart+9,ystart+11);LCD_DrawPoint(xstart+10,ystart+11);LCD_DrawPoint(xstart+11,ystar
 3681              		.loc 1 944 2 view .LVU906
 3682 004e 05F10B06 		add	r6, r5, #11
 3683 0052 B6B2     		uxth	r6, r6
 3684 0054 04F10900 		add	r0, r4, #9
 3685 0058 3146     		mov	r1, r6
 3686 005a 80B2     		uxth	r0, r0
 3687 005c FFF7FEFF 		bl	LCD_DrawPoint
 3688              	.LVL371:
 3689              		.loc 1 944 36 view .LVU907
 3690 0060 04F10A07 		add	r7, r4, #10
 3691 0064 BFB2     		uxth	r7, r7
 3692 0066 3146     		mov	r1, r6
 3693 0068 3846     		mov	r0, r7
 3694 006a FFF7FEFF 		bl	LCD_DrawPoint
 3695              	.LVL372:
 3696              		.loc 1 944 71 view .LVU908
 3697 006e 04F10B00 		add	r0, r4, #11
 3698 0072 3146     		mov	r1, r6
 3699 0074 80B2     		uxth	r0, r0
 3700 0076 FFF7FEFF 		bl	LCD_DrawPoint
 3701              	.LVL373:
 945:Core/Src/GUI.c **** 	LCD_DrawPoint(xstart+10,ystart+12);
 3702              		.loc 1 945 2 view .LVU909
 3703 007a 05F10C01 		add	r1, r5, #12
 3704 007e 89B2     		uxth	r1, r1
 3705 0080 3846     		mov	r0, r7
 3706 0082 FFF7FEFF 		bl	LCD_DrawPoint
 3707              	.LVL374:
 946:Core/Src/GUI.c **** }
 3708              		.loc 1 946 1 is_stmt 0 view .LVU910
 3709 0086 F8BD     		pop	{r3, r4, r5, r6, r7, pc}
 3710              	.L239:
 3711              		.align	2
 3712              	.L238:
 3713 0088 00000000 		.word	POINT_COLOR
 3714              		.cfi_endproc
 3715              	.LFE155:
 3717              		.section	.text.Draw_Window,"ax",%progbits
 3718              		.align	1
 3719              		.global	Draw_Window
 3720              		.syntax unified
 3721              		.thumb
 3722              		.thumb_func
 3723              		.fpu fpv4-sp-d16
 3725              	Draw_Window:
 3726              	.LVL375:
 3727              	.LFB156:
 947:Core/Src/GUI.c **** 
 948:Core/Src/GUI.c **** /*******************************************************************
 949:Core/Src/GUI.c ****  * @name       :void Draw_Window(uint16_t xstart,uint16_t ystart,uint16_t xend,uint16_t yend,uint8_
ARM GAS  C:\Users\savao\AppData\Local\Temp\ccRdM6zw.s 			page 91


 950:Core/Src/GUI.c ****  * @date       :2018-12-29 
 951:Core/Src/GUI.c ****  * @function   :Set a window
 952:Core/Src/GUI.c ****  * @parameters :xstart:the bebinning x coordinate of the window
 953:Core/Src/GUI.c ****                 ystart:the bebinning y coordinate of the window
 954:Core/Src/GUI.c **** 								xend:the ending x coordinate of the window
 955:Core/Src/GUI.c **** 								yend:the ending y coordinate of the window
 956:Core/Src/GUI.c **** 								caption:the text of the window
 957:Core/Src/GUI.c ****  * @retvalue   :None
 958:Core/Src/GUI.c **** ********************************************************************/
 959:Core/Src/GUI.c **** void Draw_Window(uint16_t xstart,uint16_t ystart,uint16_t xend,uint16_t yend,uint8_t* caption)
 960:Core/Src/GUI.c **** {
 3728              		.loc 1 960 1 is_stmt 1 view -0
 3729              		.cfi_startproc
 3730              		@ args = 4, pretend = 0, frame = 0
 3731              		@ frame_needed = 0, uses_anonymous_args = 0
 3732              		.loc 1 960 1 is_stmt 0 view .LVU912
 3733 0000 2DE9F043 		push	{r4, r5, r6, r7, r8, r9, lr}
 3734              	.LCFI59:
 3735              		.cfi_def_cfa_offset 28
 3736              		.cfi_offset 4, -28
 3737              		.cfi_offset 5, -24
 3738              		.cfi_offset 6, -20
 3739              		.cfi_offset 7, -16
 3740              		.cfi_offset 8, -12
 3741              		.cfi_offset 9, -8
 3742              		.cfi_offset 14, -4
 3743 0004 85B0     		sub	sp, sp, #20
 3744              	.LCFI60:
 3745              		.cfi_def_cfa_offset 48
 3746 0006 0646     		mov	r6, r0
 3747 0008 0C46     		mov	r4, r1
 3748 000a 1546     		mov	r5, r2
 3749 000c 1F46     		mov	r7, r3
 961:Core/Src/GUI.c **** 	Draw_Button(xstart, ystart, xend, yend);   // 显示主体窗口
 3750              		.loc 1 961 2 is_stmt 1 view .LVU913
 3751 000e FFF7FEFF 		bl	Draw_Button
 3752              	.LVL376:
 962:Core/Src/GUI.c **** 	LCD_Fill(xstart+3, ystart+3, xend-3, ystart+25, DARKBLUE);	 // 显示标题栏
 3753              		.loc 1 962 2 view .LVU914
 3754 0012 06F10308 		add	r8, r6, #3
 3755 0016 1FFA88F8 		uxth	r8, r8
 3756 001a 033D     		subs	r5, r5, #3
 3757 001c ADB2     		uxth	r5, r5
 3758 001e 04F11903 		add	r3, r4, #25
 3759 0022 E11C     		adds	r1, r4, #3
 3760 0024 40F2CF19 		movw	r9, #463
 3761 0028 CDF80090 		str	r9, [sp]
 3762 002c 9BB2     		uxth	r3, r3
 3763 002e 2A46     		mov	r2, r5
 3764 0030 89B2     		uxth	r1, r1
 3765 0032 4046     		mov	r0, r8
 3766 0034 FFF7FEFF 		bl	LCD_Fill
 3767              	.LVL377:
 963:Core/Src/GUI.c **** 	Draw_TextBox(xstart+3, ystart+29, xend-3, yend-3); // 显示文本输入区
 3768              		.loc 1 963 2 view .LVU915
 3769 0038 FB1E     		subs	r3, r7, #3
 3770 003a 04F11D01 		add	r1, r4, #29
ARM GAS  C:\Users\savao\AppData\Local\Temp\ccRdM6zw.s 			page 92


 3771 003e 9BB2     		uxth	r3, r3
 3772 0040 2A46     		mov	r2, r5
 3773 0042 89B2     		uxth	r1, r1
 3774 0044 4046     		mov	r0, r8
 3775 0046 FFF7FEFF 		bl	Draw_TextBox
 3776              	.LVL378:
 964:Core/Src/GUI.c **** 	POINT_COLOR = WHITE;
 3777              		.loc 1 964 2 view .LVU916
 3778              		.loc 1 964 14 is_stmt 0 view .LVU917
 3779 004a 4FF6FF72 		movw	r2, #65535
 3780 004e 0A4B     		ldr	r3, .L242
 3781 0050 1A80     		strh	r2, [r3]	@ movhi
 965:Core/Src/GUI.c **** 	BACK_COLOR = DARKBLUE;
 3782              		.loc 1 965 2 is_stmt 1 view .LVU918
 3783              		.loc 1 965 13 is_stmt 0 view .LVU919
 3784 0052 0A4B     		ldr	r3, .L242+4
 3785 0054 A3F80090 		strh	r9, [r3]	@ movhi
 966:Core/Src/GUI.c **** 	Show_Str(xstart+5, ystart+6,POINT_COLOR,BACK_COLOR,caption,16,1);
 3786              		.loc 1 966 2 is_stmt 1 view .LVU920
 3787 0058 A11D     		adds	r1, r4, #6
 3788 005a 701D     		adds	r0, r6, #5
 3789 005c 0123     		movs	r3, #1
 3790 005e 0293     		str	r3, [sp, #8]
 3791 0060 1023     		movs	r3, #16
 3792 0062 0193     		str	r3, [sp, #4]
 3793 0064 0C9B     		ldr	r3, [sp, #48]
 3794 0066 0093     		str	r3, [sp]
 3795 0068 4B46     		mov	r3, r9
 3796 006a 89B2     		uxth	r1, r1
 3797 006c 80B2     		uxth	r0, r0
 3798 006e FFF7FEFF 		bl	Show_Str
 3799              	.LVL379:
 967:Core/Src/GUI.c **** 
 968:Core/Src/GUI.c **** }
 3800              		.loc 1 968 1 is_stmt 0 view .LVU921
 3801 0072 05B0     		add	sp, sp, #20
 3802              	.LCFI61:
 3803              		.cfi_def_cfa_offset 28
 3804              		@ sp needed
 3805 0074 BDE8F083 		pop	{r4, r5, r6, r7, r8, r9, pc}
 3806              	.LVL380:
 3807              	.L243:
 3808              		.loc 1 968 1 view .LVU922
 3809              		.align	2
 3810              	.L242:
 3811 0078 00000000 		.word	POINT_COLOR
 3812 007c 00000000 		.word	BACK_COLOR
 3813              		.cfi_endproc
 3814              	.LFE156:
 3816              		.global	tfont32
 3817              		.global	tfont24
 3818              		.global	tfont16
 3819              		.global	asc2_1608
 3820              		.global	asc2_1206
 3821              		.section	.rodata.asc2_1206,"a"
 3822              		.align	2
 3823              		.set	.LANCHOR0,. + 0
ARM GAS  C:\Users\savao\AppData\Local\Temp\ccRdM6zw.s 			page 93


 3826              	asc2_1206:
 3827 0000 00000000 		.ascii	"\000\000\000\000\000\000\000\000\000\000\000\000"
 3827      00000000 
 3827      00000000 
 3828 000c 00002020 		.ascii	"\000\000      \000 \000\000"
 3828      20202020 
 3828      00200000 
 3829 0018 00285050 		.ascii	"\000(PP\000\000\000\000\000\000\000\000"
 3829      00000000 
 3829      00000000 
 3830 0024 00002828 		.ascii	"\000\000((\374(P\374PP\000\000"
 3830      FC2850FC 
 3830      50500000 
 3831 0030 002078A8 		.ascii	"\000 x\250\240`0(\250\360 \000"
 3831      A0603028 
 3831      A8F02000 
 3832 003c 000048A8 		.ascii	"\000\000H\250\260P(4TH\000\000"
 3832      B0502834 
 3832      54480000 
 3833 0048 00002050 		.ascii	"\000\000 PPx\250\250\220l\000\000"
 3833      5078A8A8 
 3833      906C0000 
 3834 0054 00404080 		.ascii	"\000@@\200\000\000\000\000\000\000\000\000"
 3834      00000000 
 3834      00000000 
 3835 0060 00040810 		.ascii	"\000\004\010\020\020\020\020\020\020\010\004\000"
 3835      10101010 
 3835      10080400 
 3836 006c 00402010 		.ascii	"\000@ \020\020\020\020\020\020 @\000"
 3836      10101010 
 3836      10204000 
 3837 0078 00000020 		.ascii	"\000\000\000 \250pp\250 \000\000\000"
 3837      A87070A8 
 3837      20000000 
 3838 0084 00002020 		.ascii	"\000\000   \370   \000\000\000"
 3838      20F82020 
 3838      20000000 
 3839 0090 00000000 		.ascii	"\000\000\000\000\000\000\000\000\000@@\200"
 3839      00000000 
 3839      00404080 
 3840 009c 00000000 		.ascii	"\000\000\000\000\000\370\000\000\000\000\000\000"
 3840      00F80000 
 3840      00000000 
 3841 00a8 00000000 		.ascii	"\000\000\000\000\000\000\000\000\000@\000\000"
 3841      00000000 
 3841      00400000 
 3842 00b4 00081010 		.ascii	"\000\010\020\020\020  @@@\200\000"
 3842      10202040 
 3842      40408000 
 3843 00c0 00007088 		.ascii	"\000\000p\210\210\210\210\210\210p\000\000"
 3843      88888888 
 3843      88700000 
 3844 00cc 00002060 		.ascii	"\000\000 `     p\000\000"
 3844      20202020 
 3844      20700000 
 3845 00d8 00007088 		.ascii	"\000\000p\210\210\020 @\200\370\000\000"
 3845      88102040 
ARM GAS  C:\Users\savao\AppData\Local\Temp\ccRdM6zw.s 			page 94


 3845      80F80000 
 3846 00e4 00007088 		.ascii	"\000\000p\210\0100\010\010\210p\000\000"
 3846      08300808 
 3846      88700000 
 3847 00f0 00001030 		.ascii	"\000\000\0200PP\220x\020\030\000\000"
 3847      50509078 
 3847      10180000 
 3848 00fc 0000F880 		.ascii	"\000\000\370\200\200\360\010\010\210p\000\000"
 3848      80F00808 
 3848      88700000 
 3849 0108 00007090 		.ascii	"\000\000p\220\200\360\210\210\210p\000\000"
 3849      80F08888 
 3849      88700000 
 3850 0114 0000F890 		.ascii	"\000\000\370\220\020     \000\000"
 3850      10202020 
 3850      20200000 
 3851 0120 00007088 		.ascii	"\000\000p\210\210p\210\210\210p\000\000"
 3851      88708888 
 3851      88700000 
 3852 012c 00007088 		.ascii	"\000\000p\210\210\210x\010Hp\000\000"
 3852      88887808 
 3852      48700000 
 3853 0138 00000000 		.ascii	"\000\000\000\000 \000\000\000\000 \000\000"
 3853      20000000 
 3853      00200000 
 3854 0144 00000000 		.ascii	"\000\000\000\000\000 \000\000\000  \000"
 3854      00200000 
 3854      00202000 
 3855 0150 00040810 		.ascii	"\000\004\010\020 @ \020\010\004\000\000"
 3855      20402010 
 3855      08040000 
 3856 015c 00000000 		.ascii	"\000\000\000\000\370\000\000\370\000\000\000\000"
 3856      F80000F8 
 3856      00000000 
 3857 0168 00402010 		.ascii	"\000@ \020\010\004\010\020 @\000\000"
 3857      08040810 
 3857      20400000 
 3858 0174 00007088 		.ascii	"\000\000p\210\210\020  \000 \000\000"
 3858      88102020 
 3858      00200000 
 3859 0180 00007088 		.ascii	"\000\000p\210\230\250\250\270\200x\000\000"
 3859      98A8A8B8 
 3859      80780000 
 3860 018c 00002020 		.ascii	"\000\000  0PPxH\314\000\000"
 3860      30505078 
 3860      48CC0000 
 3861 0198 0000F048 		.ascii	"\000\000\360HHpHHH\360\000\000"
 3861      48704848 
 3861      48F00000 
 3862 01a4 00007888 		.ascii	"\000\000x\210\200\200\200\200\210p\000\000"
 3862      80808080 
 3862      88700000 
 3863 01b0 0000F048 		.ascii	"\000\000\360HHHHHH\360\000\000"
 3863      48484848 
 3863      48F00000 
 3864 01bc 0000F848 		.ascii	"\000\000\370HPpP@H\370\000\000"
 3864      50705040 
ARM GAS  C:\Users\savao\AppData\Local\Temp\ccRdM6zw.s 			page 95


 3864      48F80000 
 3865 01c8 0000F848 		.ascii	"\000\000\370HPpP@@\340\000\000"
 3865      50705040 
 3865      40E00000 
 3866 01d4 00003848 		.ascii	"\000\0008H\200\200\234\210H0\000\000"
 3866      80809C88 
 3866      48300000 
 3867 01e0 0000CC48 		.ascii	"\000\000\314HHxHHH\314\000\000"
 3867      48784848 
 3867      48CC0000 
 3868 01ec 0000F820 		.ascii	"\000\000\370      \370\000\000"
 3868      20202020 
 3868      20F80000 
 3869 01f8 00007C10 		.ascii	"\000\000|\020\020\020\020\020\020\220\340\000"
 3869      10101010 
 3869      1090E000 
 3870 0204 0000EC48 		.ascii	"\000\000\354HP`PPH\354\000\000"
 3870      50605050 
 3870      48EC0000 
 3871 0210 0000E040 		.ascii	"\000\000\340@@@@@D\374\000\000"
 3871      40404040 
 3871      44FC0000 
 3872 021c 0000D8D8 		.ascii	"\000\000\330\330\330\330\250\250\250\250\000\000"
 3872      D8D8A8A8 
 3872      A8A80000 
 3873 0228 0000DC48 		.ascii	"\000\000\334HhhXXH\350\000\000"
 3873      68685858 
 3873      48E80000 
 3874 0234 00007088 		.ascii	"\000\000p\210\210\210\210\210\210p\000\000"
 3874      88888888 
 3874      88700000 
 3875 0240 0000F048 		.ascii	"\000\000\360HHp@@@\340\000\000"
 3875      48704040 
 3875      40E00000 
 3876 024c 00007088 		.ascii	"\000\000p\210\210\210\210\350\230p\030\000"
 3876      888888E8 
 3876      98701800 
 3877 0258 0000F048 		.ascii	"\000\000\360HHpPHH\354\000\000"
 3877      48705048 
 3877      48EC0000 
 3878 0264 00007888 		.ascii	"\000\000x\210\200`\020\010\210\360\000\000"
 3878      80601008 
 3878      88F00000 
 3879 0270 0000F8A8 		.ascii	"\000\000\370\250     p\000\000"
 3879      20202020 
 3879      20700000 
 3880 027c 0000CC48 		.ascii	"\000\000\314HHHHHH0\000\000"
 3880      48484848 
 3880      48300000 
 3881 0288 0000CC48 		.ascii	"\000\000\314HHPP0  \000\000"
 3881      48505030 
 3881      20200000 
 3882 0294 0000A8A8 		.ascii	"\000\000\250\250\250pPPPP\000\000"
 3882      A8705050 
 3882      50500000 
 3883 02a0 0000D850 		.ascii	"\000\000\330PP  PP\330\000\000"
 3883      50202050 
ARM GAS  C:\Users\savao\AppData\Local\Temp\ccRdM6zw.s 			page 96


 3883      50D80000 
 3884 02ac 0000D850 		.ascii	"\000\000\330PP    p\000\000"
 3884      50202020 
 3884      20700000 
 3885 02b8 0000F890 		.ascii	"\000\000\370\220\020  @H\370\000\000"
 3885      10202040 
 3885      48F80000 
 3886 02c4 00382020 		.ascii	"\0008        8\000"
 3886      20202020 
 3886      20203800 
 3887 02d0 00404040 		.ascii	"\000@@@  \020\020\020\010\000\000"
 3887      20201010 
 3887      10080000 
 3888 02dc 00701010 		.ascii	"\000p\020\020\020\020\020\020\020\020p\000"
 3888      10101010 
 3888      10107000 
 3889 02e8 00205000 		.ascii	"\000 P\000\000\000\000\000\000\000\000\000"
 3889      00000000 
 3889      00000000 
 3890 02f4 00000000 		.ascii	"\000\000\000\000\000\000\000\000\000\000\000\374"
 3890      00000000 
 3890      000000FC 
 3891 0300 00200000 		.ascii	"\000 \000\000\000\000\000\000\000\000\000\000"
 3891      00000000 
 3891      00000000 
 3892 030c 00000000 		.ascii	"\000\000\000\000\0000H8H<\000\000"
 3892      00304838 
 3892      483C0000 
 3893 0318 0000C040 		.ascii	"\000\000\300@@pHHHp\000\000"
 3893      40704848 
 3893      48700000 
 3894 0324 00000000 		.ascii	"\000\000\000\000\0008H@@8\000\000"
 3894      00384840 
 3894      40380000 
 3895 0330 00001808 		.ascii	"\000\000\030\010\0108HHH<\000\000"
 3895      08384848 
 3895      483C0000 
 3896 033c 00000000 		.ascii	"\000\000\000\000\0000Hx@8\000\000"
 3896      00304878 
 3896      40380000 
 3897 0348 00001C20 		.ascii	"\000\000\034  x   x\000\000"
 3897      20782020 
 3897      20780000 
 3898 0354 00000000 		.ascii	"\000\000\000\000\000<H0@xD8"
 3898      003C4830 
 3898      40784438 
 3899 0360 0000C040 		.ascii	"\000\000\300@@pHHH\354\000\000"
 3899      40704848 
 3899      48EC0000 
 3900 036c 00002000 		.ascii	"\000\000 \000\000`   p\000\000"
 3900      00602020 
 3900      20700000 
 3901 0378 00001000 		.ascii	"\000\000\020\000\0000\020\020\020\020\020\340"
 3901      00301010 
 3901      101010E0 
 3902 0384 0000C040 		.ascii	"\000\000\300@@\\PpH\354\000\000"
 3902      405C5070 
ARM GAS  C:\Users\savao\AppData\Local\Temp\ccRdM6zw.s 			page 97


 3902      48EC0000 
 3903 0390 0000E020 		.ascii	"\000\000\340      \370\000\000"
 3903      20202020 
 3903      20F80000 
 3904 039c 00000000 		.ascii	"\000\000\000\000\000\360\250\250\250\250\000\000"
 3904      00F0A8A8 
 3904      A8A80000 
 3905 03a8 00000000 		.ascii	"\000\000\000\000\000\360HHH\354\000\000"
 3905      00F04848 
 3905      48EC0000 
 3906 03b4 00000000 		.ascii	"\000\000\000\000\0000HHH0\000\000"
 3906      00304848 
 3906      48300000 
 3907 03c0 00000000 		.ascii	"\000\000\000\000\000\360HHHp@\340"
 3907      00F04848 
 3907      487040E0 
 3908 03cc 00000000 		.ascii	"\000\000\000\000\0008HHH8\010\034"
 3908      00384848 
 3908      4838081C 
 3909 03d8 00000000 		.ascii	"\000\000\000\000\000\330`@@\340\000\000"
 3909      00D86040 
 3909      40E00000 
 3910 03e4 00000000 		.ascii	"\000\000\000\000\000x@0\010x\000\000"
 3910      00784030 
 3910      08780000 
 3911 03f0 00000020 		.ascii	"\000\000\000  p   \030\000\000"
 3911      20702020 
 3911      20180000 
 3912 03fc 00000000 		.ascii	"\000\000\000\000\000\330HHH<\000\000"
 3912      00D84848 
 3912      483C0000 
 3913 0408 00000000 		.ascii	"\000\000\000\000\000\354HP0 \000\000"
 3913      00EC4850 
 3913      30200000 
 3914 0414 00000000 		.ascii	"\000\000\000\000\000\250\250pPP\000\000"
 3914      00A8A870 
 3914      50500000 
 3915 0420 00000000 		.ascii	"\000\000\000\000\000\330P P\330\000\000"
 3915      00D85020 
 3915      50D80000 
 3916 042c 00000000 		.ascii	"\000\000\000\000\000\354HP0  \300"
 3916      00EC4850 
 3916      302020C0 
 3917 0438 00000000 		.ascii	"\000\000\000\000\000x\020  x\000\000"
 3917      00781020 
 3917      20780000 
 3918 0444 00181010 		.ascii	"\000\030\020\020\020 \020\020\020\020\030\000"
 3918      10201010 
 3918      10101800 
 3919 0450 10101010 		.ascii	"\020\020\020\020\020\020\020\020\020\020\020\020"
 3919      10101010 
 3919      10101010 
 3920 045c 00602020 		.ascii	"\000`   \020    `\000"
 3920      20102020 
 3920      20206000 
 3921 0468 40A41800 		.ascii	"@\244\030\000\000\000\000\000\000\000\000\000"
 3921      00000000 
ARM GAS  C:\Users\savao\AppData\Local\Temp\ccRdM6zw.s 			page 98


 3921      00000000 
 3922              		.section	.rodata.asc2_1608,"a"
 3923              		.align	2
 3924              		.set	.LANCHOR1,. + 0
 3927              	asc2_1608:
 3928 0000 00000000 		.ascii	"\000\000\000\000\000\000\000\000\000\000\000\000\000"
 3928      00000000 
 3928      00000000 
 3928      00
 3929 000d 000000   		.ascii	"\000\000\000"
 3930 0010 00000010 		.ascii	"\000\000\000\020\020\020\020\020\020\020\000\000\030"
 3930      10101010 
 3930      10100000 
 3930      18
 3931 001d 180000   		.ascii	"\030\000\000"
 3932 0020 00123624 		.ascii	"\000\0226$H\000\000\000\000\000\000\000\000\000\000"
 3932      48000000 
 3932      00000000 
 3932      000000
 3933 002f 00       		.ascii	"\000"
 3934 0030 00000024 		.ascii	"\000\000\000$$$\376HHH\376HHH\000\000"
 3934      2424FE48 
 3934      4848FE48 
 3934      48480000 
 3935 0040 00001038 		.ascii	"\000\000\0208TTP0\030\024\024TT8\020\020"
 3935      54545030 
 3935      18141454 
 3935      54381010 
 3936 0050 00000044 		.ascii	"\000\000\000D\244\250\250\250T\032***D\000\000"
 3936      A4A8A8A8 
 3936      541A2A2A 
 3936      2A440000 
 3937 0060 00000030 		.ascii	"\000\000\0000HHHPn\244\224\210\211v\000\000"
 3937      48484850 
 3937      6EA49488 
 3937      89760000 
 3938 0070 00606020 		.ascii	"\000`` \300\000\000\000\000\000\000\000\000\000\000"
 3938      C0000000 
 3938      00000000 
 3938      000000
 3939 007f 00       		.ascii	"\000"
 3940 0080 00020408 		.ascii	"\000\002\004\010\010\020\020\020\020\020\020\010\010"
 3940      08101010 
 3940      10101008 
 3940      08
 3941 008d 040200   		.ascii	"\004\002\000"
 3942 0090 00402010 		.ascii	"\000@ \020\020\010\010\010\010\010\010\020\020 @\000"
 3942      10080808 
 3942      08080810 
 3942      10204000 
 3943 00a0 00000000 		.ascii	"\000\000\000\000\020\020\32688\326\020\020\000\000\000"
 3943      1010D638 
 3943      38D61010 
 3943      000000
 3944 00af 00       		.ascii	"\000"
 3945 00b0 00000000 		.ascii	"\000\000\000\000\020\020\020\020\376\020\020\020\020"
 3945      10101010 
ARM GAS  C:\Users\savao\AppData\Local\Temp\ccRdM6zw.s 			page 99


 3945      FE101010 
 3945      10
 3946 00bd 000000   		.ascii	"\000\000\000"
 3947 00c0 00000000 		.ascii	"\000\000\000\000\000\000\000\000\000\000\000\000`` "
 3947      00000000 
 3947      00000000 
 3947      606020
 3948 00cf C0       		.ascii	"\300"
 3949 00d0 00000000 		.ascii	"\000\000\000\000\000\000\000\000\177\000\000\000\000"
 3949      00000000 
 3949      7F000000 
 3949      00
 3950 00dd 000000   		.ascii	"\000\000\000"
 3951 00e0 00000000 		.ascii	"\000\000\000\000\000\000\000\000\000\000\000\000``\000"
