ARM GAS  /tmp/cc5XfcFW.s 			page 1


   1              		.cpu cortex-m4
   2              		.eabi_attribute 27, 1
   3              		.eabi_attribute 28, 1
   4              		.eabi_attribute 20, 1
   5              		.eabi_attribute 21, 1
   6              		.eabi_attribute 23, 3
   7              		.eabi_attribute 24, 1
   8              		.eabi_attribute 25, 1
   9              		.eabi_attribute 26, 1
  10              		.eabi_attribute 30, 1
  11              		.eabi_attribute 34, 1
  12              		.eabi_attribute 18, 4
  13              		.file	"stm32f4xx_usart.c"
  14              		.text
  15              	.Ltext0:
  16              		.cfi_sections	.debug_frame
  17              		.section	.text.USART_DeInit,"ax",%progbits
  18              		.align	1
  19              		.global	USART_DeInit
  20              		.arch armv7e-m
  21              		.syntax unified
  22              		.thumb
  23              		.thumb_func
  24              		.fpu fpv4-sp-d16
  26              	USART_DeInit:
  27              	.LVL0:
  28              	.LFB130:
  29              		.file 1 "Drivers/STM32F4xx_FWLIB/src/stm32f4xx_usart.c"
   1:Drivers/STM32F4xx_FWLIB/src/stm32f4xx_usart.c **** /**
   2:Drivers/STM32F4xx_FWLIB/src/stm32f4xx_usart.c ****   ******************************************************************************
   3:Drivers/STM32F4xx_FWLIB/src/stm32f4xx_usart.c ****   * @file    stm32f4xx_usart.c
   4:Drivers/STM32F4xx_FWLIB/src/stm32f4xx_usart.c ****   * @author  MCD Application Team
   5:Drivers/STM32F4xx_FWLIB/src/stm32f4xx_usart.c ****   * @version V1.4.0
   6:Drivers/STM32F4xx_FWLIB/src/stm32f4xx_usart.c ****   * @date    04-August-2014
   7:Drivers/STM32F4xx_FWLIB/src/stm32f4xx_usart.c ****   * @brief   This file provides firmware functions to manage the following 
   8:Drivers/STM32F4xx_FWLIB/src/stm32f4xx_usart.c ****   *          functionalities of the Universal synchronous asynchronous receiver
   9:Drivers/STM32F4xx_FWLIB/src/stm32f4xx_usart.c ****   *          transmitter (USART):           
  10:Drivers/STM32F4xx_FWLIB/src/stm32f4xx_usart.c ****   *           + Initialization and Configuration
  11:Drivers/STM32F4xx_FWLIB/src/stm32f4xx_usart.c ****   *           + Data transfers
  12:Drivers/STM32F4xx_FWLIB/src/stm32f4xx_usart.c ****   *           + Multi-Processor Communication
  13:Drivers/STM32F4xx_FWLIB/src/stm32f4xx_usart.c ****   *           + LIN mode
  14:Drivers/STM32F4xx_FWLIB/src/stm32f4xx_usart.c ****   *           + Half-duplex mode
  15:Drivers/STM32F4xx_FWLIB/src/stm32f4xx_usart.c ****   *           + Smartcard mode
  16:Drivers/STM32F4xx_FWLIB/src/stm32f4xx_usart.c ****   *           + IrDA mode
  17:Drivers/STM32F4xx_FWLIB/src/stm32f4xx_usart.c ****   *           + DMA transfers management
  18:Drivers/STM32F4xx_FWLIB/src/stm32f4xx_usart.c ****   *           + Interrupts and flags management 
  19:Drivers/STM32F4xx_FWLIB/src/stm32f4xx_usart.c ****   *           
  20:Drivers/STM32F4xx_FWLIB/src/stm32f4xx_usart.c ****   @verbatim       
  21:Drivers/STM32F4xx_FWLIB/src/stm32f4xx_usart.c ****  ===============================================================================
  22:Drivers/STM32F4xx_FWLIB/src/stm32f4xx_usart.c ****                         ##### How to use this driver #####
  23:Drivers/STM32F4xx_FWLIB/src/stm32f4xx_usart.c ****  ===============================================================================
  24:Drivers/STM32F4xx_FWLIB/src/stm32f4xx_usart.c ****     [..]
  25:Drivers/STM32F4xx_FWLIB/src/stm32f4xx_usart.c ****       (#) Enable peripheral clock using the following functions
  26:Drivers/STM32F4xx_FWLIB/src/stm32f4xx_usart.c ****           RCC_APB2PeriphClockCmd(RCC_APB2Periph_USARTx, ENABLE) for USART1 and USART6 
  27:Drivers/STM32F4xx_FWLIB/src/stm32f4xx_usart.c ****           RCC_APB1PeriphClockCmd(RCC_APB1Periph_USARTx, ENABLE) for USART2, USART3, 
  28:Drivers/STM32F4xx_FWLIB/src/stm32f4xx_usart.c ****           UART4 or UART5.
  29:Drivers/STM32F4xx_FWLIB/src/stm32f4xx_usart.c ****   
ARM GAS  /tmp/cc5XfcFW.s 			page 2


  30:Drivers/STM32F4xx_FWLIB/src/stm32f4xx_usart.c ****       (#) According to the USART mode, enable the GPIO clocks using 
  31:Drivers/STM32F4xx_FWLIB/src/stm32f4xx_usart.c ****           RCC_AHB1PeriphClockCmd() function. (The I/O can be TX, RX, CTS, 
  32:Drivers/STM32F4xx_FWLIB/src/stm32f4xx_usart.c ****           or/and SCLK). 
  33:Drivers/STM32F4xx_FWLIB/src/stm32f4xx_usart.c ****   
  34:Drivers/STM32F4xx_FWLIB/src/stm32f4xx_usart.c ****       (#) Peripheral's alternate function: 
  35:Drivers/STM32F4xx_FWLIB/src/stm32f4xx_usart.c ****         (++) Connect the pin to the desired peripherals' Alternate 
  36:Drivers/STM32F4xx_FWLIB/src/stm32f4xx_usart.c ****             Function (AF) using GPIO_PinAFConfig() function
  37:Drivers/STM32F4xx_FWLIB/src/stm32f4xx_usart.c ****         (++) Configure the desired pin in alternate function by:
  38:Drivers/STM32F4xx_FWLIB/src/stm32f4xx_usart.c ****             GPIO_InitStruct->GPIO_Mode = GPIO_Mode_AF
  39:Drivers/STM32F4xx_FWLIB/src/stm32f4xx_usart.c ****         (++) Select the type, pull-up/pull-down and output speed via 
  40:Drivers/STM32F4xx_FWLIB/src/stm32f4xx_usart.c ****             GPIO_PuPd, GPIO_OType and GPIO_Speed members
  41:Drivers/STM32F4xx_FWLIB/src/stm32f4xx_usart.c ****         (++) Call GPIO_Init() function
  42:Drivers/STM32F4xx_FWLIB/src/stm32f4xx_usart.c ****           
  43:Drivers/STM32F4xx_FWLIB/src/stm32f4xx_usart.c ****       (#) Program the Baud Rate, Word Length , Stop Bit, Parity, Hardware 
  44:Drivers/STM32F4xx_FWLIB/src/stm32f4xx_usart.c ****           flow control and Mode(Receiver/Transmitter) using the USART_Init()
  45:Drivers/STM32F4xx_FWLIB/src/stm32f4xx_usart.c ****           function.
  46:Drivers/STM32F4xx_FWLIB/src/stm32f4xx_usart.c ****   
  47:Drivers/STM32F4xx_FWLIB/src/stm32f4xx_usart.c ****       (#) For synchronous mode, enable the clock and program the polarity,
  48:Drivers/STM32F4xx_FWLIB/src/stm32f4xx_usart.c ****           phase and last bit using the USART_ClockInit() function.
  49:Drivers/STM32F4xx_FWLIB/src/stm32f4xx_usart.c ****   
  50:Drivers/STM32F4xx_FWLIB/src/stm32f4xx_usart.c ****       (#) Enable the NVIC and the corresponding interrupt using the function 
  51:Drivers/STM32F4xx_FWLIB/src/stm32f4xx_usart.c ****          USART_ITConfig() if you need to use interrupt mode. 
  52:Drivers/STM32F4xx_FWLIB/src/stm32f4xx_usart.c ****   
  53:Drivers/STM32F4xx_FWLIB/src/stm32f4xx_usart.c ****       (#) When using the DMA mode 
  54:Drivers/STM32F4xx_FWLIB/src/stm32f4xx_usart.c ****         (++) Configure the DMA using DMA_Init() function
  55:Drivers/STM32F4xx_FWLIB/src/stm32f4xx_usart.c ****         (++) Active the needed channel Request using USART_DMACmd() function
  56:Drivers/STM32F4xx_FWLIB/src/stm32f4xx_usart.c ****    
  57:Drivers/STM32F4xx_FWLIB/src/stm32f4xx_usart.c ****       (#) Enable the USART using the USART_Cmd() function.
  58:Drivers/STM32F4xx_FWLIB/src/stm32f4xx_usart.c ****    
  59:Drivers/STM32F4xx_FWLIB/src/stm32f4xx_usart.c ****       (#) Enable the DMA using the DMA_Cmd() function, when using DMA mode. 
  60:Drivers/STM32F4xx_FWLIB/src/stm32f4xx_usart.c ****     
  61:Drivers/STM32F4xx_FWLIB/src/stm32f4xx_usart.c ****       -@- Refer to Multi-Processor, LIN, half-duplex, Smartcard, IrDA sub-sections
  62:Drivers/STM32F4xx_FWLIB/src/stm32f4xx_usart.c ****           for more details
  63:Drivers/STM32F4xx_FWLIB/src/stm32f4xx_usart.c ****     
  64:Drivers/STM32F4xx_FWLIB/src/stm32f4xx_usart.c ****     [..]        
  65:Drivers/STM32F4xx_FWLIB/src/stm32f4xx_usart.c ****     In order to reach higher communication baudrates, it is possible to
  66:Drivers/STM32F4xx_FWLIB/src/stm32f4xx_usart.c ****     enable the oversampling by 8 mode using the function USART_OverSampling8Cmd().
  67:Drivers/STM32F4xx_FWLIB/src/stm32f4xx_usart.c ****     This function should be called after enabling the USART clock (RCC_APBxPeriphClockCmd())
  68:Drivers/STM32F4xx_FWLIB/src/stm32f4xx_usart.c ****     and before calling the function USART_Init().
  69:Drivers/STM32F4xx_FWLIB/src/stm32f4xx_usart.c ****             
  70:Drivers/STM32F4xx_FWLIB/src/stm32f4xx_usart.c ****     @endverbatim        
  71:Drivers/STM32F4xx_FWLIB/src/stm32f4xx_usart.c ****   ******************************************************************************
  72:Drivers/STM32F4xx_FWLIB/src/stm32f4xx_usart.c ****   * @attention
  73:Drivers/STM32F4xx_FWLIB/src/stm32f4xx_usart.c ****   *
  74:Drivers/STM32F4xx_FWLIB/src/stm32f4xx_usart.c ****   * <h2><center>&copy; COPYRIGHT 2014 STMicroelectronics</center></h2>
  75:Drivers/STM32F4xx_FWLIB/src/stm32f4xx_usart.c ****   *
  76:Drivers/STM32F4xx_FWLIB/src/stm32f4xx_usart.c ****   * Licensed under MCD-ST Liberty SW License Agreement V2, (the "License");
  77:Drivers/STM32F4xx_FWLIB/src/stm32f4xx_usart.c ****   * You may not use this file except in compliance with the License.
  78:Drivers/STM32F4xx_FWLIB/src/stm32f4xx_usart.c ****   * You may obtain a copy of the License at:
  79:Drivers/STM32F4xx_FWLIB/src/stm32f4xx_usart.c ****   *
  80:Drivers/STM32F4xx_FWLIB/src/stm32f4xx_usart.c ****   *        http://www.st.com/software_license_agreement_liberty_v2
  81:Drivers/STM32F4xx_FWLIB/src/stm32f4xx_usart.c ****   *
  82:Drivers/STM32F4xx_FWLIB/src/stm32f4xx_usart.c ****   * Unless required by applicable law or agreed to in writing, software 
  83:Drivers/STM32F4xx_FWLIB/src/stm32f4xx_usart.c ****   * distributed under the License is distributed on an "AS IS" BASIS, 
  84:Drivers/STM32F4xx_FWLIB/src/stm32f4xx_usart.c ****   * WITHOUT WARRANTIES OR CONDITIONS OF ANY KIND, either express or implied.
  85:Drivers/STM32F4xx_FWLIB/src/stm32f4xx_usart.c ****   * See the License for the specific language governing permissions and
  86:Drivers/STM32F4xx_FWLIB/src/stm32f4xx_usart.c ****   * limitations under the License.
ARM GAS  /tmp/cc5XfcFW.s 			page 3


  87:Drivers/STM32F4xx_FWLIB/src/stm32f4xx_usart.c ****   *
  88:Drivers/STM32F4xx_FWLIB/src/stm32f4xx_usart.c ****   ******************************************************************************  
  89:Drivers/STM32F4xx_FWLIB/src/stm32f4xx_usart.c ****   */ 
  90:Drivers/STM32F4xx_FWLIB/src/stm32f4xx_usart.c **** 
  91:Drivers/STM32F4xx_FWLIB/src/stm32f4xx_usart.c **** /* Includes ------------------------------------------------------------------*/
  92:Drivers/STM32F4xx_FWLIB/src/stm32f4xx_usart.c **** #include "stm32f4xx_usart.h"
  93:Drivers/STM32F4xx_FWLIB/src/stm32f4xx_usart.c **** #include "stm32f4xx_rcc.h"
  94:Drivers/STM32F4xx_FWLIB/src/stm32f4xx_usart.c **** 
  95:Drivers/STM32F4xx_FWLIB/src/stm32f4xx_usart.c **** /** @addtogroup STM32F4xx_StdPeriph_Driver
  96:Drivers/STM32F4xx_FWLIB/src/stm32f4xx_usart.c ****   * @{
  97:Drivers/STM32F4xx_FWLIB/src/stm32f4xx_usart.c ****   */
  98:Drivers/STM32F4xx_FWLIB/src/stm32f4xx_usart.c **** 
  99:Drivers/STM32F4xx_FWLIB/src/stm32f4xx_usart.c **** /** @defgroup USART 
 100:Drivers/STM32F4xx_FWLIB/src/stm32f4xx_usart.c ****   * @brief USART driver modules
 101:Drivers/STM32F4xx_FWLIB/src/stm32f4xx_usart.c ****   * @{
 102:Drivers/STM32F4xx_FWLIB/src/stm32f4xx_usart.c ****   */
 103:Drivers/STM32F4xx_FWLIB/src/stm32f4xx_usart.c **** 
 104:Drivers/STM32F4xx_FWLIB/src/stm32f4xx_usart.c **** /* Private typedef -----------------------------------------------------------*/
 105:Drivers/STM32F4xx_FWLIB/src/stm32f4xx_usart.c **** /* Private define ------------------------------------------------------------*/
 106:Drivers/STM32F4xx_FWLIB/src/stm32f4xx_usart.c **** 
 107:Drivers/STM32F4xx_FWLIB/src/stm32f4xx_usart.c **** /*!< USART CR1 register clear Mask ((~(uint16_t)0xE9F3)) */
 108:Drivers/STM32F4xx_FWLIB/src/stm32f4xx_usart.c **** #define CR1_CLEAR_MASK            ((uint16_t)(USART_CR1_M | USART_CR1_PCE | \
 109:Drivers/STM32F4xx_FWLIB/src/stm32f4xx_usart.c ****                                               USART_CR1_PS | USART_CR1_TE | \
 110:Drivers/STM32F4xx_FWLIB/src/stm32f4xx_usart.c ****                                               USART_CR1_RE))
 111:Drivers/STM32F4xx_FWLIB/src/stm32f4xx_usart.c **** 
 112:Drivers/STM32F4xx_FWLIB/src/stm32f4xx_usart.c **** /*!< USART CR2 register clock bits clear Mask ((~(uint16_t)0xF0FF)) */
 113:Drivers/STM32F4xx_FWLIB/src/stm32f4xx_usart.c **** #define CR2_CLOCK_CLEAR_MASK      ((uint16_t)(USART_CR2_CLKEN | USART_CR2_CPOL | \
 114:Drivers/STM32F4xx_FWLIB/src/stm32f4xx_usart.c ****                                               USART_CR2_CPHA | USART_CR2_LBCL))
 115:Drivers/STM32F4xx_FWLIB/src/stm32f4xx_usart.c **** 
 116:Drivers/STM32F4xx_FWLIB/src/stm32f4xx_usart.c **** /*!< USART CR3 register clear Mask ((~(uint16_t)0xFCFF)) */
 117:Drivers/STM32F4xx_FWLIB/src/stm32f4xx_usart.c **** #define CR3_CLEAR_MASK            ((uint16_t)(USART_CR3_RTSE | USART_CR3_CTSE))
 118:Drivers/STM32F4xx_FWLIB/src/stm32f4xx_usart.c **** 
 119:Drivers/STM32F4xx_FWLIB/src/stm32f4xx_usart.c **** /*!< USART Interrupts mask */
 120:Drivers/STM32F4xx_FWLIB/src/stm32f4xx_usart.c **** #define IT_MASK                   ((uint16_t)0x001F)
 121:Drivers/STM32F4xx_FWLIB/src/stm32f4xx_usart.c **** 
 122:Drivers/STM32F4xx_FWLIB/src/stm32f4xx_usart.c **** /* Private macro -------------------------------------------------------------*/
 123:Drivers/STM32F4xx_FWLIB/src/stm32f4xx_usart.c **** /* Private variables ---------------------------------------------------------*/
 124:Drivers/STM32F4xx_FWLIB/src/stm32f4xx_usart.c **** /* Private function prototypes -----------------------------------------------*/
 125:Drivers/STM32F4xx_FWLIB/src/stm32f4xx_usart.c **** /* Private functions ---------------------------------------------------------*/
 126:Drivers/STM32F4xx_FWLIB/src/stm32f4xx_usart.c **** 
 127:Drivers/STM32F4xx_FWLIB/src/stm32f4xx_usart.c **** /** @defgroup USART_Private_Functions
 128:Drivers/STM32F4xx_FWLIB/src/stm32f4xx_usart.c ****   * @{
 129:Drivers/STM32F4xx_FWLIB/src/stm32f4xx_usart.c ****   */
 130:Drivers/STM32F4xx_FWLIB/src/stm32f4xx_usart.c **** 
 131:Drivers/STM32F4xx_FWLIB/src/stm32f4xx_usart.c **** /** @defgroup USART_Group1 Initialization and Configuration functions
 132:Drivers/STM32F4xx_FWLIB/src/stm32f4xx_usart.c ****  *  @brief   Initialization and Configuration functions 
 133:Drivers/STM32F4xx_FWLIB/src/stm32f4xx_usart.c ****  *
 134:Drivers/STM32F4xx_FWLIB/src/stm32f4xx_usart.c **** @verbatim   
 135:Drivers/STM32F4xx_FWLIB/src/stm32f4xx_usart.c ****  ===============================================================================
 136:Drivers/STM32F4xx_FWLIB/src/stm32f4xx_usart.c ****             ##### Initialization and Configuration functions #####
 137:Drivers/STM32F4xx_FWLIB/src/stm32f4xx_usart.c ****  ===============================================================================  
 138:Drivers/STM32F4xx_FWLIB/src/stm32f4xx_usart.c ****     [..]
 139:Drivers/STM32F4xx_FWLIB/src/stm32f4xx_usart.c ****     This subsection provides a set of functions allowing to initialize the USART 
 140:Drivers/STM32F4xx_FWLIB/src/stm32f4xx_usart.c ****     in asynchronous and in synchronous modes.
 141:Drivers/STM32F4xx_FWLIB/src/stm32f4xx_usart.c ****       (+) For the asynchronous mode only these parameters can be configured: 
 142:Drivers/STM32F4xx_FWLIB/src/stm32f4xx_usart.c ****         (++) Baud Rate
 143:Drivers/STM32F4xx_FWLIB/src/stm32f4xx_usart.c ****         (++) Word Length 
ARM GAS  /tmp/cc5XfcFW.s 			page 4


 144:Drivers/STM32F4xx_FWLIB/src/stm32f4xx_usart.c ****         (++) Stop Bit
 145:Drivers/STM32F4xx_FWLIB/src/stm32f4xx_usart.c ****         (++) Parity: If the parity is enabled, then the MSB bit of the data written
 146:Drivers/STM32F4xx_FWLIB/src/stm32f4xx_usart.c ****              in the data register is transmitted but is changed by the parity bit.
 147:Drivers/STM32F4xx_FWLIB/src/stm32f4xx_usart.c ****              Depending on the frame length defined by the M bit (8-bits or 9-bits),
 148:Drivers/STM32F4xx_FWLIB/src/stm32f4xx_usart.c ****              the possible USART frame formats are as listed in the following table:
 149:Drivers/STM32F4xx_FWLIB/src/stm32f4xx_usart.c ****    +-------------------------------------------------------------+     
 150:Drivers/STM32F4xx_FWLIB/src/stm32f4xx_usart.c ****    |   M bit |  PCE bit  |            USART frame                |
 151:Drivers/STM32F4xx_FWLIB/src/stm32f4xx_usart.c ****    |---------------------|---------------------------------------|             
 152:Drivers/STM32F4xx_FWLIB/src/stm32f4xx_usart.c ****    |    0    |    0      |    | SB | 8 bit data | STB |          |
 153:Drivers/STM32F4xx_FWLIB/src/stm32f4xx_usart.c ****    |---------|-----------|---------------------------------------|  
 154:Drivers/STM32F4xx_FWLIB/src/stm32f4xx_usart.c ****    |    0    |    1      |    | SB | 7 bit data | PB | STB |     |
 155:Drivers/STM32F4xx_FWLIB/src/stm32f4xx_usart.c ****    |---------|-----------|---------------------------------------|  
 156:Drivers/STM32F4xx_FWLIB/src/stm32f4xx_usart.c ****    |    1    |    0      |    | SB | 9 bit data | STB |          |
 157:Drivers/STM32F4xx_FWLIB/src/stm32f4xx_usart.c ****    |---------|-----------|---------------------------------------|  
 158:Drivers/STM32F4xx_FWLIB/src/stm32f4xx_usart.c ****    |    1    |    1      |    | SB | 8 bit data | PB | STB |     |
 159:Drivers/STM32F4xx_FWLIB/src/stm32f4xx_usart.c ****    +-------------------------------------------------------------+            
 160:Drivers/STM32F4xx_FWLIB/src/stm32f4xx_usart.c ****         (++) Hardware flow control
 161:Drivers/STM32F4xx_FWLIB/src/stm32f4xx_usart.c ****         (++) Receiver/transmitter modes
 162:Drivers/STM32F4xx_FWLIB/src/stm32f4xx_usart.c **** 
 163:Drivers/STM32F4xx_FWLIB/src/stm32f4xx_usart.c ****     [..]
 164:Drivers/STM32F4xx_FWLIB/src/stm32f4xx_usart.c ****     The USART_Init() function follows the USART  asynchronous configuration 
 165:Drivers/STM32F4xx_FWLIB/src/stm32f4xx_usart.c ****     procedure (details for the procedure are available in reference manual (RM0090)).
 166:Drivers/STM32F4xx_FWLIB/src/stm32f4xx_usart.c **** 
 167:Drivers/STM32F4xx_FWLIB/src/stm32f4xx_usart.c ****      (+) For the synchronous mode in addition to the asynchronous mode parameters these 
 168:Drivers/STM32F4xx_FWLIB/src/stm32f4xx_usart.c ****          parameters should be also configured:
 169:Drivers/STM32F4xx_FWLIB/src/stm32f4xx_usart.c ****         (++) USART Clock Enabled
 170:Drivers/STM32F4xx_FWLIB/src/stm32f4xx_usart.c ****         (++) USART polarity
 171:Drivers/STM32F4xx_FWLIB/src/stm32f4xx_usart.c ****         (++) USART phase
 172:Drivers/STM32F4xx_FWLIB/src/stm32f4xx_usart.c ****         (++) USART LastBit
 173:Drivers/STM32F4xx_FWLIB/src/stm32f4xx_usart.c ****   
 174:Drivers/STM32F4xx_FWLIB/src/stm32f4xx_usart.c ****     [..]
 175:Drivers/STM32F4xx_FWLIB/src/stm32f4xx_usart.c ****     These parameters can be configured using the USART_ClockInit() function.
 176:Drivers/STM32F4xx_FWLIB/src/stm32f4xx_usart.c **** 
 177:Drivers/STM32F4xx_FWLIB/src/stm32f4xx_usart.c **** @endverbatim
 178:Drivers/STM32F4xx_FWLIB/src/stm32f4xx_usart.c ****   * @{
 179:Drivers/STM32F4xx_FWLIB/src/stm32f4xx_usart.c ****   */
 180:Drivers/STM32F4xx_FWLIB/src/stm32f4xx_usart.c ****   
 181:Drivers/STM32F4xx_FWLIB/src/stm32f4xx_usart.c **** /**
 182:Drivers/STM32F4xx_FWLIB/src/stm32f4xx_usart.c ****   * @brief  Deinitializes the USARTx peripheral registers to their default reset values.
 183:Drivers/STM32F4xx_FWLIB/src/stm32f4xx_usart.c ****   * @param  USARTx: where x can be 1, 2, 3, 4, 5, 6, 7 or 8 to select the USART or 
 184:Drivers/STM32F4xx_FWLIB/src/stm32f4xx_usart.c ****   *         UART peripheral.
 185:Drivers/STM32F4xx_FWLIB/src/stm32f4xx_usart.c ****   * @retval None
 186:Drivers/STM32F4xx_FWLIB/src/stm32f4xx_usart.c ****   */
 187:Drivers/STM32F4xx_FWLIB/src/stm32f4xx_usart.c **** void USART_DeInit(USART_TypeDef* USARTx)
 188:Drivers/STM32F4xx_FWLIB/src/stm32f4xx_usart.c **** {
  30              		.loc 1 188 1 view -0
  31              		.cfi_startproc
  32              		@ args = 0, pretend = 0, frame = 0
  33              		@ frame_needed = 0, uses_anonymous_args = 0
  34              		.loc 1 188 1 is_stmt 0 view .LVU1
  35 0000 08B5     		push	{r3, lr}
  36              	.LCFI0:
  37              		.cfi_def_cfa_offset 8
  38              		.cfi_offset 3, -8
  39              		.cfi_offset 14, -4
 189:Drivers/STM32F4xx_FWLIB/src/stm32f4xx_usart.c ****   /* Check the parameters */
 190:Drivers/STM32F4xx_FWLIB/src/stm32f4xx_usart.c ****   assert_param(IS_USART_ALL_PERIPH(USARTx));
ARM GAS  /tmp/cc5XfcFW.s 			page 5


  40              		.loc 1 190 3 is_stmt 1 view .LVU2
 191:Drivers/STM32F4xx_FWLIB/src/stm32f4xx_usart.c **** 
 192:Drivers/STM32F4xx_FWLIB/src/stm32f4xx_usart.c ****   if (USARTx == USART1)
  41              		.loc 1 192 3 view .LVU3
  42              		.loc 1 192 6 is_stmt 0 view .LVU4
  43 0002 364B     		ldr	r3, .L19
  44 0004 9842     		cmp	r0, r3
  45 0006 15D0     		beq	.L11
 193:Drivers/STM32F4xx_FWLIB/src/stm32f4xx_usart.c ****   {
 194:Drivers/STM32F4xx_FWLIB/src/stm32f4xx_usart.c ****     RCC_APB2PeriphResetCmd(RCC_APB2Periph_USART1, ENABLE);
 195:Drivers/STM32F4xx_FWLIB/src/stm32f4xx_usart.c ****     RCC_APB2PeriphResetCmd(RCC_APB2Periph_USART1, DISABLE);
 196:Drivers/STM32F4xx_FWLIB/src/stm32f4xx_usart.c ****   }
 197:Drivers/STM32F4xx_FWLIB/src/stm32f4xx_usart.c ****   else if (USARTx == USART2)
  46              		.loc 1 197 8 is_stmt 1 view .LVU5
  47              		.loc 1 197 11 is_stmt 0 view .LVU6
  48 0008 354B     		ldr	r3, .L19+4
  49 000a 9842     		cmp	r0, r3
  50 000c 1BD0     		beq	.L12
 198:Drivers/STM32F4xx_FWLIB/src/stm32f4xx_usart.c ****   {
 199:Drivers/STM32F4xx_FWLIB/src/stm32f4xx_usart.c ****     RCC_APB1PeriphResetCmd(RCC_APB1Periph_USART2, ENABLE);
 200:Drivers/STM32F4xx_FWLIB/src/stm32f4xx_usart.c ****     RCC_APB1PeriphResetCmd(RCC_APB1Periph_USART2, DISABLE);
 201:Drivers/STM32F4xx_FWLIB/src/stm32f4xx_usart.c ****   }
 202:Drivers/STM32F4xx_FWLIB/src/stm32f4xx_usart.c ****   else if (USARTx == USART3)
  51              		.loc 1 202 8 is_stmt 1 view .LVU7
  52              		.loc 1 202 11 is_stmt 0 view .LVU8
  53 000e 354B     		ldr	r3, .L19+8
  54 0010 9842     		cmp	r0, r3
  55 0012 23D0     		beq	.L13
 203:Drivers/STM32F4xx_FWLIB/src/stm32f4xx_usart.c ****   {
 204:Drivers/STM32F4xx_FWLIB/src/stm32f4xx_usart.c ****     RCC_APB1PeriphResetCmd(RCC_APB1Periph_USART3, ENABLE);
 205:Drivers/STM32F4xx_FWLIB/src/stm32f4xx_usart.c ****     RCC_APB1PeriphResetCmd(RCC_APB1Periph_USART3, DISABLE);
 206:Drivers/STM32F4xx_FWLIB/src/stm32f4xx_usart.c ****   }    
 207:Drivers/STM32F4xx_FWLIB/src/stm32f4xx_usart.c ****   else if (USARTx == UART4)
  56              		.loc 1 207 8 is_stmt 1 view .LVU9
  57              		.loc 1 207 11 is_stmt 0 view .LVU10
  58 0014 344B     		ldr	r3, .L19+12
  59 0016 9842     		cmp	r0, r3
  60 0018 2BD0     		beq	.L14
 208:Drivers/STM32F4xx_FWLIB/src/stm32f4xx_usart.c ****   {
 209:Drivers/STM32F4xx_FWLIB/src/stm32f4xx_usart.c ****     RCC_APB1PeriphResetCmd(RCC_APB1Periph_UART4, ENABLE);
 210:Drivers/STM32F4xx_FWLIB/src/stm32f4xx_usart.c ****     RCC_APB1PeriphResetCmd(RCC_APB1Periph_UART4, DISABLE);
 211:Drivers/STM32F4xx_FWLIB/src/stm32f4xx_usart.c ****   }
 212:Drivers/STM32F4xx_FWLIB/src/stm32f4xx_usart.c ****   else if (USARTx == UART5)
  61              		.loc 1 212 8 is_stmt 1 view .LVU11
  62              		.loc 1 212 11 is_stmt 0 view .LVU12
  63 001a 344B     		ldr	r3, .L19+16
  64 001c 9842     		cmp	r0, r3
  65 001e 33D0     		beq	.L15
 213:Drivers/STM32F4xx_FWLIB/src/stm32f4xx_usart.c ****   {
 214:Drivers/STM32F4xx_FWLIB/src/stm32f4xx_usart.c ****     RCC_APB1PeriphResetCmd(RCC_APB1Periph_UART5, ENABLE);
 215:Drivers/STM32F4xx_FWLIB/src/stm32f4xx_usart.c ****     RCC_APB1PeriphResetCmd(RCC_APB1Periph_UART5, DISABLE);
 216:Drivers/STM32F4xx_FWLIB/src/stm32f4xx_usart.c ****   }  
 217:Drivers/STM32F4xx_FWLIB/src/stm32f4xx_usart.c ****   else if (USARTx == USART6)
  66              		.loc 1 217 8 is_stmt 1 view .LVU13
  67              		.loc 1 217 11 is_stmt 0 view .LVU14
  68 0020 334B     		ldr	r3, .L19+20
  69 0022 9842     		cmp	r0, r3
ARM GAS  /tmp/cc5XfcFW.s 			page 6


  70 0024 3BD0     		beq	.L16
 218:Drivers/STM32F4xx_FWLIB/src/stm32f4xx_usart.c ****   {
 219:Drivers/STM32F4xx_FWLIB/src/stm32f4xx_usart.c ****     RCC_APB2PeriphResetCmd(RCC_APB2Periph_USART6, ENABLE);
 220:Drivers/STM32F4xx_FWLIB/src/stm32f4xx_usart.c ****     RCC_APB2PeriphResetCmd(RCC_APB2Periph_USART6, DISABLE);
 221:Drivers/STM32F4xx_FWLIB/src/stm32f4xx_usart.c ****   }
 222:Drivers/STM32F4xx_FWLIB/src/stm32f4xx_usart.c ****   else if (USARTx == UART7)
  71              		.loc 1 222 8 is_stmt 1 view .LVU15
  72              		.loc 1 222 11 is_stmt 0 view .LVU16
  73 0026 334B     		ldr	r3, .L19+24
  74 0028 9842     		cmp	r0, r3
  75 002a 41D0     		beq	.L17
 223:Drivers/STM32F4xx_FWLIB/src/stm32f4xx_usart.c ****   {
 224:Drivers/STM32F4xx_FWLIB/src/stm32f4xx_usart.c ****     RCC_APB1PeriphResetCmd(RCC_APB1Periph_UART7, ENABLE);
 225:Drivers/STM32F4xx_FWLIB/src/stm32f4xx_usart.c ****     RCC_APB1PeriphResetCmd(RCC_APB1Periph_UART7, DISABLE);
 226:Drivers/STM32F4xx_FWLIB/src/stm32f4xx_usart.c ****   }     
 227:Drivers/STM32F4xx_FWLIB/src/stm32f4xx_usart.c ****   else
 228:Drivers/STM32F4xx_FWLIB/src/stm32f4xx_usart.c ****   {
 229:Drivers/STM32F4xx_FWLIB/src/stm32f4xx_usart.c ****     if (USARTx == UART8)
  76              		.loc 1 229 5 is_stmt 1 view .LVU17
  77              		.loc 1 229 8 is_stmt 0 view .LVU18
  78 002c 324B     		ldr	r3, .L19+28
  79 002e 9842     		cmp	r0, r3
  80 0030 49D0     		beq	.L18
  81              	.LVL1:
  82              	.L1:
 230:Drivers/STM32F4xx_FWLIB/src/stm32f4xx_usart.c ****     { 
 231:Drivers/STM32F4xx_FWLIB/src/stm32f4xx_usart.c ****       RCC_APB1PeriphResetCmd(RCC_APB1Periph_UART8, ENABLE);
 232:Drivers/STM32F4xx_FWLIB/src/stm32f4xx_usart.c ****       RCC_APB1PeriphResetCmd(RCC_APB1Periph_UART8, DISABLE);
 233:Drivers/STM32F4xx_FWLIB/src/stm32f4xx_usart.c ****     }
 234:Drivers/STM32F4xx_FWLIB/src/stm32f4xx_usart.c ****   }
 235:Drivers/STM32F4xx_FWLIB/src/stm32f4xx_usart.c **** }
  83              		.loc 1 235 1 view .LVU19
  84 0032 08BD     		pop	{r3, pc}
  85              	.LVL2:
  86              	.L11:
 194:Drivers/STM32F4xx_FWLIB/src/stm32f4xx_usart.c ****     RCC_APB2PeriphResetCmd(RCC_APB2Periph_USART1, DISABLE);
  87              		.loc 1 194 5 is_stmt 1 view .LVU20
  88 0034 0121     		movs	r1, #1
  89 0036 1020     		movs	r0, #16
  90              	.LVL3:
 194:Drivers/STM32F4xx_FWLIB/src/stm32f4xx_usart.c ****     RCC_APB2PeriphResetCmd(RCC_APB2Periph_USART1, DISABLE);
  91              		.loc 1 194 5 is_stmt 0 view .LVU21
  92 0038 FFF7FEFF 		bl	RCC_APB2PeriphResetCmd
  93              	.LVL4:
 195:Drivers/STM32F4xx_FWLIB/src/stm32f4xx_usart.c ****   }
  94              		.loc 1 195 5 is_stmt 1 view .LVU22
  95 003c 0021     		movs	r1, #0
  96 003e 1020     		movs	r0, #16
  97 0040 FFF7FEFF 		bl	RCC_APB2PeriphResetCmd
  98              	.LVL5:
  99 0044 F5E7     		b	.L1
 100              	.LVL6:
 101              	.L12:
 199:Drivers/STM32F4xx_FWLIB/src/stm32f4xx_usart.c ****     RCC_APB1PeriphResetCmd(RCC_APB1Periph_USART2, DISABLE);
 102              		.loc 1 199 5 view .LVU23
 103 0046 0121     		movs	r1, #1
 104 0048 4FF40030 		mov	r0, #131072
ARM GAS  /tmp/cc5XfcFW.s 			page 7


 105              	.LVL7:
 199:Drivers/STM32F4xx_FWLIB/src/stm32f4xx_usart.c ****     RCC_APB1PeriphResetCmd(RCC_APB1Periph_USART2, DISABLE);
 106              		.loc 1 199 5 is_stmt 0 view .LVU24
 107 004c FFF7FEFF 		bl	RCC_APB1PeriphResetCmd
 108              	.LVL8:
 200:Drivers/STM32F4xx_FWLIB/src/stm32f4xx_usart.c ****   }
 109              		.loc 1 200 5 is_stmt 1 view .LVU25
 110 0050 0021     		movs	r1, #0
 111 0052 4FF40030 		mov	r0, #131072
 112 0056 FFF7FEFF 		bl	RCC_APB1PeriphResetCmd
 113              	.LVL9:
 114 005a EAE7     		b	.L1
 115              	.LVL10:
 116              	.L13:
 204:Drivers/STM32F4xx_FWLIB/src/stm32f4xx_usart.c ****     RCC_APB1PeriphResetCmd(RCC_APB1Periph_USART3, DISABLE);
 117              		.loc 1 204 5 view .LVU26
 118 005c 0121     		movs	r1, #1
 119 005e 4FF48020 		mov	r0, #262144
 120              	.LVL11:
 204:Drivers/STM32F4xx_FWLIB/src/stm32f4xx_usart.c ****     RCC_APB1PeriphResetCmd(RCC_APB1Periph_USART3, DISABLE);
 121              		.loc 1 204 5 is_stmt 0 view .LVU27
 122 0062 FFF7FEFF 		bl	RCC_APB1PeriphResetCmd
 123              	.LVL12:
 205:Drivers/STM32F4xx_FWLIB/src/stm32f4xx_usart.c ****   }    
 124              		.loc 1 205 5 is_stmt 1 view .LVU28
 125 0066 0021     		movs	r1, #0
 126 0068 4FF48020 		mov	r0, #262144
 127 006c FFF7FEFF 		bl	RCC_APB1PeriphResetCmd
 128              	.LVL13:
 129 0070 DFE7     		b	.L1
 130              	.LVL14:
 131              	.L14:
 209:Drivers/STM32F4xx_FWLIB/src/stm32f4xx_usart.c ****     RCC_APB1PeriphResetCmd(RCC_APB1Periph_UART4, DISABLE);
 132              		.loc 1 209 5 view .LVU29
 133 0072 0121     		movs	r1, #1
 134 0074 4FF40020 		mov	r0, #524288
 135              	.LVL15:
 209:Drivers/STM32F4xx_FWLIB/src/stm32f4xx_usart.c ****     RCC_APB1PeriphResetCmd(RCC_APB1Periph_UART4, DISABLE);
 136              		.loc 1 209 5 is_stmt 0 view .LVU30
 137 0078 FFF7FEFF 		bl	RCC_APB1PeriphResetCmd
 138              	.LVL16:
 210:Drivers/STM32F4xx_FWLIB/src/stm32f4xx_usart.c ****   }
 139              		.loc 1 210 5 is_stmt 1 view .LVU31
 140 007c 0021     		movs	r1, #0
 141 007e 4FF40020 		mov	r0, #524288
 142 0082 FFF7FEFF 		bl	RCC_APB1PeriphResetCmd
 143              	.LVL17:
 144 0086 D4E7     		b	.L1
 145              	.LVL18:
 146              	.L15:
 214:Drivers/STM32F4xx_FWLIB/src/stm32f4xx_usart.c ****     RCC_APB1PeriphResetCmd(RCC_APB1Periph_UART5, DISABLE);
 147              		.loc 1 214 5 view .LVU32
 148 0088 0121     		movs	r1, #1
 149 008a 4FF48010 		mov	r0, #1048576
 150              	.LVL19:
 214:Drivers/STM32F4xx_FWLIB/src/stm32f4xx_usart.c ****     RCC_APB1PeriphResetCmd(RCC_APB1Periph_UART5, DISABLE);
 151              		.loc 1 214 5 is_stmt 0 view .LVU33
ARM GAS  /tmp/cc5XfcFW.s 			page 8


 152 008e FFF7FEFF 		bl	RCC_APB1PeriphResetCmd
 153              	.LVL20:
 215:Drivers/STM32F4xx_FWLIB/src/stm32f4xx_usart.c ****   }  
 154              		.loc 1 215 5 is_stmt 1 view .LVU34
 155 0092 0021     		movs	r1, #0
 156 0094 4FF48010 		mov	r0, #1048576
 157 0098 FFF7FEFF 		bl	RCC_APB1PeriphResetCmd
 158              	.LVL21:
 159 009c C9E7     		b	.L1
 160              	.LVL22:
 161              	.L16:
 219:Drivers/STM32F4xx_FWLIB/src/stm32f4xx_usart.c ****     RCC_APB2PeriphResetCmd(RCC_APB2Periph_USART6, DISABLE);
 162              		.loc 1 219 5 view .LVU35
 163 009e 0121     		movs	r1, #1
 164 00a0 2020     		movs	r0, #32
 165              	.LVL23:
 219:Drivers/STM32F4xx_FWLIB/src/stm32f4xx_usart.c ****     RCC_APB2PeriphResetCmd(RCC_APB2Periph_USART6, DISABLE);
 166              		.loc 1 219 5 is_stmt 0 view .LVU36
 167 00a2 FFF7FEFF 		bl	RCC_APB2PeriphResetCmd
 168              	.LVL24:
 220:Drivers/STM32F4xx_FWLIB/src/stm32f4xx_usart.c ****   }
 169              		.loc 1 220 5 is_stmt 1 view .LVU37
 170 00a6 0021     		movs	r1, #0
 171 00a8 2020     		movs	r0, #32
 172 00aa FFF7FEFF 		bl	RCC_APB2PeriphResetCmd
 173              	.LVL25:
 174 00ae C0E7     		b	.L1
 175              	.LVL26:
 176              	.L17:
 224:Drivers/STM32F4xx_FWLIB/src/stm32f4xx_usart.c ****     RCC_APB1PeriphResetCmd(RCC_APB1Periph_UART7, DISABLE);
 177              		.loc 1 224 5 view .LVU38
 178 00b0 0121     		movs	r1, #1
 179 00b2 4FF08040 		mov	r0, #1073741824
 180              	.LVL27:
 224:Drivers/STM32F4xx_FWLIB/src/stm32f4xx_usart.c ****     RCC_APB1PeriphResetCmd(RCC_APB1Periph_UART7, DISABLE);
 181              		.loc 1 224 5 is_stmt 0 view .LVU39
 182 00b6 FFF7FEFF 		bl	RCC_APB1PeriphResetCmd
 183              	.LVL28:
 225:Drivers/STM32F4xx_FWLIB/src/stm32f4xx_usart.c ****   }     
 184              		.loc 1 225 5 is_stmt 1 view .LVU40
 185 00ba 0021     		movs	r1, #0
 186 00bc 4FF08040 		mov	r0, #1073741824
 187 00c0 FFF7FEFF 		bl	RCC_APB1PeriphResetCmd
 188              	.LVL29:
 189 00c4 B5E7     		b	.L1
 190              	.LVL30:
 191              	.L18:
 231:Drivers/STM32F4xx_FWLIB/src/stm32f4xx_usart.c ****       RCC_APB1PeriphResetCmd(RCC_APB1Periph_UART8, DISABLE);
 192              		.loc 1 231 7 view .LVU41
 193 00c6 0121     		movs	r1, #1
 194 00c8 4FF00040 		mov	r0, #-2147483648
 195              	.LVL31:
 231:Drivers/STM32F4xx_FWLIB/src/stm32f4xx_usart.c ****       RCC_APB1PeriphResetCmd(RCC_APB1Periph_UART8, DISABLE);
 196              		.loc 1 231 7 is_stmt 0 view .LVU42
 197 00cc FFF7FEFF 		bl	RCC_APB1PeriphResetCmd
 198              	.LVL32:
 232:Drivers/STM32F4xx_FWLIB/src/stm32f4xx_usart.c ****     }
ARM GAS  /tmp/cc5XfcFW.s 			page 9


 199              		.loc 1 232 7 is_stmt 1 view .LVU43
 200 00d0 0021     		movs	r1, #0
 201 00d2 4FF00040 		mov	r0, #-2147483648
 202 00d6 FFF7FEFF 		bl	RCC_APB1PeriphResetCmd
 203              	.LVL33:
 204              		.loc 1 235 1 is_stmt 0 view .LVU44
 205 00da AAE7     		b	.L1
 206              	.L20:
 207              		.align	2
 208              	.L19:
 209 00dc 00100140 		.word	1073811456
 210 00e0 00440040 		.word	1073759232
 211 00e4 00480040 		.word	1073760256
 212 00e8 004C0040 		.word	1073761280
 213 00ec 00500040 		.word	1073762304
 214 00f0 00140140 		.word	1073812480
 215 00f4 00780040 		.word	1073772544
 216 00f8 007C0040 		.word	1073773568
 217              		.cfi_endproc
 218              	.LFE130:
 220              		.section	.text.USART_Init,"ax",%progbits
 221              		.align	1
 222              		.global	USART_Init
 223              		.syntax unified
 224              		.thumb
 225              		.thumb_func
 226              		.fpu fpv4-sp-d16
 228              	USART_Init:
 229              	.LVL34:
 230              	.LFB131:
 236:Drivers/STM32F4xx_FWLIB/src/stm32f4xx_usart.c **** 
 237:Drivers/STM32F4xx_FWLIB/src/stm32f4xx_usart.c **** /**
 238:Drivers/STM32F4xx_FWLIB/src/stm32f4xx_usart.c ****   * @brief  Initializes the USARTx peripheral according to the specified
 239:Drivers/STM32F4xx_FWLIB/src/stm32f4xx_usart.c ****   *         parameters in the USART_InitStruct .
 240:Drivers/STM32F4xx_FWLIB/src/stm32f4xx_usart.c ****   * @param  USARTx: where x can be 1, 2, 3, 4, 5, 6, 7 or 8 to select the USART or 
 241:Drivers/STM32F4xx_FWLIB/src/stm32f4xx_usart.c ****   *         UART peripheral.
 242:Drivers/STM32F4xx_FWLIB/src/stm32f4xx_usart.c ****   * @param  USART_InitStruct: pointer to a USART_InitTypeDef structure that contains
 243:Drivers/STM32F4xx_FWLIB/src/stm32f4xx_usart.c ****   *         the configuration information for the specified USART peripheral.
 244:Drivers/STM32F4xx_FWLIB/src/stm32f4xx_usart.c ****   * @retval None
 245:Drivers/STM32F4xx_FWLIB/src/stm32f4xx_usart.c ****   */
 246:Drivers/STM32F4xx_FWLIB/src/stm32f4xx_usart.c **** void USART_Init(USART_TypeDef* USARTx, USART_InitTypeDef* USART_InitStruct)
 247:Drivers/STM32F4xx_FWLIB/src/stm32f4xx_usart.c **** {
 231              		.loc 1 247 1 is_stmt 1 view -0
 232              		.cfi_startproc
 233              		@ args = 0, pretend = 0, frame = 16
 234              		@ frame_needed = 0, uses_anonymous_args = 0
 235              		.loc 1 247 1 is_stmt 0 view .LVU46
 236 0000 30B5     		push	{r4, r5, lr}
 237              	.LCFI1:
 238              		.cfi_def_cfa_offset 12
 239              		.cfi_offset 4, -12
 240              		.cfi_offset 5, -8
 241              		.cfi_offset 14, -4
 242 0002 85B0     		sub	sp, sp, #20
 243              	.LCFI2:
 244              		.cfi_def_cfa_offset 32
 245 0004 0446     		mov	r4, r0
ARM GAS  /tmp/cc5XfcFW.s 			page 10


 246 0006 0D46     		mov	r5, r1
 248:Drivers/STM32F4xx_FWLIB/src/stm32f4xx_usart.c ****   uint32_t tmpreg = 0x00, apbclock = 0x00;
 247              		.loc 1 248 3 is_stmt 1 view .LVU47
 248              	.LVL35:
 249:Drivers/STM32F4xx_FWLIB/src/stm32f4xx_usart.c ****   uint32_t integerdivider = 0x00;
 249              		.loc 1 249 3 view .LVU48
 250:Drivers/STM32F4xx_FWLIB/src/stm32f4xx_usart.c ****   uint32_t fractionaldivider = 0x00;
 250              		.loc 1 250 3 view .LVU49
 251:Drivers/STM32F4xx_FWLIB/src/stm32f4xx_usart.c ****   RCC_ClocksTypeDef RCC_ClocksStatus;
 251              		.loc 1 251 3 view .LVU50
 252:Drivers/STM32F4xx_FWLIB/src/stm32f4xx_usart.c **** 
 253:Drivers/STM32F4xx_FWLIB/src/stm32f4xx_usart.c ****   /* Check the parameters */
 254:Drivers/STM32F4xx_FWLIB/src/stm32f4xx_usart.c ****   assert_param(IS_USART_ALL_PERIPH(USARTx));
 252              		.loc 1 254 3 view .LVU51
 255:Drivers/STM32F4xx_FWLIB/src/stm32f4xx_usart.c ****   assert_param(IS_USART_BAUDRATE(USART_InitStruct->USART_BaudRate));  
 253              		.loc 1 255 3 view .LVU52
 256:Drivers/STM32F4xx_FWLIB/src/stm32f4xx_usart.c ****   assert_param(IS_USART_WORD_LENGTH(USART_InitStruct->USART_WordLength));
 254              		.loc 1 256 3 view .LVU53
 257:Drivers/STM32F4xx_FWLIB/src/stm32f4xx_usart.c ****   assert_param(IS_USART_STOPBITS(USART_InitStruct->USART_StopBits));
 255              		.loc 1 257 3 view .LVU54
 258:Drivers/STM32F4xx_FWLIB/src/stm32f4xx_usart.c ****   assert_param(IS_USART_PARITY(USART_InitStruct->USART_Parity));
 256              		.loc 1 258 3 view .LVU55
 259:Drivers/STM32F4xx_FWLIB/src/stm32f4xx_usart.c ****   assert_param(IS_USART_MODE(USART_InitStruct->USART_Mode));
 257              		.loc 1 259 3 view .LVU56
 260:Drivers/STM32F4xx_FWLIB/src/stm32f4xx_usart.c ****   assert_param(IS_USART_HARDWARE_FLOW_CONTROL(USART_InitStruct->USART_HardwareFlowControl));
 258              		.loc 1 260 3 view .LVU57
 261:Drivers/STM32F4xx_FWLIB/src/stm32f4xx_usart.c **** 
 262:Drivers/STM32F4xx_FWLIB/src/stm32f4xx_usart.c ****   /* The hardware flow control is available only for USART1, USART2, USART3 and USART6 */
 263:Drivers/STM32F4xx_FWLIB/src/stm32f4xx_usart.c ****   if (USART_InitStruct->USART_HardwareFlowControl != USART_HardwareFlowControl_None)
 259              		.loc 1 263 3 view .LVU58
 264:Drivers/STM32F4xx_FWLIB/src/stm32f4xx_usart.c ****   {
 265:Drivers/STM32F4xx_FWLIB/src/stm32f4xx_usart.c ****     assert_param(IS_USART_1236_PERIPH(USARTx));
 260              		.loc 1 265 5 view .LVU59
 266:Drivers/STM32F4xx_FWLIB/src/stm32f4xx_usart.c ****   }
 267:Drivers/STM32F4xx_FWLIB/src/stm32f4xx_usart.c **** 
 268:Drivers/STM32F4xx_FWLIB/src/stm32f4xx_usart.c **** /*---------------------------- USART CR2 Configuration -----------------------*/
 269:Drivers/STM32F4xx_FWLIB/src/stm32f4xx_usart.c ****   tmpreg = USARTx->CR2;
 261              		.loc 1 269 3 view .LVU60
 262              		.loc 1 269 18 is_stmt 0 view .LVU61
 263 0008 038A     		ldrh	r3, [r0, #16]
 264 000a 9BB2     		uxth	r3, r3
 265              	.LVL36:
 270:Drivers/STM32F4xx_FWLIB/src/stm32f4xx_usart.c **** 
 271:Drivers/STM32F4xx_FWLIB/src/stm32f4xx_usart.c ****   /* Clear STOP[13:12] bits */
 272:Drivers/STM32F4xx_FWLIB/src/stm32f4xx_usart.c ****   tmpreg &= (uint32_t)~((uint32_t)USART_CR2_STOP);
 266              		.loc 1 272 3 is_stmt 1 view .LVU62
 267              		.loc 1 272 10 is_stmt 0 view .LVU63
 268 000c 23F44053 		bic	r3, r3, #12288
 269              	.LVL37:
 273:Drivers/STM32F4xx_FWLIB/src/stm32f4xx_usart.c **** 
 274:Drivers/STM32F4xx_FWLIB/src/stm32f4xx_usart.c ****   /* Configure the USART Stop Bits, Clock, CPOL, CPHA and LastBit :
 275:Drivers/STM32F4xx_FWLIB/src/stm32f4xx_usart.c ****       Set STOP[13:12] bits according to USART_StopBits value */
 276:Drivers/STM32F4xx_FWLIB/src/stm32f4xx_usart.c ****   tmpreg |= (uint32_t)USART_InitStruct->USART_StopBits;
 270              		.loc 1 276 3 is_stmt 1 view .LVU64
 271              		.loc 1 276 39 is_stmt 0 view .LVU65
 272 0010 CA88     		ldrh	r2, [r1, #6]
 273              	.LVL38:
ARM GAS  /tmp/cc5XfcFW.s 			page 11


 277:Drivers/STM32F4xx_FWLIB/src/stm32f4xx_usart.c ****   
 278:Drivers/STM32F4xx_FWLIB/src/stm32f4xx_usart.c ****   /* Write to USART CR2 */
 279:Drivers/STM32F4xx_FWLIB/src/stm32f4xx_usart.c ****   USARTx->CR2 = (uint16_t)tmpreg;
 274              		.loc 1 279 3 is_stmt 1 view .LVU66
 275              		.loc 1 279 17 is_stmt 0 view .LVU67
 276 0012 1343     		orrs	r3, r3, r2
 277              	.LVL39:
 278              		.loc 1 279 15 view .LVU68
 279 0014 0382     		strh	r3, [r0, #16]	@ movhi
 280:Drivers/STM32F4xx_FWLIB/src/stm32f4xx_usart.c **** 
 281:Drivers/STM32F4xx_FWLIB/src/stm32f4xx_usart.c **** /*---------------------------- USART CR1 Configuration -----------------------*/
 282:Drivers/STM32F4xx_FWLIB/src/stm32f4xx_usart.c ****   tmpreg = USARTx->CR1;
 280              		.loc 1 282 3 is_stmt 1 view .LVU69
 281              		.loc 1 282 18 is_stmt 0 view .LVU70
 282 0016 8389     		ldrh	r3, [r0, #12]
 283              	.LVL40:
 284              		.loc 1 282 18 view .LVU71
 285 0018 9BB2     		uxth	r3, r3
 286              	.LVL41:
 283:Drivers/STM32F4xx_FWLIB/src/stm32f4xx_usart.c **** 
 284:Drivers/STM32F4xx_FWLIB/src/stm32f4xx_usart.c ****   /* Clear M, PCE, PS, TE and RE bits */
 285:Drivers/STM32F4xx_FWLIB/src/stm32f4xx_usart.c ****   tmpreg &= (uint32_t)~((uint32_t)CR1_CLEAR_MASK);
 287              		.loc 1 285 3 is_stmt 1 view .LVU72
 288              		.loc 1 285 10 is_stmt 0 view .LVU73
 289 001a 23F4B053 		bic	r3, r3, #5632
 290              	.LVL42:
 291              		.loc 1 285 10 view .LVU74
 292 001e 23F00C03 		bic	r3, r3, #12
 293              	.LVL43:
 286:Drivers/STM32F4xx_FWLIB/src/stm32f4xx_usart.c **** 
 287:Drivers/STM32F4xx_FWLIB/src/stm32f4xx_usart.c ****   /* Configure the USART Word Length, Parity and mode: 
 288:Drivers/STM32F4xx_FWLIB/src/stm32f4xx_usart.c ****      Set the M bits according to USART_WordLength value 
 289:Drivers/STM32F4xx_FWLIB/src/stm32f4xx_usart.c ****      Set PCE and PS bits according to USART_Parity value
 290:Drivers/STM32F4xx_FWLIB/src/stm32f4xx_usart.c ****      Set TE and RE bits according to USART_Mode value */
 291:Drivers/STM32F4xx_FWLIB/src/stm32f4xx_usart.c ****   tmpreg |= (uint32_t)USART_InitStruct->USART_WordLength | USART_InitStruct->USART_Parity |
 294              		.loc 1 291 3 is_stmt 1 view .LVU75
 295              		.loc 1 291 39 is_stmt 0 view .LVU76
 296 0022 8988     		ldrh	r1, [r1, #4]
 297              	.LVL44:
 298              		.loc 1 291 76 view .LVU77
 299 0024 2889     		ldrh	r0, [r5, #8]
 300              	.LVL45:
 292:Drivers/STM32F4xx_FWLIB/src/stm32f4xx_usart.c ****             USART_InitStruct->USART_Mode;
 301              		.loc 1 292 29 view .LVU78
 302 0026 6A89     		ldrh	r2, [r5, #10]
 291:Drivers/STM32F4xx_FWLIB/src/stm32f4xx_usart.c ****             USART_InitStruct->USART_Mode;
 303              		.loc 1 291 91 view .LVU79
 304 0028 0143     		orrs	r1, r1, r0
 305 002a 0A43     		orrs	r2, r2, r1
 306              	.LVL46:
 293:Drivers/STM32F4xx_FWLIB/src/stm32f4xx_usart.c **** 
 294:Drivers/STM32F4xx_FWLIB/src/stm32f4xx_usart.c ****   /* Write to USART CR1 */
 295:Drivers/STM32F4xx_FWLIB/src/stm32f4xx_usart.c ****   USARTx->CR1 = (uint16_t)tmpreg;
 307              		.loc 1 295 3 is_stmt 1 view .LVU80
 308              		.loc 1 295 17 is_stmt 0 view .LVU81
 309 002c 1343     		orrs	r3, r3, r2
 310              	.LVL47:
ARM GAS  /tmp/cc5XfcFW.s 			page 12


 311              		.loc 1 295 15 view .LVU82
 312 002e A381     		strh	r3, [r4, #12]	@ movhi
 296:Drivers/STM32F4xx_FWLIB/src/stm32f4xx_usart.c **** 
 297:Drivers/STM32F4xx_FWLIB/src/stm32f4xx_usart.c **** /*---------------------------- USART CR3 Configuration -----------------------*/  
 298:Drivers/STM32F4xx_FWLIB/src/stm32f4xx_usart.c ****   tmpreg = USARTx->CR3;
 313              		.loc 1 298 3 is_stmt 1 view .LVU83
 314              		.loc 1 298 18 is_stmt 0 view .LVU84
 315 0030 A38A     		ldrh	r3, [r4, #20]
 316              	.LVL48:
 317              		.loc 1 298 18 view .LVU85
 318 0032 9BB2     		uxth	r3, r3
 319              	.LVL49:
 299:Drivers/STM32F4xx_FWLIB/src/stm32f4xx_usart.c **** 
 300:Drivers/STM32F4xx_FWLIB/src/stm32f4xx_usart.c ****   /* Clear CTSE and RTSE bits */
 301:Drivers/STM32F4xx_FWLIB/src/stm32f4xx_usart.c ****   tmpreg &= (uint32_t)~((uint32_t)CR3_CLEAR_MASK);
 320              		.loc 1 301 3 is_stmt 1 view .LVU86
 321              		.loc 1 301 10 is_stmt 0 view .LVU87
 322 0034 23F44073 		bic	r3, r3, #768
 323              	.LVL50:
 302:Drivers/STM32F4xx_FWLIB/src/stm32f4xx_usart.c **** 
 303:Drivers/STM32F4xx_FWLIB/src/stm32f4xx_usart.c ****   /* Configure the USART HFC : 
 304:Drivers/STM32F4xx_FWLIB/src/stm32f4xx_usart.c ****       Set CTSE and RTSE bits according to USART_HardwareFlowControl value */
 305:Drivers/STM32F4xx_FWLIB/src/stm32f4xx_usart.c ****   tmpreg |= USART_InitStruct->USART_HardwareFlowControl;
 324              		.loc 1 305 3 is_stmt 1 view .LVU88
 325              		.loc 1 305 29 is_stmt 0 view .LVU89
 326 0038 AA89     		ldrh	r2, [r5, #12]
 327              	.LVL51:
 306:Drivers/STM32F4xx_FWLIB/src/stm32f4xx_usart.c **** 
 307:Drivers/STM32F4xx_FWLIB/src/stm32f4xx_usart.c ****   /* Write to USART CR3 */
 308:Drivers/STM32F4xx_FWLIB/src/stm32f4xx_usart.c ****   USARTx->CR3 = (uint16_t)tmpreg;
 328              		.loc 1 308 3 is_stmt 1 view .LVU90
 329              		.loc 1 308 17 is_stmt 0 view .LVU91
 330 003a 1343     		orrs	r3, r3, r2
 331              	.LVL52:
 332              		.loc 1 308 15 view .LVU92
 333 003c A382     		strh	r3, [r4, #20]	@ movhi
 309:Drivers/STM32F4xx_FWLIB/src/stm32f4xx_usart.c **** 
 310:Drivers/STM32F4xx_FWLIB/src/stm32f4xx_usart.c **** /*---------------------------- USART BRR Configuration -----------------------*/
 311:Drivers/STM32F4xx_FWLIB/src/stm32f4xx_usart.c ****   /* Configure the USART Baud Rate */
 312:Drivers/STM32F4xx_FWLIB/src/stm32f4xx_usart.c ****   RCC_GetClocksFreq(&RCC_ClocksStatus);
 334              		.loc 1 312 3 is_stmt 1 view .LVU93
 335 003e 6846     		mov	r0, sp
 336 0040 FFF7FEFF 		bl	RCC_GetClocksFreq
 337              	.LVL53:
 313:Drivers/STM32F4xx_FWLIB/src/stm32f4xx_usart.c **** 
 314:Drivers/STM32F4xx_FWLIB/src/stm32f4xx_usart.c ****   if ((USARTx == USART1) || (USARTx == USART6))
 338              		.loc 1 314 3 view .LVU94
 339              		.loc 1 314 6 is_stmt 0 view .LVU95
 340 0044 204B     		ldr	r3, .L32
 341 0046 9C42     		cmp	r4, r3
 342 0048 05D0     		beq	.L22
 343              		.loc 1 314 26 discriminator 1 view .LVU96
 344 004a 03F58063 		add	r3, r3, #1024
 345 004e 9C42     		cmp	r4, r3
 346 0050 01D0     		beq	.L22
 315:Drivers/STM32F4xx_FWLIB/src/stm32f4xx_usart.c ****   {
 316:Drivers/STM32F4xx_FWLIB/src/stm32f4xx_usart.c ****     apbclock = RCC_ClocksStatus.PCLK2_Frequency;
ARM GAS  /tmp/cc5XfcFW.s 			page 13


 317:Drivers/STM32F4xx_FWLIB/src/stm32f4xx_usart.c ****   }
 318:Drivers/STM32F4xx_FWLIB/src/stm32f4xx_usart.c ****   else
 319:Drivers/STM32F4xx_FWLIB/src/stm32f4xx_usart.c ****   {
 320:Drivers/STM32F4xx_FWLIB/src/stm32f4xx_usart.c ****     apbclock = RCC_ClocksStatus.PCLK1_Frequency;
 347              		.loc 1 320 5 is_stmt 1 view .LVU97
 348              		.loc 1 320 14 is_stmt 0 view .LVU98
 349 0052 029B     		ldr	r3, [sp, #8]
 350              	.LVL54:
 351              		.loc 1 320 14 view .LVU99
 352 0054 00E0     		b	.L24
 353              	.LVL55:
 354              	.L22:
 316:Drivers/STM32F4xx_FWLIB/src/stm32f4xx_usart.c ****   }
 355              		.loc 1 316 5 is_stmt 1 view .LVU100
 316:Drivers/STM32F4xx_FWLIB/src/stm32f4xx_usart.c ****   }
 356              		.loc 1 316 14 is_stmt 0 view .LVU101
 357 0056 039B     		ldr	r3, [sp, #12]
 358              	.LVL56:
 359              	.L24:
 321:Drivers/STM32F4xx_FWLIB/src/stm32f4xx_usart.c ****   }
 322:Drivers/STM32F4xx_FWLIB/src/stm32f4xx_usart.c ****   
 323:Drivers/STM32F4xx_FWLIB/src/stm32f4xx_usart.c ****   /* Determine the integer part */
 324:Drivers/STM32F4xx_FWLIB/src/stm32f4xx_usart.c ****   if ((USARTx->CR1 & USART_CR1_OVER8) != 0)
 360              		.loc 1 324 3 is_stmt 1 view .LVU102
 361              		.loc 1 324 14 is_stmt 0 view .LVU103
 362 0058 A289     		ldrh	r2, [r4, #12]
 363              		.loc 1 324 6 view .LVU104
 364 005a 12F4004F 		tst	r2, #32768
 365 005e 1FD1     		bne	.L30
 325:Drivers/STM32F4xx_FWLIB/src/stm32f4xx_usart.c ****   {
 326:Drivers/STM32F4xx_FWLIB/src/stm32f4xx_usart.c ****     /* Integer part computing in case Oversampling mode is 8 Samples */
 327:Drivers/STM32F4xx_FWLIB/src/stm32f4xx_usart.c ****     integerdivider = ((25 * apbclock) / (2 * (USART_InitStruct->USART_BaudRate)));    
 328:Drivers/STM32F4xx_FWLIB/src/stm32f4xx_usart.c ****   }
 329:Drivers/STM32F4xx_FWLIB/src/stm32f4xx_usart.c ****   else /* if ((USARTx->CR1 & USART_CR1_OVER8) == 0) */
 330:Drivers/STM32F4xx_FWLIB/src/stm32f4xx_usart.c ****   {
 331:Drivers/STM32F4xx_FWLIB/src/stm32f4xx_usart.c ****     /* Integer part computing in case Oversampling mode is 16 Samples */
 332:Drivers/STM32F4xx_FWLIB/src/stm32f4xx_usart.c ****     integerdivider = ((25 * apbclock) / (4 * (USART_InitStruct->USART_BaudRate)));    
 366              		.loc 1 332 5 is_stmt 1 view .LVU105
 367              		.loc 1 332 27 is_stmt 0 view .LVU106
 368 0060 03EB8303 		add	r3, r3, r3, lsl #2
 369              	.LVL57:
 370              		.loc 1 332 27 view .LVU107
 371 0064 03EB8303 		add	r3, r3, r3, lsl #2
 372              		.loc 1 332 63 view .LVU108
 373 0068 2968     		ldr	r1, [r5]
 374              		.loc 1 332 44 view .LVU109
 375 006a 8900     		lsls	r1, r1, #2
 376              		.loc 1 332 20 view .LVU110
 377 006c B3FBF1F1 		udiv	r1, r3, r1
 378              	.LVL58:
 379              	.L26:
 333:Drivers/STM32F4xx_FWLIB/src/stm32f4xx_usart.c ****   }
 334:Drivers/STM32F4xx_FWLIB/src/stm32f4xx_usart.c ****   tmpreg = (integerdivider / 100) << 4;
 380              		.loc 1 334 3 is_stmt 1 view .LVU111
 381              		.loc 1 334 28 is_stmt 0 view .LVU112
 382 0070 164B     		ldr	r3, .L32+4
 383 0072 A3FB0123 		umull	r2, r3, r3, r1
ARM GAS  /tmp/cc5XfcFW.s 			page 14


 384 0076 5809     		lsrs	r0, r3, #5
 385              		.loc 1 334 10 view .LVU113
 386 0078 0501     		lsls	r5, r0, #4
 387              	.LVL59:
 335:Drivers/STM32F4xx_FWLIB/src/stm32f4xx_usart.c **** 
 336:Drivers/STM32F4xx_FWLIB/src/stm32f4xx_usart.c ****   /* Determine the fractional part */
 337:Drivers/STM32F4xx_FWLIB/src/stm32f4xx_usart.c ****   fractionaldivider = integerdivider - (100 * (tmpreg >> 4));
 388              		.loc 1 337 3 is_stmt 1 view .LVU114
 389              		.loc 1 337 21 is_stmt 0 view .LVU115
 390 007a 6423     		movs	r3, #100
 391 007c 00FB1313 		mls	r3, r0, r3, r1
 392              	.LVL60:
 338:Drivers/STM32F4xx_FWLIB/src/stm32f4xx_usart.c **** 
 339:Drivers/STM32F4xx_FWLIB/src/stm32f4xx_usart.c ****   /* Implement the fractional part in the register */
 340:Drivers/STM32F4xx_FWLIB/src/stm32f4xx_usart.c ****   if ((USARTx->CR1 & USART_CR1_OVER8) != 0)
 393              		.loc 1 340 3 is_stmt 1 view .LVU116
 394              		.loc 1 340 14 is_stmt 0 view .LVU117
 395 0080 A289     		ldrh	r2, [r4, #12]
 396              		.loc 1 340 6 view .LVU118
 397 0082 12F4004F 		tst	r2, #32768
 398 0086 14D1     		bne	.L31
 341:Drivers/STM32F4xx_FWLIB/src/stm32f4xx_usart.c ****   {
 342:Drivers/STM32F4xx_FWLIB/src/stm32f4xx_usart.c ****     tmpreg |= ((((fractionaldivider * 8) + 50) / 100)) & ((uint8_t)0x07);
 343:Drivers/STM32F4xx_FWLIB/src/stm32f4xx_usart.c ****   }
 344:Drivers/STM32F4xx_FWLIB/src/stm32f4xx_usart.c ****   else /* if ((USARTx->CR1 & USART_CR1_OVER8) == 0) */
 345:Drivers/STM32F4xx_FWLIB/src/stm32f4xx_usart.c ****   {
 346:Drivers/STM32F4xx_FWLIB/src/stm32f4xx_usart.c ****     tmpreg |= ((((fractionaldivider * 16) + 50) / 100)) & ((uint8_t)0x0F);
 399              		.loc 1 346 5 is_stmt 1 view .LVU119
 400              		.loc 1 346 37 is_stmt 0 view .LVU120
 401 0088 1B01     		lsls	r3, r3, #4
 402              	.LVL61:
 403              		.loc 1 346 43 view .LVU121
 404 008a 3233     		adds	r3, r3, #50
 405              		.loc 1 346 49 view .LVU122
 406 008c 0F4A     		ldr	r2, .L32+4
 407 008e A2FB0323 		umull	r2, r3, r2, r3
 408              		.loc 1 346 57 view .LVU123
 409 0092 C3F34313 		ubfx	r3, r3, #5, #4
 410              		.loc 1 346 12 view .LVU124
 411 0096 2B43     		orrs	r3, r3, r5
 412              	.LVL62:
 413              	.L28:
 347:Drivers/STM32F4xx_FWLIB/src/stm32f4xx_usart.c ****   }
 348:Drivers/STM32F4xx_FWLIB/src/stm32f4xx_usart.c ****   
 349:Drivers/STM32F4xx_FWLIB/src/stm32f4xx_usart.c ****   /* Write to USART BRR register */
 350:Drivers/STM32F4xx_FWLIB/src/stm32f4xx_usart.c ****   USARTx->BRR = (uint16_t)tmpreg;
 414              		.loc 1 350 3 is_stmt 1 view .LVU125
 415              		.loc 1 350 17 is_stmt 0 view .LVU126
 416 0098 9BB2     		uxth	r3, r3
 417              	.LVL63:
 418              		.loc 1 350 15 view .LVU127
 419 009a 2381     		strh	r3, [r4, #8]	@ movhi
 351:Drivers/STM32F4xx_FWLIB/src/stm32f4xx_usart.c **** }
 420              		.loc 1 351 1 view .LVU128
 421 009c 05B0     		add	sp, sp, #20
 422              	.LCFI3:
 423              		.cfi_remember_state
ARM GAS  /tmp/cc5XfcFW.s 			page 15


 424              		.cfi_def_cfa_offset 12
 425              		@ sp needed
 426 009e 30BD     		pop	{r4, r5, pc}
 427              	.LVL64:
 428              	.L30:
 429              	.LCFI4:
 430              		.cfi_restore_state
 327:Drivers/STM32F4xx_FWLIB/src/stm32f4xx_usart.c ****   }
 431              		.loc 1 327 5 is_stmt 1 view .LVU129
 327:Drivers/STM32F4xx_FWLIB/src/stm32f4xx_usart.c ****   }
 432              		.loc 1 327 27 is_stmt 0 view .LVU130
 433 00a0 03EB8303 		add	r3, r3, r3, lsl #2
 434              	.LVL65:
 327:Drivers/STM32F4xx_FWLIB/src/stm32f4xx_usart.c ****   }
 435              		.loc 1 327 27 view .LVU131
 436 00a4 03EB8303 		add	r3, r3, r3, lsl #2
 327:Drivers/STM32F4xx_FWLIB/src/stm32f4xx_usart.c ****   }
 437              		.loc 1 327 63 view .LVU132
 438 00a8 2968     		ldr	r1, [r5]
 327:Drivers/STM32F4xx_FWLIB/src/stm32f4xx_usart.c ****   }
 439              		.loc 1 327 44 view .LVU133
 440 00aa 4900     		lsls	r1, r1, #1
 327:Drivers/STM32F4xx_FWLIB/src/stm32f4xx_usart.c ****   }
 441              		.loc 1 327 20 view .LVU134
 442 00ac B3FBF1F1 		udiv	r1, r3, r1
 443              	.LVL66:
 327:Drivers/STM32F4xx_FWLIB/src/stm32f4xx_usart.c ****   }
 444              		.loc 1 327 20 view .LVU135
 445 00b0 DEE7     		b	.L26
 446              	.LVL67:
 447              	.L31:
 342:Drivers/STM32F4xx_FWLIB/src/stm32f4xx_usart.c ****   }
 448              		.loc 1 342 5 is_stmt 1 view .LVU136
 342:Drivers/STM32F4xx_FWLIB/src/stm32f4xx_usart.c ****   }
 449              		.loc 1 342 37 is_stmt 0 view .LVU137
 450 00b2 DA00     		lsls	r2, r3, #3
 342:Drivers/STM32F4xx_FWLIB/src/stm32f4xx_usart.c ****   }
 451              		.loc 1 342 42 view .LVU138
 452 00b4 3232     		adds	r2, r2, #50
 342:Drivers/STM32F4xx_FWLIB/src/stm32f4xx_usart.c ****   }
 453              		.loc 1 342 48 view .LVU139
 454 00b6 054B     		ldr	r3, .L32+4
 455              	.LVL68:
 342:Drivers/STM32F4xx_FWLIB/src/stm32f4xx_usart.c ****   }
 456              		.loc 1 342 48 view .LVU140
 457 00b8 A3FB0232 		umull	r3, r2, r3, r2
 342:Drivers/STM32F4xx_FWLIB/src/stm32f4xx_usart.c ****   }
 458              		.loc 1 342 56 view .LVU141
 459 00bc C2F34212 		ubfx	r2, r2, #5, #3
 342:Drivers/STM32F4xx_FWLIB/src/stm32f4xx_usart.c ****   }
 460              		.loc 1 342 12 view .LVU142
 461 00c0 42EA0503 		orr	r3, r2, r5
 462              	.LVL69:
 342:Drivers/STM32F4xx_FWLIB/src/stm32f4xx_usart.c ****   }
 463              		.loc 1 342 12 view .LVU143
 464 00c4 E8E7     		b	.L28
 465              	.L33:
ARM GAS  /tmp/cc5XfcFW.s 			page 16


 466 00c6 00BF     		.align	2
 467              	.L32:
 468 00c8 00100140 		.word	1073811456
 469 00cc 1F85EB51 		.word	1374389535
 470              		.cfi_endproc
 471              	.LFE131:
 473              		.section	.text.USART_StructInit,"ax",%progbits
 474              		.align	1
 475              		.global	USART_StructInit
 476              		.syntax unified
 477              		.thumb
 478              		.thumb_func
 479              		.fpu fpv4-sp-d16
 481              	USART_StructInit:
 482              	.LVL70:
 483              	.LFB132:
 352:Drivers/STM32F4xx_FWLIB/src/stm32f4xx_usart.c **** 
 353:Drivers/STM32F4xx_FWLIB/src/stm32f4xx_usart.c **** /**
 354:Drivers/STM32F4xx_FWLIB/src/stm32f4xx_usart.c ****   * @brief  Fills each USART_InitStruct member with its default value.
 355:Drivers/STM32F4xx_FWLIB/src/stm32f4xx_usart.c ****   * @param  USART_InitStruct: pointer to a USART_InitTypeDef structure which will
 356:Drivers/STM32F4xx_FWLIB/src/stm32f4xx_usart.c ****   *         be initialized.
 357:Drivers/STM32F4xx_FWLIB/src/stm32f4xx_usart.c ****   * @retval None
 358:Drivers/STM32F4xx_FWLIB/src/stm32f4xx_usart.c ****   */
 359:Drivers/STM32F4xx_FWLIB/src/stm32f4xx_usart.c **** void USART_StructInit(USART_InitTypeDef* USART_InitStruct)
 360:Drivers/STM32F4xx_FWLIB/src/stm32f4xx_usart.c **** {
 484              		.loc 1 360 1 is_stmt 1 view -0
 485              		.cfi_startproc
 486              		@ args = 0, pretend = 0, frame = 0
 487              		@ frame_needed = 0, uses_anonymous_args = 0
 488              		@ link register save eliminated.
 361:Drivers/STM32F4xx_FWLIB/src/stm32f4xx_usart.c ****   /* USART_InitStruct members default value */
 362:Drivers/STM32F4xx_FWLIB/src/stm32f4xx_usart.c ****   USART_InitStruct->USART_BaudRate = 9600;
 489              		.loc 1 362 3 view .LVU145
 490              		.loc 1 362 36 is_stmt 0 view .LVU146
 491 0000 4FF41653 		mov	r3, #9600
 492 0004 0360     		str	r3, [r0]
 363:Drivers/STM32F4xx_FWLIB/src/stm32f4xx_usart.c ****   USART_InitStruct->USART_WordLength = USART_WordLength_8b;
 493              		.loc 1 363 3 is_stmt 1 view .LVU147
 494              		.loc 1 363 38 is_stmt 0 view .LVU148
 495 0006 0023     		movs	r3, #0
 496 0008 8380     		strh	r3, [r0, #4]	@ movhi
 364:Drivers/STM32F4xx_FWLIB/src/stm32f4xx_usart.c ****   USART_InitStruct->USART_StopBits = USART_StopBits_1;
 497              		.loc 1 364 3 is_stmt 1 view .LVU149
 498              		.loc 1 364 36 is_stmt 0 view .LVU150
 499 000a C380     		strh	r3, [r0, #6]	@ movhi
 365:Drivers/STM32F4xx_FWLIB/src/stm32f4xx_usart.c ****   USART_InitStruct->USART_Parity = USART_Parity_No ;
 500              		.loc 1 365 3 is_stmt 1 view .LVU151
 501              		.loc 1 365 34 is_stmt 0 view .LVU152
 502 000c 0381     		strh	r3, [r0, #8]	@ movhi
 366:Drivers/STM32F4xx_FWLIB/src/stm32f4xx_usart.c ****   USART_InitStruct->USART_Mode = USART_Mode_Rx | USART_Mode_Tx;
 503              		.loc 1 366 3 is_stmt 1 view .LVU153
 504              		.loc 1 366 32 is_stmt 0 view .LVU154
 505 000e 0C22     		movs	r2, #12
 506 0010 4281     		strh	r2, [r0, #10]	@ movhi
 367:Drivers/STM32F4xx_FWLIB/src/stm32f4xx_usart.c ****   USART_InitStruct->USART_HardwareFlowControl = USART_HardwareFlowControl_None;  
 507              		.loc 1 367 3 is_stmt 1 view .LVU155
 508              		.loc 1 367 47 is_stmt 0 view .LVU156
ARM GAS  /tmp/cc5XfcFW.s 			page 17


 509 0012 8381     		strh	r3, [r0, #12]	@ movhi
 368:Drivers/STM32F4xx_FWLIB/src/stm32f4xx_usart.c **** }
 510              		.loc 1 368 1 view .LVU157
 511 0014 7047     		bx	lr
 512              		.cfi_endproc
 513              	.LFE132:
 515              		.section	.text.USART_ClockInit,"ax",%progbits
 516              		.align	1
 517              		.global	USART_ClockInit
 518              		.syntax unified
 519              		.thumb
 520              		.thumb_func
 521              		.fpu fpv4-sp-d16
 523              	USART_ClockInit:
 524              	.LVL71:
 525              	.LFB133:
 369:Drivers/STM32F4xx_FWLIB/src/stm32f4xx_usart.c **** 
 370:Drivers/STM32F4xx_FWLIB/src/stm32f4xx_usart.c **** /**
 371:Drivers/STM32F4xx_FWLIB/src/stm32f4xx_usart.c ****   * @brief  Initializes the USARTx peripheral Clock according to the 
 372:Drivers/STM32F4xx_FWLIB/src/stm32f4xx_usart.c ****   *         specified parameters in the USART_ClockInitStruct .
 373:Drivers/STM32F4xx_FWLIB/src/stm32f4xx_usart.c ****   * @param  USARTx: where x can be 1, 2, 3 or 6 to select the USART peripheral.
 374:Drivers/STM32F4xx_FWLIB/src/stm32f4xx_usart.c ****   * @param  USART_ClockInitStruct: pointer to a USART_ClockInitTypeDef structure that
 375:Drivers/STM32F4xx_FWLIB/src/stm32f4xx_usart.c ****   *         contains the configuration information for the specified  USART peripheral.
 376:Drivers/STM32F4xx_FWLIB/src/stm32f4xx_usart.c ****   * @note   The Smart Card and Synchronous modes are not available for UART4 and UART5.    
 377:Drivers/STM32F4xx_FWLIB/src/stm32f4xx_usart.c ****   * @retval None
 378:Drivers/STM32F4xx_FWLIB/src/stm32f4xx_usart.c ****   */
 379:Drivers/STM32F4xx_FWLIB/src/stm32f4xx_usart.c **** void USART_ClockInit(USART_TypeDef* USARTx, USART_ClockInitTypeDef* USART_ClockInitStruct)
 380:Drivers/STM32F4xx_FWLIB/src/stm32f4xx_usart.c **** {
 526              		.loc 1 380 1 is_stmt 1 view -0
 527              		.cfi_startproc
 528              		@ args = 0, pretend = 0, frame = 0
 529              		@ frame_needed = 0, uses_anonymous_args = 0
 530              		@ link register save eliminated.
 531              		.loc 1 380 1 is_stmt 0 view .LVU159
 532 0000 70B4     		push	{r4, r5, r6}
 533              	.LCFI5:
 534              		.cfi_def_cfa_offset 12
 535              		.cfi_offset 4, -12
 536              		.cfi_offset 5, -8
 537              		.cfi_offset 6, -4
 381:Drivers/STM32F4xx_FWLIB/src/stm32f4xx_usart.c ****   uint32_t tmpreg = 0x00;
 538              		.loc 1 381 3 is_stmt 1 view .LVU160
 539              	.LVL72:
 382:Drivers/STM32F4xx_FWLIB/src/stm32f4xx_usart.c ****   /* Check the parameters */
 383:Drivers/STM32F4xx_FWLIB/src/stm32f4xx_usart.c ****   assert_param(IS_USART_1236_PERIPH(USARTx));
 540              		.loc 1 383 3 view .LVU161
 384:Drivers/STM32F4xx_FWLIB/src/stm32f4xx_usart.c ****   assert_param(IS_USART_CLOCK(USART_ClockInitStruct->USART_Clock));
 541              		.loc 1 384 3 view .LVU162
 385:Drivers/STM32F4xx_FWLIB/src/stm32f4xx_usart.c ****   assert_param(IS_USART_CPOL(USART_ClockInitStruct->USART_CPOL));
 542              		.loc 1 385 3 view .LVU163
 386:Drivers/STM32F4xx_FWLIB/src/stm32f4xx_usart.c ****   assert_param(IS_USART_CPHA(USART_ClockInitStruct->USART_CPHA));
 543              		.loc 1 386 3 view .LVU164
 387:Drivers/STM32F4xx_FWLIB/src/stm32f4xx_usart.c ****   assert_param(IS_USART_LASTBIT(USART_ClockInitStruct->USART_LastBit));
 544              		.loc 1 387 3 view .LVU165
 388:Drivers/STM32F4xx_FWLIB/src/stm32f4xx_usart.c ****   
 389:Drivers/STM32F4xx_FWLIB/src/stm32f4xx_usart.c **** /*---------------------------- USART CR2 Configuration -----------------------*/
 390:Drivers/STM32F4xx_FWLIB/src/stm32f4xx_usart.c ****   tmpreg = USARTx->CR2;
ARM GAS  /tmp/cc5XfcFW.s 			page 18


 545              		.loc 1 390 3 view .LVU166
 546              		.loc 1 390 18 is_stmt 0 view .LVU167
 547 0002 038A     		ldrh	r3, [r0, #16]
 548 0004 9BB2     		uxth	r3, r3
 549              	.LVL73:
 391:Drivers/STM32F4xx_FWLIB/src/stm32f4xx_usart.c ****   /* Clear CLKEN, CPOL, CPHA and LBCL bits */
 392:Drivers/STM32F4xx_FWLIB/src/stm32f4xx_usart.c ****   tmpreg &= (uint32_t)~((uint32_t)CR2_CLOCK_CLEAR_MASK);
 550              		.loc 1 392 3 is_stmt 1 view .LVU168
 551              		.loc 1 392 10 is_stmt 0 view .LVU169
 552 0006 23F47062 		bic	r2, r3, #3840
 553              	.LVL74:
 393:Drivers/STM32F4xx_FWLIB/src/stm32f4xx_usart.c ****   /* Configure the USART Clock, CPOL, CPHA and LastBit ------------*/
 394:Drivers/STM32F4xx_FWLIB/src/stm32f4xx_usart.c ****   /* Set CLKEN bit according to USART_Clock value */
 395:Drivers/STM32F4xx_FWLIB/src/stm32f4xx_usart.c ****   /* Set CPOL bit according to USART_CPOL value */
 396:Drivers/STM32F4xx_FWLIB/src/stm32f4xx_usart.c ****   /* Set CPHA bit according to USART_CPHA value */
 397:Drivers/STM32F4xx_FWLIB/src/stm32f4xx_usart.c ****   /* Set LBCL bit according to USART_LastBit value */
 398:Drivers/STM32F4xx_FWLIB/src/stm32f4xx_usart.c ****   tmpreg |= (uint32_t)USART_ClockInitStruct->USART_Clock | USART_ClockInitStruct->USART_CPOL | 
 554              		.loc 1 398 3 is_stmt 1 view .LVU170
 555              		.loc 1 398 44 is_stmt 0 view .LVU171
 556 000a 0D88     		ldrh	r5, [r1]
 557              		.loc 1 398 81 view .LVU172
 558 000c 4E88     		ldrh	r6, [r1, #2]
 399:Drivers/STM32F4xx_FWLIB/src/stm32f4xx_usart.c ****                  USART_ClockInitStruct->USART_CPHA | USART_ClockInitStruct->USART_LastBit;
 559              		.loc 1 399 39 view .LVU173
 560 000e 8C88     		ldrh	r4, [r1, #4]
 561              		.loc 1 399 75 view .LVU174
 562 0010 CB88     		ldrh	r3, [r1, #6]
 563              		.loc 1 399 52 view .LVU175
 564 0012 45EA0601 		orr	r1, r5, r6
 565              	.LVL75:
 566              		.loc 1 399 52 view .LVU176
 567 0016 2143     		orrs	r1, r1, r4
 568 0018 0B43     		orrs	r3, r3, r1
 569              	.LVL76:
 400:Drivers/STM32F4xx_FWLIB/src/stm32f4xx_usart.c ****   /* Write to USART CR2 */
 401:Drivers/STM32F4xx_FWLIB/src/stm32f4xx_usart.c ****   USARTx->CR2 = (uint16_t)tmpreg;
 570              		.loc 1 401 3 is_stmt 1 view .LVU177
 571              		.loc 1 401 17 is_stmt 0 view .LVU178
 572 001a 1343     		orrs	r3, r3, r2
 573              	.LVL77:
 574              		.loc 1 401 15 view .LVU179
 575 001c 0382     		strh	r3, [r0, #16]	@ movhi
 402:Drivers/STM32F4xx_FWLIB/src/stm32f4xx_usart.c **** }
 576              		.loc 1 402 1 view .LVU180
 577 001e 70BC     		pop	{r4, r5, r6}
 578              	.LCFI6:
 579              		.cfi_restore 6
 580              		.cfi_restore 5
 581              		.cfi_restore 4
 582              		.cfi_def_cfa_offset 0
 583 0020 7047     		bx	lr
 584              		.cfi_endproc
 585              	.LFE133:
 587              		.section	.text.USART_ClockStructInit,"ax",%progbits
 588              		.align	1
 589              		.global	USART_ClockStructInit
 590              		.syntax unified
ARM GAS  /tmp/cc5XfcFW.s 			page 19


 591              		.thumb
 592              		.thumb_func
 593              		.fpu fpv4-sp-d16
 595              	USART_ClockStructInit:
 596              	.LVL78:
 597              	.LFB134:
 403:Drivers/STM32F4xx_FWLIB/src/stm32f4xx_usart.c **** 
 404:Drivers/STM32F4xx_FWLIB/src/stm32f4xx_usart.c **** /**
 405:Drivers/STM32F4xx_FWLIB/src/stm32f4xx_usart.c ****   * @brief  Fills each USART_ClockInitStruct member with its default value.
 406:Drivers/STM32F4xx_FWLIB/src/stm32f4xx_usart.c ****   * @param  USART_ClockInitStruct: pointer to a USART_ClockInitTypeDef structure
 407:Drivers/STM32F4xx_FWLIB/src/stm32f4xx_usart.c ****   *         which will be initialized.
 408:Drivers/STM32F4xx_FWLIB/src/stm32f4xx_usart.c ****   * @retval None
 409:Drivers/STM32F4xx_FWLIB/src/stm32f4xx_usart.c ****   */
 410:Drivers/STM32F4xx_FWLIB/src/stm32f4xx_usart.c **** void USART_ClockStructInit(USART_ClockInitTypeDef* USART_ClockInitStruct)
 411:Drivers/STM32F4xx_FWLIB/src/stm32f4xx_usart.c **** {
 598              		.loc 1 411 1 is_stmt 1 view -0
 599              		.cfi_startproc
 600              		@ args = 0, pretend = 0, frame = 0
 601              		@ frame_needed = 0, uses_anonymous_args = 0
 602              		@ link register save eliminated.
 412:Drivers/STM32F4xx_FWLIB/src/stm32f4xx_usart.c ****   /* USART_ClockInitStruct members default value */
 413:Drivers/STM32F4xx_FWLIB/src/stm32f4xx_usart.c ****   USART_ClockInitStruct->USART_Clock = USART_Clock_Disable;
 603              		.loc 1 413 3 view .LVU182
 604              		.loc 1 413 38 is_stmt 0 view .LVU183
 605 0000 0023     		movs	r3, #0
 606 0002 0380     		strh	r3, [r0]	@ movhi
 414:Drivers/STM32F4xx_FWLIB/src/stm32f4xx_usart.c ****   USART_ClockInitStruct->USART_CPOL = USART_CPOL_Low;
 607              		.loc 1 414 3 is_stmt 1 view .LVU184
 608              		.loc 1 414 37 is_stmt 0 view .LVU185
 609 0004 4380     		strh	r3, [r0, #2]	@ movhi
 415:Drivers/STM32F4xx_FWLIB/src/stm32f4xx_usart.c ****   USART_ClockInitStruct->USART_CPHA = USART_CPHA_1Edge;
 610              		.loc 1 415 3 is_stmt 1 view .LVU186
 611              		.loc 1 415 37 is_stmt 0 view .LVU187
 612 0006 8380     		strh	r3, [r0, #4]	@ movhi
 416:Drivers/STM32F4xx_FWLIB/src/stm32f4xx_usart.c ****   USART_ClockInitStruct->USART_LastBit = USART_LastBit_Disable;
 613              		.loc 1 416 3 is_stmt 1 view .LVU188
 614              		.loc 1 416 40 is_stmt 0 view .LVU189
 615 0008 C380     		strh	r3, [r0, #6]	@ movhi
 417:Drivers/STM32F4xx_FWLIB/src/stm32f4xx_usart.c **** }
 616              		.loc 1 417 1 view .LVU190
 617 000a 7047     		bx	lr
 618              		.cfi_endproc
 619              	.LFE134:
 621              		.section	.text.USART_Cmd,"ax",%progbits
 622              		.align	1
 623              		.global	USART_Cmd
 624              		.syntax unified
 625              		.thumb
 626              		.thumb_func
 627              		.fpu fpv4-sp-d16
 629              	USART_Cmd:
 630              	.LVL79:
 631              	.LFB135:
 418:Drivers/STM32F4xx_FWLIB/src/stm32f4xx_usart.c **** 
 419:Drivers/STM32F4xx_FWLIB/src/stm32f4xx_usart.c **** /**
 420:Drivers/STM32F4xx_FWLIB/src/stm32f4xx_usart.c ****   * @brief  Enables or disables the specified USART peripheral.
 421:Drivers/STM32F4xx_FWLIB/src/stm32f4xx_usart.c ****   * @param  USARTx: where x can be 1, 2, 3, 4, 5, 6, 7 or 8 to select the USART or 
ARM GAS  /tmp/cc5XfcFW.s 			page 20


 422:Drivers/STM32F4xx_FWLIB/src/stm32f4xx_usart.c ****   *         UART peripheral.
 423:Drivers/STM32F4xx_FWLIB/src/stm32f4xx_usart.c ****   * @param  NewState: new state of the USARTx peripheral.
 424:Drivers/STM32F4xx_FWLIB/src/stm32f4xx_usart.c ****   *          This parameter can be: ENABLE or DISABLE.
 425:Drivers/STM32F4xx_FWLIB/src/stm32f4xx_usart.c ****   * @retval None
 426:Drivers/STM32F4xx_FWLIB/src/stm32f4xx_usart.c ****   */
 427:Drivers/STM32F4xx_FWLIB/src/stm32f4xx_usart.c **** void USART_Cmd(USART_TypeDef* USARTx, FunctionalState NewState)
 428:Drivers/STM32F4xx_FWLIB/src/stm32f4xx_usart.c **** {
 632              		.loc 1 428 1 is_stmt 1 view -0
 633              		.cfi_startproc
 634              		@ args = 0, pretend = 0, frame = 0
 635              		@ frame_needed = 0, uses_anonymous_args = 0
 636              		@ link register save eliminated.
 429:Drivers/STM32F4xx_FWLIB/src/stm32f4xx_usart.c ****   /* Check the parameters */
 430:Drivers/STM32F4xx_FWLIB/src/stm32f4xx_usart.c ****   assert_param(IS_USART_ALL_PERIPH(USARTx));
 637              		.loc 1 430 3 view .LVU192
 431:Drivers/STM32F4xx_FWLIB/src/stm32f4xx_usart.c ****   assert_param(IS_FUNCTIONAL_STATE(NewState));
 638              		.loc 1 431 3 view .LVU193
 432:Drivers/STM32F4xx_FWLIB/src/stm32f4xx_usart.c ****   
 433:Drivers/STM32F4xx_FWLIB/src/stm32f4xx_usart.c ****   if (NewState != DISABLE)
 639              		.loc 1 433 3 view .LVU194
 640              		.loc 1 433 6 is_stmt 0 view .LVU195
 641 0000 29B1     		cbz	r1, .L39
 434:Drivers/STM32F4xx_FWLIB/src/stm32f4xx_usart.c ****   {
 435:Drivers/STM32F4xx_FWLIB/src/stm32f4xx_usart.c ****     /* Enable the selected USART by setting the UE bit in the CR1 register */
 436:Drivers/STM32F4xx_FWLIB/src/stm32f4xx_usart.c ****     USARTx->CR1 |= USART_CR1_UE;
 642              		.loc 1 436 5 is_stmt 1 view .LVU196
 643              		.loc 1 436 17 is_stmt 0 view .LVU197
 644 0002 8389     		ldrh	r3, [r0, #12]
 645 0004 9BB2     		uxth	r3, r3
 646 0006 43F40053 		orr	r3, r3, #8192
 647 000a 8381     		strh	r3, [r0, #12]	@ movhi
 648 000c 7047     		bx	lr
 649              	.L39:
 437:Drivers/STM32F4xx_FWLIB/src/stm32f4xx_usart.c ****   }
 438:Drivers/STM32F4xx_FWLIB/src/stm32f4xx_usart.c ****   else
 439:Drivers/STM32F4xx_FWLIB/src/stm32f4xx_usart.c ****   {
 440:Drivers/STM32F4xx_FWLIB/src/stm32f4xx_usart.c ****     /* Disable the selected USART by clearing the UE bit in the CR1 register */
 441:Drivers/STM32F4xx_FWLIB/src/stm32f4xx_usart.c ****     USARTx->CR1 &= (uint16_t)~((uint16_t)USART_CR1_UE);
 650              		.loc 1 441 5 is_stmt 1 view .LVU198
 651              		.loc 1 441 17 is_stmt 0 view .LVU199
 652 000e 8389     		ldrh	r3, [r0, #12]
 653 0010 9BB2     		uxth	r3, r3
 654 0012 23F40053 		bic	r3, r3, #8192
 655 0016 9BB2     		uxth	r3, r3
 656 0018 8381     		strh	r3, [r0, #12]	@ movhi
 442:Drivers/STM32F4xx_FWLIB/src/stm32f4xx_usart.c ****   }
 443:Drivers/STM32F4xx_FWLIB/src/stm32f4xx_usart.c **** }
 657              		.loc 1 443 1 view .LVU200
 658 001a 7047     		bx	lr
 659              		.cfi_endproc
 660              	.LFE135:
 662              		.section	.text.USART_SetPrescaler,"ax",%progbits
 663              		.align	1
 664              		.global	USART_SetPrescaler
 665              		.syntax unified
 666              		.thumb
 667              		.thumb_func
ARM GAS  /tmp/cc5XfcFW.s 			page 21


 668              		.fpu fpv4-sp-d16
 670              	USART_SetPrescaler:
 671              	.LVL80:
 672              	.LFB136:
 444:Drivers/STM32F4xx_FWLIB/src/stm32f4xx_usart.c **** 
 445:Drivers/STM32F4xx_FWLIB/src/stm32f4xx_usart.c **** /**
 446:Drivers/STM32F4xx_FWLIB/src/stm32f4xx_usart.c ****   * @brief  Sets the system clock prescaler.
 447:Drivers/STM32F4xx_FWLIB/src/stm32f4xx_usart.c ****   * @param  USARTx: where x can be 1, 2, 3, 4, 5, 6, 7 or 8 to select the USART or 
 448:Drivers/STM32F4xx_FWLIB/src/stm32f4xx_usart.c ****   *         UART peripheral.
 449:Drivers/STM32F4xx_FWLIB/src/stm32f4xx_usart.c ****   * @param  USART_Prescaler: specifies the prescaler clock. 
 450:Drivers/STM32F4xx_FWLIB/src/stm32f4xx_usart.c ****   * @note   The function is used for IrDA mode with UART4 and UART5.   
 451:Drivers/STM32F4xx_FWLIB/src/stm32f4xx_usart.c ****   * @retval None
 452:Drivers/STM32F4xx_FWLIB/src/stm32f4xx_usart.c ****   */
 453:Drivers/STM32F4xx_FWLIB/src/stm32f4xx_usart.c **** void USART_SetPrescaler(USART_TypeDef* USARTx, uint8_t USART_Prescaler)
 454:Drivers/STM32F4xx_FWLIB/src/stm32f4xx_usart.c **** { 
 673              		.loc 1 454 1 is_stmt 1 view -0
 674              		.cfi_startproc
 675              		@ args = 0, pretend = 0, frame = 0
 676              		@ frame_needed = 0, uses_anonymous_args = 0
 677              		@ link register save eliminated.
 455:Drivers/STM32F4xx_FWLIB/src/stm32f4xx_usart.c ****   /* Check the parameters */
 456:Drivers/STM32F4xx_FWLIB/src/stm32f4xx_usart.c ****   assert_param(IS_USART_ALL_PERIPH(USARTx));
 678              		.loc 1 456 3 view .LVU202
 457:Drivers/STM32F4xx_FWLIB/src/stm32f4xx_usart.c ****   
 458:Drivers/STM32F4xx_FWLIB/src/stm32f4xx_usart.c ****   /* Clear the USART prescaler */
 459:Drivers/STM32F4xx_FWLIB/src/stm32f4xx_usart.c ****   USARTx->GTPR &= USART_GTPR_GT;
 679              		.loc 1 459 3 view .LVU203
 680              		.loc 1 459 16 is_stmt 0 view .LVU204
 681 0000 028B     		ldrh	r2, [r0, #24]
 682 0002 02F47F42 		and	r2, r2, #65280
 683 0006 0283     		strh	r2, [r0, #24]	@ movhi
 460:Drivers/STM32F4xx_FWLIB/src/stm32f4xx_usart.c ****   /* Set the USART prescaler */
 461:Drivers/STM32F4xx_FWLIB/src/stm32f4xx_usart.c ****   USARTx->GTPR |= USART_Prescaler;
 684              		.loc 1 461 3 is_stmt 1 view .LVU205
 685              		.loc 1 461 16 is_stmt 0 view .LVU206
 686 0008 038B     		ldrh	r3, [r0, #24]
 687 000a 9BB2     		uxth	r3, r3
 688 000c 0B43     		orrs	r3, r3, r1
 689 000e 0383     		strh	r3, [r0, #24]	@ movhi
 462:Drivers/STM32F4xx_FWLIB/src/stm32f4xx_usart.c **** }
 690              		.loc 1 462 1 view .LVU207
 691 0010 7047     		bx	lr
 692              		.cfi_endproc
 693              	.LFE136:
 695              		.section	.text.USART_OverSampling8Cmd,"ax",%progbits
 696              		.align	1
 697              		.global	USART_OverSampling8Cmd
 698              		.syntax unified
 699              		.thumb
 700              		.thumb_func
 701              		.fpu fpv4-sp-d16
 703              	USART_OverSampling8Cmd:
 704              	.LVL81:
 705              	.LFB137:
 463:Drivers/STM32F4xx_FWLIB/src/stm32f4xx_usart.c **** 
 464:Drivers/STM32F4xx_FWLIB/src/stm32f4xx_usart.c **** /**
 465:Drivers/STM32F4xx_FWLIB/src/stm32f4xx_usart.c ****   * @brief  Enables or disables the USART's 8x oversampling mode.
ARM GAS  /tmp/cc5XfcFW.s 			page 22


 466:Drivers/STM32F4xx_FWLIB/src/stm32f4xx_usart.c ****   * @note   This function has to be called before calling USART_Init() function
 467:Drivers/STM32F4xx_FWLIB/src/stm32f4xx_usart.c ****   *         in order to have correct baudrate Divider value.
 468:Drivers/STM32F4xx_FWLIB/src/stm32f4xx_usart.c ****   * @param  USARTx: where x can be 1, 2, 3, 4, 5, 6, 7 or 8 to select the USART or 
 469:Drivers/STM32F4xx_FWLIB/src/stm32f4xx_usart.c ****   *         UART peripheral.
 470:Drivers/STM32F4xx_FWLIB/src/stm32f4xx_usart.c ****   * @param  NewState: new state of the USART 8x oversampling mode.
 471:Drivers/STM32F4xx_FWLIB/src/stm32f4xx_usart.c ****   *          This parameter can be: ENABLE or DISABLE.
 472:Drivers/STM32F4xx_FWLIB/src/stm32f4xx_usart.c ****   * @retval None
 473:Drivers/STM32F4xx_FWLIB/src/stm32f4xx_usart.c ****   */
 474:Drivers/STM32F4xx_FWLIB/src/stm32f4xx_usart.c **** void USART_OverSampling8Cmd(USART_TypeDef* USARTx, FunctionalState NewState)
 475:Drivers/STM32F4xx_FWLIB/src/stm32f4xx_usart.c **** {
 706              		.loc 1 475 1 is_stmt 1 view -0
 707              		.cfi_startproc
 708              		@ args = 0, pretend = 0, frame = 0
 709              		@ frame_needed = 0, uses_anonymous_args = 0
 710              		@ link register save eliminated.
 476:Drivers/STM32F4xx_FWLIB/src/stm32f4xx_usart.c ****   /* Check the parameters */
 477:Drivers/STM32F4xx_FWLIB/src/stm32f4xx_usart.c ****   assert_param(IS_USART_ALL_PERIPH(USARTx));
 711              		.loc 1 477 3 view .LVU209
 478:Drivers/STM32F4xx_FWLIB/src/stm32f4xx_usart.c ****   assert_param(IS_FUNCTIONAL_STATE(NewState));
 712              		.loc 1 478 3 view .LVU210
 479:Drivers/STM32F4xx_FWLIB/src/stm32f4xx_usart.c ****   
 480:Drivers/STM32F4xx_FWLIB/src/stm32f4xx_usart.c ****   if (NewState != DISABLE)
 713              		.loc 1 480 3 view .LVU211
 714              		.loc 1 480 6 is_stmt 0 view .LVU212
 715 0000 39B1     		cbz	r1, .L43
 481:Drivers/STM32F4xx_FWLIB/src/stm32f4xx_usart.c ****   {
 482:Drivers/STM32F4xx_FWLIB/src/stm32f4xx_usart.c ****     /* Enable the 8x Oversampling mode by setting the OVER8 bit in the CR1 register */
 483:Drivers/STM32F4xx_FWLIB/src/stm32f4xx_usart.c ****     USARTx->CR1 |= USART_CR1_OVER8;
 716              		.loc 1 483 5 is_stmt 1 view .LVU213
 717              		.loc 1 483 17 is_stmt 0 view .LVU214
 718 0002 8389     		ldrh	r3, [r0, #12]
 719 0004 6FEA4343 		mvn	r3, r3, lsl #17
 720 0008 6FEA5343 		mvn	r3, r3, lsr #17
 721 000c 9BB2     		uxth	r3, r3
 722 000e 8381     		strh	r3, [r0, #12]	@ movhi
 723 0010 7047     		bx	lr
 724              	.L43:
 484:Drivers/STM32F4xx_FWLIB/src/stm32f4xx_usart.c ****   }
 485:Drivers/STM32F4xx_FWLIB/src/stm32f4xx_usart.c ****   else
 486:Drivers/STM32F4xx_FWLIB/src/stm32f4xx_usart.c ****   {
 487:Drivers/STM32F4xx_FWLIB/src/stm32f4xx_usart.c ****     /* Disable the 8x Oversampling mode by clearing the OVER8 bit in the CR1 register */
 488:Drivers/STM32F4xx_FWLIB/src/stm32f4xx_usart.c ****     USARTx->CR1 &= (uint16_t)~((uint16_t)USART_CR1_OVER8);
 725              		.loc 1 488 5 is_stmt 1 view .LVU215
 726              		.loc 1 488 17 is_stmt 0 view .LVU216
 727 0012 8389     		ldrh	r3, [r0, #12]
 728 0014 C3F30E03 		ubfx	r3, r3, #0, #15
 729 0018 8381     		strh	r3, [r0, #12]	@ movhi
 489:Drivers/STM32F4xx_FWLIB/src/stm32f4xx_usart.c ****   }
 490:Drivers/STM32F4xx_FWLIB/src/stm32f4xx_usart.c **** }  
 730              		.loc 1 490 1 view .LVU217
 731 001a 7047     		bx	lr
 732              		.cfi_endproc
 733              	.LFE137:
 735              		.section	.text.USART_OneBitMethodCmd,"ax",%progbits
 736              		.align	1
 737              		.global	USART_OneBitMethodCmd
 738              		.syntax unified
ARM GAS  /tmp/cc5XfcFW.s 			page 23


 739              		.thumb
 740              		.thumb_func
 741              		.fpu fpv4-sp-d16
 743              	USART_OneBitMethodCmd:
 744              	.LVL82:
 745              	.LFB138:
 491:Drivers/STM32F4xx_FWLIB/src/stm32f4xx_usart.c **** 
 492:Drivers/STM32F4xx_FWLIB/src/stm32f4xx_usart.c **** /**
 493:Drivers/STM32F4xx_FWLIB/src/stm32f4xx_usart.c ****   * @brief  Enables or disables the USART's one bit sampling method.
 494:Drivers/STM32F4xx_FWLIB/src/stm32f4xx_usart.c ****   * @param  USARTx: where x can be 1, 2, 3, 4, 5, 6, 7 or 8 to select the USART or 
 495:Drivers/STM32F4xx_FWLIB/src/stm32f4xx_usart.c ****   *         UART peripheral.
 496:Drivers/STM32F4xx_FWLIB/src/stm32f4xx_usart.c ****   * @param  NewState: new state of the USART one bit sampling method.
 497:Drivers/STM32F4xx_FWLIB/src/stm32f4xx_usart.c ****   *          This parameter can be: ENABLE or DISABLE.
 498:Drivers/STM32F4xx_FWLIB/src/stm32f4xx_usart.c ****   * @retval None
 499:Drivers/STM32F4xx_FWLIB/src/stm32f4xx_usart.c ****   */
 500:Drivers/STM32F4xx_FWLIB/src/stm32f4xx_usart.c **** void USART_OneBitMethodCmd(USART_TypeDef* USARTx, FunctionalState NewState)
 501:Drivers/STM32F4xx_FWLIB/src/stm32f4xx_usart.c **** {
 746              		.loc 1 501 1 is_stmt 1 view -0
 747              		.cfi_startproc
 748              		@ args = 0, pretend = 0, frame = 0
 749              		@ frame_needed = 0, uses_anonymous_args = 0
 750              		@ link register save eliminated.
 502:Drivers/STM32F4xx_FWLIB/src/stm32f4xx_usart.c ****   /* Check the parameters */
 503:Drivers/STM32F4xx_FWLIB/src/stm32f4xx_usart.c ****   assert_param(IS_USART_ALL_PERIPH(USARTx));
 751              		.loc 1 503 3 view .LVU219
 504:Drivers/STM32F4xx_FWLIB/src/stm32f4xx_usart.c ****   assert_param(IS_FUNCTIONAL_STATE(NewState));
 752              		.loc 1 504 3 view .LVU220
 505:Drivers/STM32F4xx_FWLIB/src/stm32f4xx_usart.c ****   
 506:Drivers/STM32F4xx_FWLIB/src/stm32f4xx_usart.c ****   if (NewState != DISABLE)
 753              		.loc 1 506 3 view .LVU221
 754              		.loc 1 506 6 is_stmt 0 view .LVU222
 755 0000 29B1     		cbz	r1, .L46
 507:Drivers/STM32F4xx_FWLIB/src/stm32f4xx_usart.c ****   {
 508:Drivers/STM32F4xx_FWLIB/src/stm32f4xx_usart.c ****     /* Enable the one bit method by setting the ONEBITE bit in the CR3 register */
 509:Drivers/STM32F4xx_FWLIB/src/stm32f4xx_usart.c ****     USARTx->CR3 |= USART_CR3_ONEBIT;
 756              		.loc 1 509 5 is_stmt 1 view .LVU223
 757              		.loc 1 509 17 is_stmt 0 view .LVU224
 758 0002 838A     		ldrh	r3, [r0, #20]
 759 0004 9BB2     		uxth	r3, r3
 760 0006 43F40063 		orr	r3, r3, #2048
 761 000a 8382     		strh	r3, [r0, #20]	@ movhi
 762 000c 7047     		bx	lr
 763              	.L46:
 510:Drivers/STM32F4xx_FWLIB/src/stm32f4xx_usart.c ****   }
 511:Drivers/STM32F4xx_FWLIB/src/stm32f4xx_usart.c ****   else
 512:Drivers/STM32F4xx_FWLIB/src/stm32f4xx_usart.c ****   {
 513:Drivers/STM32F4xx_FWLIB/src/stm32f4xx_usart.c ****     /* Disable the one bit method by clearing the ONEBITE bit in the CR3 register */
 514:Drivers/STM32F4xx_FWLIB/src/stm32f4xx_usart.c ****     USARTx->CR3 &= (uint16_t)~((uint16_t)USART_CR3_ONEBIT);
 764              		.loc 1 514 5 is_stmt 1 view .LVU225
 765              		.loc 1 514 17 is_stmt 0 view .LVU226
 766 000e 838A     		ldrh	r3, [r0, #20]
 767 0010 9BB2     		uxth	r3, r3
 768 0012 23F40063 		bic	r3, r3, #2048
 769 0016 9BB2     		uxth	r3, r3
 770 0018 8382     		strh	r3, [r0, #20]	@ movhi
 515:Drivers/STM32F4xx_FWLIB/src/stm32f4xx_usart.c ****   }
 516:Drivers/STM32F4xx_FWLIB/src/stm32f4xx_usart.c **** }
ARM GAS  /tmp/cc5XfcFW.s 			page 24


 771              		.loc 1 516 1 view .LVU227
 772 001a 7047     		bx	lr
 773              		.cfi_endproc
 774              	.LFE138:
 776              		.section	.text.USART_SendData,"ax",%progbits
 777              		.align	1
 778              		.global	USART_SendData
 779              		.syntax unified
 780              		.thumb
 781              		.thumb_func
 782              		.fpu fpv4-sp-d16
 784              	USART_SendData:
 785              	.LVL83:
 786              	.LFB139:
 517:Drivers/STM32F4xx_FWLIB/src/stm32f4xx_usart.c **** 
 518:Drivers/STM32F4xx_FWLIB/src/stm32f4xx_usart.c **** /**
 519:Drivers/STM32F4xx_FWLIB/src/stm32f4xx_usart.c ****   * @}
 520:Drivers/STM32F4xx_FWLIB/src/stm32f4xx_usart.c ****   */
 521:Drivers/STM32F4xx_FWLIB/src/stm32f4xx_usart.c **** 
 522:Drivers/STM32F4xx_FWLIB/src/stm32f4xx_usart.c **** /** @defgroup USART_Group2 Data transfers functions
 523:Drivers/STM32F4xx_FWLIB/src/stm32f4xx_usart.c ****  *  @brief   Data transfers functions 
 524:Drivers/STM32F4xx_FWLIB/src/stm32f4xx_usart.c ****  *
 525:Drivers/STM32F4xx_FWLIB/src/stm32f4xx_usart.c **** @verbatim   
 526:Drivers/STM32F4xx_FWLIB/src/stm32f4xx_usart.c ****  ===============================================================================
 527:Drivers/STM32F4xx_FWLIB/src/stm32f4xx_usart.c ****                       ##### Data transfers functions #####
 528:Drivers/STM32F4xx_FWLIB/src/stm32f4xx_usart.c ****  ===============================================================================  
 529:Drivers/STM32F4xx_FWLIB/src/stm32f4xx_usart.c ****     [..]
 530:Drivers/STM32F4xx_FWLIB/src/stm32f4xx_usart.c ****     This subsection provides a set of functions allowing to manage the USART data 
 531:Drivers/STM32F4xx_FWLIB/src/stm32f4xx_usart.c ****     transfers.
 532:Drivers/STM32F4xx_FWLIB/src/stm32f4xx_usart.c ****     [..]
 533:Drivers/STM32F4xx_FWLIB/src/stm32f4xx_usart.c ****     During an USART reception, data shifts in least significant bit first through 
 534:Drivers/STM32F4xx_FWLIB/src/stm32f4xx_usart.c ****     the RX pin. In this mode, the USART_DR register consists of a buffer (RDR) 
 535:Drivers/STM32F4xx_FWLIB/src/stm32f4xx_usart.c ****     between the internal bus and the received shift register.
 536:Drivers/STM32F4xx_FWLIB/src/stm32f4xx_usart.c ****     [..]
 537:Drivers/STM32F4xx_FWLIB/src/stm32f4xx_usart.c ****     When a transmission is taking place, a write instruction to the USART_DR register 
 538:Drivers/STM32F4xx_FWLIB/src/stm32f4xx_usart.c ****     stores the data in the TDR register and which is copied in the shift register 
 539:Drivers/STM32F4xx_FWLIB/src/stm32f4xx_usart.c ****     at the end of the current transmission.
 540:Drivers/STM32F4xx_FWLIB/src/stm32f4xx_usart.c ****     [..]
 541:Drivers/STM32F4xx_FWLIB/src/stm32f4xx_usart.c ****     The read access of the USART_DR register can be done using the USART_ReceiveData()
 542:Drivers/STM32F4xx_FWLIB/src/stm32f4xx_usart.c ****     function and returns the RDR buffered value. Whereas a write access to the USART_DR 
 543:Drivers/STM32F4xx_FWLIB/src/stm32f4xx_usart.c ****     can be done using USART_SendData() function and stores the written data into 
 544:Drivers/STM32F4xx_FWLIB/src/stm32f4xx_usart.c ****     TDR buffer.
 545:Drivers/STM32F4xx_FWLIB/src/stm32f4xx_usart.c **** 
 546:Drivers/STM32F4xx_FWLIB/src/stm32f4xx_usart.c **** @endverbatim
 547:Drivers/STM32F4xx_FWLIB/src/stm32f4xx_usart.c ****   * @{
 548:Drivers/STM32F4xx_FWLIB/src/stm32f4xx_usart.c ****   */
 549:Drivers/STM32F4xx_FWLIB/src/stm32f4xx_usart.c **** 
 550:Drivers/STM32F4xx_FWLIB/src/stm32f4xx_usart.c **** /**
 551:Drivers/STM32F4xx_FWLIB/src/stm32f4xx_usart.c ****   * @brief  Transmits single data through the USARTx peripheral.
 552:Drivers/STM32F4xx_FWLIB/src/stm32f4xx_usart.c ****   * @param  USARTx: where x can be 1, 2, 3, 4, 5, 6, 7 or 8 to select the USART or 
 553:Drivers/STM32F4xx_FWLIB/src/stm32f4xx_usart.c ****   *         UART peripheral.
 554:Drivers/STM32F4xx_FWLIB/src/stm32f4xx_usart.c ****   * @param  Data: the data to transmit.
 555:Drivers/STM32F4xx_FWLIB/src/stm32f4xx_usart.c ****   * @retval None
 556:Drivers/STM32F4xx_FWLIB/src/stm32f4xx_usart.c ****   */
 557:Drivers/STM32F4xx_FWLIB/src/stm32f4xx_usart.c **** void USART_SendData(USART_TypeDef* USARTx, uint16_t Data)
 558:Drivers/STM32F4xx_FWLIB/src/stm32f4xx_usart.c **** {
 787              		.loc 1 558 1 is_stmt 1 view -0
ARM GAS  /tmp/cc5XfcFW.s 			page 25


 788              		.cfi_startproc
 789              		@ args = 0, pretend = 0, frame = 0
 790              		@ frame_needed = 0, uses_anonymous_args = 0
 791              		@ link register save eliminated.
 559:Drivers/STM32F4xx_FWLIB/src/stm32f4xx_usart.c ****   /* Check the parameters */
 560:Drivers/STM32F4xx_FWLIB/src/stm32f4xx_usart.c ****   assert_param(IS_USART_ALL_PERIPH(USARTx));
 792              		.loc 1 560 3 view .LVU229
 561:Drivers/STM32F4xx_FWLIB/src/stm32f4xx_usart.c ****   assert_param(IS_USART_DATA(Data)); 
 793              		.loc 1 561 3 view .LVU230
 562:Drivers/STM32F4xx_FWLIB/src/stm32f4xx_usart.c ****     
 563:Drivers/STM32F4xx_FWLIB/src/stm32f4xx_usart.c ****   /* Transmit Data */
 564:Drivers/STM32F4xx_FWLIB/src/stm32f4xx_usart.c ****   USARTx->DR = (Data & (uint16_t)0x01FF);
 794              		.loc 1 564 3 view .LVU231
 795              		.loc 1 564 22 is_stmt 0 view .LVU232
 796 0000 C1F30801 		ubfx	r1, r1, #0, #9
 797              	.LVL84:
 798              		.loc 1 564 14 view .LVU233
 799 0004 8180     		strh	r1, [r0, #4]	@ movhi
 565:Drivers/STM32F4xx_FWLIB/src/stm32f4xx_usart.c **** }
 800              		.loc 1 565 1 view .LVU234
 801 0006 7047     		bx	lr
 802              		.cfi_endproc
 803              	.LFE139:
 805              		.section	.text.USART_ReceiveData,"ax",%progbits
 806              		.align	1
 807              		.global	USART_ReceiveData
 808              		.syntax unified
 809              		.thumb
 810              		.thumb_func
 811              		.fpu fpv4-sp-d16
 813              	USART_ReceiveData:
 814              	.LVL85:
 815              	.LFB140:
 566:Drivers/STM32F4xx_FWLIB/src/stm32f4xx_usart.c **** 
 567:Drivers/STM32F4xx_FWLIB/src/stm32f4xx_usart.c **** /**
 568:Drivers/STM32F4xx_FWLIB/src/stm32f4xx_usart.c ****   * @brief  Returns the most recent received data by the USARTx peripheral.
 569:Drivers/STM32F4xx_FWLIB/src/stm32f4xx_usart.c ****   * @param  USARTx: where x can be 1, 2, 3, 4, 5, 6, 7 or 8 to select the USART or 
 570:Drivers/STM32F4xx_FWLIB/src/stm32f4xx_usart.c ****   *         UART peripheral.
 571:Drivers/STM32F4xx_FWLIB/src/stm32f4xx_usart.c ****   * @retval The received data.
 572:Drivers/STM32F4xx_FWLIB/src/stm32f4xx_usart.c ****   */
 573:Drivers/STM32F4xx_FWLIB/src/stm32f4xx_usart.c **** uint16_t USART_ReceiveData(USART_TypeDef* USARTx)
 574:Drivers/STM32F4xx_FWLIB/src/stm32f4xx_usart.c **** {
 816              		.loc 1 574 1 is_stmt 1 view -0
 817              		.cfi_startproc
 818              		@ args = 0, pretend = 0, frame = 0
 819              		@ frame_needed = 0, uses_anonymous_args = 0
 820              		@ link register save eliminated.
 575:Drivers/STM32F4xx_FWLIB/src/stm32f4xx_usart.c ****   /* Check the parameters */
 576:Drivers/STM32F4xx_FWLIB/src/stm32f4xx_usart.c ****   assert_param(IS_USART_ALL_PERIPH(USARTx));
 821              		.loc 1 576 3 view .LVU236
 577:Drivers/STM32F4xx_FWLIB/src/stm32f4xx_usart.c ****   
 578:Drivers/STM32F4xx_FWLIB/src/stm32f4xx_usart.c ****   /* Receive Data */
 579:Drivers/STM32F4xx_FWLIB/src/stm32f4xx_usart.c ****   return (uint16_t)(USARTx->DR & (uint16_t)0x01FF);
 822              		.loc 1 579 3 view .LVU237
 823              		.loc 1 579 27 is_stmt 0 view .LVU238
 824 0000 8088     		ldrh	r0, [r0, #4]
 825              	.LVL86:
ARM GAS  /tmp/cc5XfcFW.s 			page 26


 580:Drivers/STM32F4xx_FWLIB/src/stm32f4xx_usart.c **** }
 826              		.loc 1 580 1 view .LVU239
 827 0002 C0F30800 		ubfx	r0, r0, #0, #9
 828 0006 7047     		bx	lr
 829              		.cfi_endproc
 830              	.LFE140:
 832              		.section	.text.USART_SetAddress,"ax",%progbits
 833              		.align	1
 834              		.global	USART_SetAddress
 835              		.syntax unified
 836              		.thumb
 837              		.thumb_func
 838              		.fpu fpv4-sp-d16
 840              	USART_SetAddress:
 841              	.LVL87:
 842              	.LFB141:
 581:Drivers/STM32F4xx_FWLIB/src/stm32f4xx_usart.c **** 
 582:Drivers/STM32F4xx_FWLIB/src/stm32f4xx_usart.c **** /**
 583:Drivers/STM32F4xx_FWLIB/src/stm32f4xx_usart.c ****   * @}
 584:Drivers/STM32F4xx_FWLIB/src/stm32f4xx_usart.c ****   */
 585:Drivers/STM32F4xx_FWLIB/src/stm32f4xx_usart.c **** 
 586:Drivers/STM32F4xx_FWLIB/src/stm32f4xx_usart.c **** /** @defgroup USART_Group3 MultiProcessor Communication functions
 587:Drivers/STM32F4xx_FWLIB/src/stm32f4xx_usart.c ****  *  @brief   Multi-Processor Communication functions 
 588:Drivers/STM32F4xx_FWLIB/src/stm32f4xx_usart.c ****  *
 589:Drivers/STM32F4xx_FWLIB/src/stm32f4xx_usart.c **** @verbatim   
 590:Drivers/STM32F4xx_FWLIB/src/stm32f4xx_usart.c ****  ===============================================================================
 591:Drivers/STM32F4xx_FWLIB/src/stm32f4xx_usart.c ****               ##### Multi-Processor Communication functions #####
 592:Drivers/STM32F4xx_FWLIB/src/stm32f4xx_usart.c ****  ===============================================================================  
 593:Drivers/STM32F4xx_FWLIB/src/stm32f4xx_usart.c ****     [..]
 594:Drivers/STM32F4xx_FWLIB/src/stm32f4xx_usart.c ****     This subsection provides a set of functions allowing to manage the USART 
 595:Drivers/STM32F4xx_FWLIB/src/stm32f4xx_usart.c ****     multiprocessor communication.
 596:Drivers/STM32F4xx_FWLIB/src/stm32f4xx_usart.c ****     [..]
 597:Drivers/STM32F4xx_FWLIB/src/stm32f4xx_usart.c ****     For instance one of the USARTs can be the master, its TX output is connected 
 598:Drivers/STM32F4xx_FWLIB/src/stm32f4xx_usart.c ****     to the RX input of the other USART. The others are slaves, their respective 
 599:Drivers/STM32F4xx_FWLIB/src/stm32f4xx_usart.c ****     TX outputs are logically ANDed together and connected to the RX input of the 
 600:Drivers/STM32F4xx_FWLIB/src/stm32f4xx_usart.c ****     master.
 601:Drivers/STM32F4xx_FWLIB/src/stm32f4xx_usart.c ****     [..]
 602:Drivers/STM32F4xx_FWLIB/src/stm32f4xx_usart.c ****     USART multiprocessor communication is possible through the following procedure:
 603:Drivers/STM32F4xx_FWLIB/src/stm32f4xx_usart.c ****       (#) Program the Baud rate, Word length = 9 bits, Stop bits, Parity, Mode 
 604:Drivers/STM32F4xx_FWLIB/src/stm32f4xx_usart.c ****           transmitter or Mode receiver and hardware flow control values using 
 605:Drivers/STM32F4xx_FWLIB/src/stm32f4xx_usart.c ****           the USART_Init() function.
 606:Drivers/STM32F4xx_FWLIB/src/stm32f4xx_usart.c ****       (#) Configures the USART address using the USART_SetAddress() function.
 607:Drivers/STM32F4xx_FWLIB/src/stm32f4xx_usart.c ****       (#) Configures the wake up method (USART_WakeUp_IdleLine or USART_WakeUp_AddressMark)
 608:Drivers/STM32F4xx_FWLIB/src/stm32f4xx_usart.c ****           using USART_WakeUpConfig() function only for the slaves.
 609:Drivers/STM32F4xx_FWLIB/src/stm32f4xx_usart.c ****       (#) Enable the USART using the USART_Cmd() function.
 610:Drivers/STM32F4xx_FWLIB/src/stm32f4xx_usart.c ****       (#) Enter the USART slaves in mute mode using USART_ReceiverWakeUpCmd() function.
 611:Drivers/STM32F4xx_FWLIB/src/stm32f4xx_usart.c ****     [..]
 612:Drivers/STM32F4xx_FWLIB/src/stm32f4xx_usart.c ****     The USART Slave exit from mute mode when receive the wake up condition.
 613:Drivers/STM32F4xx_FWLIB/src/stm32f4xx_usart.c **** 
 614:Drivers/STM32F4xx_FWLIB/src/stm32f4xx_usart.c **** @endverbatim
 615:Drivers/STM32F4xx_FWLIB/src/stm32f4xx_usart.c ****   * @{
 616:Drivers/STM32F4xx_FWLIB/src/stm32f4xx_usart.c ****   */
 617:Drivers/STM32F4xx_FWLIB/src/stm32f4xx_usart.c **** 
 618:Drivers/STM32F4xx_FWLIB/src/stm32f4xx_usart.c **** /**
 619:Drivers/STM32F4xx_FWLIB/src/stm32f4xx_usart.c ****   * @brief  Sets the address of the USART node.
 620:Drivers/STM32F4xx_FWLIB/src/stm32f4xx_usart.c ****   * @param  USARTx: where x can be 1, 2, 3, 4, 5, 6, 7 or 8 to select the USART or 
 621:Drivers/STM32F4xx_FWLIB/src/stm32f4xx_usart.c ****   *         UART peripheral.
ARM GAS  /tmp/cc5XfcFW.s 			page 27


 622:Drivers/STM32F4xx_FWLIB/src/stm32f4xx_usart.c ****   * @param  USART_Address: Indicates the address of the USART node.
 623:Drivers/STM32F4xx_FWLIB/src/stm32f4xx_usart.c ****   * @retval None
 624:Drivers/STM32F4xx_FWLIB/src/stm32f4xx_usart.c ****   */
 625:Drivers/STM32F4xx_FWLIB/src/stm32f4xx_usart.c **** void USART_SetAddress(USART_TypeDef* USARTx, uint8_t USART_Address)
 626:Drivers/STM32F4xx_FWLIB/src/stm32f4xx_usart.c **** {
 843              		.loc 1 626 1 is_stmt 1 view -0
 844              		.cfi_startproc
 845              		@ args = 0, pretend = 0, frame = 0
 846              		@ frame_needed = 0, uses_anonymous_args = 0
 847              		@ link register save eliminated.
 627:Drivers/STM32F4xx_FWLIB/src/stm32f4xx_usart.c ****   /* Check the parameters */
 628:Drivers/STM32F4xx_FWLIB/src/stm32f4xx_usart.c ****   assert_param(IS_USART_ALL_PERIPH(USARTx));
 848              		.loc 1 628 3 view .LVU241
 629:Drivers/STM32F4xx_FWLIB/src/stm32f4xx_usart.c ****   assert_param(IS_USART_ADDRESS(USART_Address)); 
 849              		.loc 1 629 3 view .LVU242
 630:Drivers/STM32F4xx_FWLIB/src/stm32f4xx_usart.c ****     
 631:Drivers/STM32F4xx_FWLIB/src/stm32f4xx_usart.c ****   /* Clear the USART address */
 632:Drivers/STM32F4xx_FWLIB/src/stm32f4xx_usart.c ****   USARTx->CR2 &= (uint16_t)~((uint16_t)USART_CR2_ADD);
 850              		.loc 1 632 3 view .LVU243
 851              		.loc 1 632 15 is_stmt 0 view .LVU244
 852 0000 038A     		ldrh	r3, [r0, #16]
 853 0002 9BB2     		uxth	r3, r3
 854 0004 23F00F03 		bic	r3, r3, #15
 855 0008 9BB2     		uxth	r3, r3
 856 000a 0382     		strh	r3, [r0, #16]	@ movhi
 633:Drivers/STM32F4xx_FWLIB/src/stm32f4xx_usart.c ****   /* Set the USART address node */
 634:Drivers/STM32F4xx_FWLIB/src/stm32f4xx_usart.c ****   USARTx->CR2 |= USART_Address;
 857              		.loc 1 634 3 is_stmt 1 view .LVU245
 858              		.loc 1 634 15 is_stmt 0 view .LVU246
 859 000c 038A     		ldrh	r3, [r0, #16]
 860 000e 9BB2     		uxth	r3, r3
 861 0010 0B43     		orrs	r3, r3, r1
 862 0012 0382     		strh	r3, [r0, #16]	@ movhi
 635:Drivers/STM32F4xx_FWLIB/src/stm32f4xx_usart.c **** }
 863              		.loc 1 635 1 view .LVU247
 864 0014 7047     		bx	lr
 865              		.cfi_endproc
 866              	.LFE141:
 868              		.section	.text.USART_ReceiverWakeUpCmd,"ax",%progbits
 869              		.align	1
 870              		.global	USART_ReceiverWakeUpCmd
 871              		.syntax unified
 872              		.thumb
 873              		.thumb_func
 874              		.fpu fpv4-sp-d16
 876              	USART_ReceiverWakeUpCmd:
 877              	.LVL88:
 878              	.LFB142:
 636:Drivers/STM32F4xx_FWLIB/src/stm32f4xx_usart.c **** 
 637:Drivers/STM32F4xx_FWLIB/src/stm32f4xx_usart.c **** /**
 638:Drivers/STM32F4xx_FWLIB/src/stm32f4xx_usart.c ****   * @brief  Determines if the USART is in mute mode or not.
 639:Drivers/STM32F4xx_FWLIB/src/stm32f4xx_usart.c ****   * @param  USARTx: where x can be 1, 2, 3, 4, 5, 6, 7 or 8 to select the USART or 
 640:Drivers/STM32F4xx_FWLIB/src/stm32f4xx_usart.c ****   *         UART peripheral.
 641:Drivers/STM32F4xx_FWLIB/src/stm32f4xx_usart.c ****   * @param  NewState: new state of the USART mute mode.
 642:Drivers/STM32F4xx_FWLIB/src/stm32f4xx_usart.c ****   *          This parameter can be: ENABLE or DISABLE.
 643:Drivers/STM32F4xx_FWLIB/src/stm32f4xx_usart.c ****   * @retval None
 644:Drivers/STM32F4xx_FWLIB/src/stm32f4xx_usart.c ****   */
ARM GAS  /tmp/cc5XfcFW.s 			page 28


 645:Drivers/STM32F4xx_FWLIB/src/stm32f4xx_usart.c **** void USART_ReceiverWakeUpCmd(USART_TypeDef* USARTx, FunctionalState NewState)
 646:Drivers/STM32F4xx_FWLIB/src/stm32f4xx_usart.c **** {
 879              		.loc 1 646 1 is_stmt 1 view -0
 880              		.cfi_startproc
 881              		@ args = 0, pretend = 0, frame = 0
 882              		@ frame_needed = 0, uses_anonymous_args = 0
 883              		@ link register save eliminated.
 647:Drivers/STM32F4xx_FWLIB/src/stm32f4xx_usart.c ****   /* Check the parameters */
 648:Drivers/STM32F4xx_FWLIB/src/stm32f4xx_usart.c ****   assert_param(IS_USART_ALL_PERIPH(USARTx));
 884              		.loc 1 648 3 view .LVU249
 649:Drivers/STM32F4xx_FWLIB/src/stm32f4xx_usart.c ****   assert_param(IS_FUNCTIONAL_STATE(NewState)); 
 885              		.loc 1 649 3 view .LVU250
 650:Drivers/STM32F4xx_FWLIB/src/stm32f4xx_usart.c ****   
 651:Drivers/STM32F4xx_FWLIB/src/stm32f4xx_usart.c ****   if (NewState != DISABLE)
 886              		.loc 1 651 3 view .LVU251
 887              		.loc 1 651 6 is_stmt 0 view .LVU252
 888 0000 29B1     		cbz	r1, .L52
 652:Drivers/STM32F4xx_FWLIB/src/stm32f4xx_usart.c ****   {
 653:Drivers/STM32F4xx_FWLIB/src/stm32f4xx_usart.c ****     /* Enable the USART mute mode  by setting the RWU bit in the CR1 register */
 654:Drivers/STM32F4xx_FWLIB/src/stm32f4xx_usart.c ****     USARTx->CR1 |= USART_CR1_RWU;
 889              		.loc 1 654 5 is_stmt 1 view .LVU253
 890              		.loc 1 654 17 is_stmt 0 view .LVU254
 891 0002 8389     		ldrh	r3, [r0, #12]
 892 0004 9BB2     		uxth	r3, r3
 893 0006 43F00203 		orr	r3, r3, #2
 894 000a 8381     		strh	r3, [r0, #12]	@ movhi
 895 000c 7047     		bx	lr
 896              	.L52:
 655:Drivers/STM32F4xx_FWLIB/src/stm32f4xx_usart.c ****   }
 656:Drivers/STM32F4xx_FWLIB/src/stm32f4xx_usart.c ****   else
 657:Drivers/STM32F4xx_FWLIB/src/stm32f4xx_usart.c ****   {
 658:Drivers/STM32F4xx_FWLIB/src/stm32f4xx_usart.c ****     /* Disable the USART mute mode by clearing the RWU bit in the CR1 register */
 659:Drivers/STM32F4xx_FWLIB/src/stm32f4xx_usart.c ****     USARTx->CR1 &= (uint16_t)~((uint16_t)USART_CR1_RWU);
 897              		.loc 1 659 5 is_stmt 1 view .LVU255
 898              		.loc 1 659 17 is_stmt 0 view .LVU256
 899 000e 8389     		ldrh	r3, [r0, #12]
 900 0010 9BB2     		uxth	r3, r3
 901 0012 23F00203 		bic	r3, r3, #2
 902 0016 9BB2     		uxth	r3, r3
 903 0018 8381     		strh	r3, [r0, #12]	@ movhi
 660:Drivers/STM32F4xx_FWLIB/src/stm32f4xx_usart.c ****   }
 661:Drivers/STM32F4xx_FWLIB/src/stm32f4xx_usart.c **** }
 904              		.loc 1 661 1 view .LVU257
 905 001a 7047     		bx	lr
 906              		.cfi_endproc
 907              	.LFE142:
 909              		.section	.text.USART_WakeUpConfig,"ax",%progbits
 910              		.align	1
 911              		.global	USART_WakeUpConfig
 912              		.syntax unified
 913              		.thumb
 914              		.thumb_func
 915              		.fpu fpv4-sp-d16
 917              	USART_WakeUpConfig:
 918              	.LVL89:
 919              	.LFB143:
 662:Drivers/STM32F4xx_FWLIB/src/stm32f4xx_usart.c **** /**
ARM GAS  /tmp/cc5XfcFW.s 			page 29


 663:Drivers/STM32F4xx_FWLIB/src/stm32f4xx_usart.c ****   * @brief  Selects the USART WakeUp method.
 664:Drivers/STM32F4xx_FWLIB/src/stm32f4xx_usart.c ****   * @param  USARTx: where x can be 1, 2, 3, 4, 5, 6, 7 or 8 to select the USART or 
 665:Drivers/STM32F4xx_FWLIB/src/stm32f4xx_usart.c ****   *         UART peripheral.
 666:Drivers/STM32F4xx_FWLIB/src/stm32f4xx_usart.c ****   * @param  USART_WakeUp: specifies the USART wakeup method.
 667:Drivers/STM32F4xx_FWLIB/src/stm32f4xx_usart.c ****   *          This parameter can be one of the following values:
 668:Drivers/STM32F4xx_FWLIB/src/stm32f4xx_usart.c ****   *            @arg USART_WakeUp_IdleLine: WakeUp by an idle line detection
 669:Drivers/STM32F4xx_FWLIB/src/stm32f4xx_usart.c ****   *            @arg USART_WakeUp_AddressMark: WakeUp by an address mark
 670:Drivers/STM32F4xx_FWLIB/src/stm32f4xx_usart.c ****   * @retval None
 671:Drivers/STM32F4xx_FWLIB/src/stm32f4xx_usart.c ****   */
 672:Drivers/STM32F4xx_FWLIB/src/stm32f4xx_usart.c **** void USART_WakeUpConfig(USART_TypeDef* USARTx, uint16_t USART_WakeUp)
 673:Drivers/STM32F4xx_FWLIB/src/stm32f4xx_usart.c **** {
 920              		.loc 1 673 1 is_stmt 1 view -0
 921              		.cfi_startproc
 922              		@ args = 0, pretend = 0, frame = 0
 923              		@ frame_needed = 0, uses_anonymous_args = 0
 924              		@ link register save eliminated.
 674:Drivers/STM32F4xx_FWLIB/src/stm32f4xx_usart.c ****   /* Check the parameters */
 675:Drivers/STM32F4xx_FWLIB/src/stm32f4xx_usart.c ****   assert_param(IS_USART_ALL_PERIPH(USARTx));
 925              		.loc 1 675 3 view .LVU259
 676:Drivers/STM32F4xx_FWLIB/src/stm32f4xx_usart.c ****   assert_param(IS_USART_WAKEUP(USART_WakeUp));
 926              		.loc 1 676 3 view .LVU260
 677:Drivers/STM32F4xx_FWLIB/src/stm32f4xx_usart.c ****   
 678:Drivers/STM32F4xx_FWLIB/src/stm32f4xx_usart.c ****   USARTx->CR1 &= (uint16_t)~((uint16_t)USART_CR1_WAKE);
 927              		.loc 1 678 3 view .LVU261
 928              		.loc 1 678 15 is_stmt 0 view .LVU262
 929 0000 8389     		ldrh	r3, [r0, #12]
 930 0002 9BB2     		uxth	r3, r3
 931 0004 23F40063 		bic	r3, r3, #2048
 932 0008 9BB2     		uxth	r3, r3
 933 000a 8381     		strh	r3, [r0, #12]	@ movhi
 679:Drivers/STM32F4xx_FWLIB/src/stm32f4xx_usart.c ****   USARTx->CR1 |= USART_WakeUp;
 934              		.loc 1 679 3 is_stmt 1 view .LVU263
 935              		.loc 1 679 15 is_stmt 0 view .LVU264
 936 000c 8389     		ldrh	r3, [r0, #12]
 937 000e 9BB2     		uxth	r3, r3
 938 0010 0B43     		orrs	r3, r3, r1
 939 0012 8381     		strh	r3, [r0, #12]	@ movhi
 680:Drivers/STM32F4xx_FWLIB/src/stm32f4xx_usart.c **** }
 940              		.loc 1 680 1 view .LVU265
 941 0014 7047     		bx	lr
 942              		.cfi_endproc
 943              	.LFE143:
 945              		.section	.text.USART_LINBreakDetectLengthConfig,"ax",%progbits
 946              		.align	1
 947              		.global	USART_LINBreakDetectLengthConfig
 948              		.syntax unified
 949              		.thumb
 950              		.thumb_func
 951              		.fpu fpv4-sp-d16
 953              	USART_LINBreakDetectLengthConfig:
 954              	.LVL90:
 955              	.LFB144:
 681:Drivers/STM32F4xx_FWLIB/src/stm32f4xx_usart.c **** 
 682:Drivers/STM32F4xx_FWLIB/src/stm32f4xx_usart.c **** /**
 683:Drivers/STM32F4xx_FWLIB/src/stm32f4xx_usart.c ****   * @}
 684:Drivers/STM32F4xx_FWLIB/src/stm32f4xx_usart.c ****   */
 685:Drivers/STM32F4xx_FWLIB/src/stm32f4xx_usart.c **** 
ARM GAS  /tmp/cc5XfcFW.s 			page 30


 686:Drivers/STM32F4xx_FWLIB/src/stm32f4xx_usart.c **** /** @defgroup USART_Group4 LIN mode functions
 687:Drivers/STM32F4xx_FWLIB/src/stm32f4xx_usart.c ****  *  @brief   LIN mode functions 
 688:Drivers/STM32F4xx_FWLIB/src/stm32f4xx_usart.c ****  *
 689:Drivers/STM32F4xx_FWLIB/src/stm32f4xx_usart.c **** @verbatim   
 690:Drivers/STM32F4xx_FWLIB/src/stm32f4xx_usart.c ****  ===============================================================================
 691:Drivers/STM32F4xx_FWLIB/src/stm32f4xx_usart.c ****                         ##### LIN mode functions #####
 692:Drivers/STM32F4xx_FWLIB/src/stm32f4xx_usart.c ****  ===============================================================================  
 693:Drivers/STM32F4xx_FWLIB/src/stm32f4xx_usart.c ****     [..]
 694:Drivers/STM32F4xx_FWLIB/src/stm32f4xx_usart.c ****     This subsection provides a set of functions allowing to manage the USART LIN 
 695:Drivers/STM32F4xx_FWLIB/src/stm32f4xx_usart.c ****     Mode communication.
 696:Drivers/STM32F4xx_FWLIB/src/stm32f4xx_usart.c ****     [..]
 697:Drivers/STM32F4xx_FWLIB/src/stm32f4xx_usart.c ****     In LIN mode, 8-bit data format with 1 stop bit is required in accordance with 
 698:Drivers/STM32F4xx_FWLIB/src/stm32f4xx_usart.c ****     the LIN standard.
 699:Drivers/STM32F4xx_FWLIB/src/stm32f4xx_usart.c ****     [..]
 700:Drivers/STM32F4xx_FWLIB/src/stm32f4xx_usart.c ****     Only this LIN Feature is supported by the USART IP:
 701:Drivers/STM32F4xx_FWLIB/src/stm32f4xx_usart.c ****       (+) LIN Master Synchronous Break send capability and LIN slave break detection
 702:Drivers/STM32F4xx_FWLIB/src/stm32f4xx_usart.c ****           capability :  13-bit break generation and 10/11 bit break detection
 703:Drivers/STM32F4xx_FWLIB/src/stm32f4xx_usart.c **** 
 704:Drivers/STM32F4xx_FWLIB/src/stm32f4xx_usart.c ****     [..]
 705:Drivers/STM32F4xx_FWLIB/src/stm32f4xx_usart.c ****     USART LIN Master transmitter communication is possible through the following 
 706:Drivers/STM32F4xx_FWLIB/src/stm32f4xx_usart.c ****     procedure:
 707:Drivers/STM32F4xx_FWLIB/src/stm32f4xx_usart.c ****       (#) Program the Baud rate, Word length = 8bits, Stop bits = 1bit, Parity, 
 708:Drivers/STM32F4xx_FWLIB/src/stm32f4xx_usart.c ****         Mode transmitter or Mode receiver and hardware flow control values using 
 709:Drivers/STM32F4xx_FWLIB/src/stm32f4xx_usart.c ****         the USART_Init() function.
 710:Drivers/STM32F4xx_FWLIB/src/stm32f4xx_usart.c ****       (#) Enable the USART using the USART_Cmd() function.
 711:Drivers/STM32F4xx_FWLIB/src/stm32f4xx_usart.c ****       (#) Enable the LIN mode using the USART_LINCmd() function.
 712:Drivers/STM32F4xx_FWLIB/src/stm32f4xx_usart.c ****       (#) Send the break character using USART_SendBreak() function.
 713:Drivers/STM32F4xx_FWLIB/src/stm32f4xx_usart.c ****     [..]
 714:Drivers/STM32F4xx_FWLIB/src/stm32f4xx_usart.c ****     USART LIN Master receiver communication is possible through the following procedure:
 715:Drivers/STM32F4xx_FWLIB/src/stm32f4xx_usart.c ****       (#) Program the Baud rate, Word length = 8bits, Stop bits = 1bit, Parity, 
 716:Drivers/STM32F4xx_FWLIB/src/stm32f4xx_usart.c ****           Mode transmitter or Mode receiver and hardware flow control values using 
 717:Drivers/STM32F4xx_FWLIB/src/stm32f4xx_usart.c ****           the USART_Init() function.
 718:Drivers/STM32F4xx_FWLIB/src/stm32f4xx_usart.c ****       (#) Enable the USART using the USART_Cmd() function.
 719:Drivers/STM32F4xx_FWLIB/src/stm32f4xx_usart.c ****       (#) Configures the break detection length using the USART_LINBreakDetectLengthConfig()
 720:Drivers/STM32F4xx_FWLIB/src/stm32f4xx_usart.c ****           function.
 721:Drivers/STM32F4xx_FWLIB/src/stm32f4xx_usart.c ****       (#) Enable the LIN mode using the USART_LINCmd() function.
 722:Drivers/STM32F4xx_FWLIB/src/stm32f4xx_usart.c **** 
 723:Drivers/STM32F4xx_FWLIB/src/stm32f4xx_usart.c ****       -@- In LIN mode, the following bits must be kept cleared:
 724:Drivers/STM32F4xx_FWLIB/src/stm32f4xx_usart.c ****        (+@) CLKEN in the USART_CR2 register,
 725:Drivers/STM32F4xx_FWLIB/src/stm32f4xx_usart.c ****        (+@) STOP[1:0], SCEN, HDSEL and IREN in the USART_CR3 register.
 726:Drivers/STM32F4xx_FWLIB/src/stm32f4xx_usart.c **** 
 727:Drivers/STM32F4xx_FWLIB/src/stm32f4xx_usart.c **** @endverbatim
 728:Drivers/STM32F4xx_FWLIB/src/stm32f4xx_usart.c ****   * @{
 729:Drivers/STM32F4xx_FWLIB/src/stm32f4xx_usart.c ****   */
 730:Drivers/STM32F4xx_FWLIB/src/stm32f4xx_usart.c **** 
 731:Drivers/STM32F4xx_FWLIB/src/stm32f4xx_usart.c **** /**
 732:Drivers/STM32F4xx_FWLIB/src/stm32f4xx_usart.c ****   * @brief  Sets the USART LIN Break detection length.
 733:Drivers/STM32F4xx_FWLIB/src/stm32f4xx_usart.c ****   * @param  USARTx: where x can be 1, 2, 3, 4, 5, 6, 7 or 8 to select the USART or 
 734:Drivers/STM32F4xx_FWLIB/src/stm32f4xx_usart.c ****   *         UART peripheral.
 735:Drivers/STM32F4xx_FWLIB/src/stm32f4xx_usart.c ****   * @param  USART_LINBreakDetectLength: specifies the LIN break detection length.
 736:Drivers/STM32F4xx_FWLIB/src/stm32f4xx_usart.c ****   *          This parameter can be one of the following values:
 737:Drivers/STM32F4xx_FWLIB/src/stm32f4xx_usart.c ****   *            @arg USART_LINBreakDetectLength_10b: 10-bit break detection
 738:Drivers/STM32F4xx_FWLIB/src/stm32f4xx_usart.c ****   *            @arg USART_LINBreakDetectLength_11b: 11-bit break detection
 739:Drivers/STM32F4xx_FWLIB/src/stm32f4xx_usart.c ****   * @retval None
 740:Drivers/STM32F4xx_FWLIB/src/stm32f4xx_usart.c ****   */
 741:Drivers/STM32F4xx_FWLIB/src/stm32f4xx_usart.c **** void USART_LINBreakDetectLengthConfig(USART_TypeDef* USARTx, uint16_t USART_LINBreakDetectLength)
 742:Drivers/STM32F4xx_FWLIB/src/stm32f4xx_usart.c **** {
ARM GAS  /tmp/cc5XfcFW.s 			page 31


 956              		.loc 1 742 1 is_stmt 1 view -0
 957              		.cfi_startproc
 958              		@ args = 0, pretend = 0, frame = 0
 959              		@ frame_needed = 0, uses_anonymous_args = 0
 960              		@ link register save eliminated.
 743:Drivers/STM32F4xx_FWLIB/src/stm32f4xx_usart.c ****   /* Check the parameters */
 744:Drivers/STM32F4xx_FWLIB/src/stm32f4xx_usart.c ****   assert_param(IS_USART_ALL_PERIPH(USARTx));
 961              		.loc 1 744 3 view .LVU267
 745:Drivers/STM32F4xx_FWLIB/src/stm32f4xx_usart.c ****   assert_param(IS_USART_LIN_BREAK_DETECT_LENGTH(USART_LINBreakDetectLength));
 962              		.loc 1 745 3 view .LVU268
 746:Drivers/STM32F4xx_FWLIB/src/stm32f4xx_usart.c ****   
 747:Drivers/STM32F4xx_FWLIB/src/stm32f4xx_usart.c ****   USARTx->CR2 &= (uint16_t)~((uint16_t)USART_CR2_LBDL);
 963              		.loc 1 747 3 view .LVU269
 964              		.loc 1 747 15 is_stmt 0 view .LVU270
 965 0000 038A     		ldrh	r3, [r0, #16]
 966 0002 9BB2     		uxth	r3, r3
 967 0004 23F02003 		bic	r3, r3, #32
 968 0008 9BB2     		uxth	r3, r3
 969 000a 0382     		strh	r3, [r0, #16]	@ movhi
 748:Drivers/STM32F4xx_FWLIB/src/stm32f4xx_usart.c ****   USARTx->CR2 |= USART_LINBreakDetectLength;  
 970              		.loc 1 748 3 is_stmt 1 view .LVU271
 971              		.loc 1 748 15 is_stmt 0 view .LVU272
 972 000c 038A     		ldrh	r3, [r0, #16]
 973 000e 9BB2     		uxth	r3, r3
 974 0010 0B43     		orrs	r3, r3, r1
 975 0012 0382     		strh	r3, [r0, #16]	@ movhi
 749:Drivers/STM32F4xx_FWLIB/src/stm32f4xx_usart.c **** }
 976              		.loc 1 749 1 view .LVU273
 977 0014 7047     		bx	lr
 978              		.cfi_endproc
 979              	.LFE144:
 981              		.section	.text.USART_LINCmd,"ax",%progbits
 982              		.align	1
 983              		.global	USART_LINCmd
 984              		.syntax unified
 985              		.thumb
 986              		.thumb_func
 987              		.fpu fpv4-sp-d16
 989              	USART_LINCmd:
 990              	.LVL91:
 991              	.LFB145:
 750:Drivers/STM32F4xx_FWLIB/src/stm32f4xx_usart.c **** 
 751:Drivers/STM32F4xx_FWLIB/src/stm32f4xx_usart.c **** /**
 752:Drivers/STM32F4xx_FWLIB/src/stm32f4xx_usart.c ****   * @brief  Enables or disables the USART's LIN mode.
 753:Drivers/STM32F4xx_FWLIB/src/stm32f4xx_usart.c ****   * @param  USARTx: where x can be 1, 2, 3, 4, 5, 6, 7 or 8 to select the USART or 
 754:Drivers/STM32F4xx_FWLIB/src/stm32f4xx_usart.c ****   *         UART peripheral.
 755:Drivers/STM32F4xx_FWLIB/src/stm32f4xx_usart.c ****   * @param  NewState: new state of the USART LIN mode.
 756:Drivers/STM32F4xx_FWLIB/src/stm32f4xx_usart.c ****   *          This parameter can be: ENABLE or DISABLE.
 757:Drivers/STM32F4xx_FWLIB/src/stm32f4xx_usart.c ****   * @retval None
 758:Drivers/STM32F4xx_FWLIB/src/stm32f4xx_usart.c ****   */
 759:Drivers/STM32F4xx_FWLIB/src/stm32f4xx_usart.c **** void USART_LINCmd(USART_TypeDef* USARTx, FunctionalState NewState)
 760:Drivers/STM32F4xx_FWLIB/src/stm32f4xx_usart.c **** {
 992              		.loc 1 760 1 is_stmt 1 view -0
 993              		.cfi_startproc
 994              		@ args = 0, pretend = 0, frame = 0
 995              		@ frame_needed = 0, uses_anonymous_args = 0
 996              		@ link register save eliminated.
ARM GAS  /tmp/cc5XfcFW.s 			page 32


 761:Drivers/STM32F4xx_FWLIB/src/stm32f4xx_usart.c ****   /* Check the parameters */
 762:Drivers/STM32F4xx_FWLIB/src/stm32f4xx_usart.c ****   assert_param(IS_USART_ALL_PERIPH(USARTx));
 997              		.loc 1 762 3 view .LVU275
 763:Drivers/STM32F4xx_FWLIB/src/stm32f4xx_usart.c ****   assert_param(IS_FUNCTIONAL_STATE(NewState));
 998              		.loc 1 763 3 view .LVU276
 764:Drivers/STM32F4xx_FWLIB/src/stm32f4xx_usart.c ****   
 765:Drivers/STM32F4xx_FWLIB/src/stm32f4xx_usart.c ****   if (NewState != DISABLE)
 999              		.loc 1 765 3 view .LVU277
 1000              		.loc 1 765 6 is_stmt 0 view .LVU278
 1001 0000 29B1     		cbz	r1, .L57
 766:Drivers/STM32F4xx_FWLIB/src/stm32f4xx_usart.c ****   {
 767:Drivers/STM32F4xx_FWLIB/src/stm32f4xx_usart.c ****     /* Enable the LIN mode by setting the LINEN bit in the CR2 register */
 768:Drivers/STM32F4xx_FWLIB/src/stm32f4xx_usart.c ****     USARTx->CR2 |= USART_CR2_LINEN;
 1002              		.loc 1 768 5 is_stmt 1 view .LVU279
 1003              		.loc 1 768 17 is_stmt 0 view .LVU280
 1004 0002 038A     		ldrh	r3, [r0, #16]
 1005 0004 9BB2     		uxth	r3, r3
 1006 0006 43F48043 		orr	r3, r3, #16384
 1007 000a 0382     		strh	r3, [r0, #16]	@ movhi
 1008 000c 7047     		bx	lr
 1009              	.L57:
 769:Drivers/STM32F4xx_FWLIB/src/stm32f4xx_usart.c ****   }
 770:Drivers/STM32F4xx_FWLIB/src/stm32f4xx_usart.c ****   else
 771:Drivers/STM32F4xx_FWLIB/src/stm32f4xx_usart.c ****   {
 772:Drivers/STM32F4xx_FWLIB/src/stm32f4xx_usart.c ****     /* Disable the LIN mode by clearing the LINEN bit in the CR2 register */
 773:Drivers/STM32F4xx_FWLIB/src/stm32f4xx_usart.c ****     USARTx->CR2 &= (uint16_t)~((uint16_t)USART_CR2_LINEN);
 1010              		.loc 1 773 5 is_stmt 1 view .LVU281
 1011              		.loc 1 773 17 is_stmt 0 view .LVU282
 1012 000e 038A     		ldrh	r3, [r0, #16]
 1013 0010 9BB2     		uxth	r3, r3
 1014 0012 23F48043 		bic	r3, r3, #16384
 1015 0016 9BB2     		uxth	r3, r3
 1016 0018 0382     		strh	r3, [r0, #16]	@ movhi
 774:Drivers/STM32F4xx_FWLIB/src/stm32f4xx_usart.c ****   }
 775:Drivers/STM32F4xx_FWLIB/src/stm32f4xx_usart.c **** }
 1017              		.loc 1 775 1 view .LVU283
 1018 001a 7047     		bx	lr
 1019              		.cfi_endproc
 1020              	.LFE145:
 1022              		.section	.text.USART_SendBreak,"ax",%progbits
 1023              		.align	1
 1024              		.global	USART_SendBreak
 1025              		.syntax unified
 1026              		.thumb
 1027              		.thumb_func
 1028              		.fpu fpv4-sp-d16
 1030              	USART_SendBreak:
 1031              	.LVL92:
 1032              	.LFB146:
 776:Drivers/STM32F4xx_FWLIB/src/stm32f4xx_usart.c **** 
 777:Drivers/STM32F4xx_FWLIB/src/stm32f4xx_usart.c **** /**
 778:Drivers/STM32F4xx_FWLIB/src/stm32f4xx_usart.c ****   * @brief  Transmits break characters.
 779:Drivers/STM32F4xx_FWLIB/src/stm32f4xx_usart.c ****   * @param  USARTx: where x can be 1, 2, 3, 4, 5, 6, 7 or 8 to select the USART or 
 780:Drivers/STM32F4xx_FWLIB/src/stm32f4xx_usart.c ****   *         UART peripheral.
 781:Drivers/STM32F4xx_FWLIB/src/stm32f4xx_usart.c ****   * @retval None
 782:Drivers/STM32F4xx_FWLIB/src/stm32f4xx_usart.c ****   */
 783:Drivers/STM32F4xx_FWLIB/src/stm32f4xx_usart.c **** void USART_SendBreak(USART_TypeDef* USARTx)
ARM GAS  /tmp/cc5XfcFW.s 			page 33


 784:Drivers/STM32F4xx_FWLIB/src/stm32f4xx_usart.c **** {
 1033              		.loc 1 784 1 is_stmt 1 view -0
 1034              		.cfi_startproc
 1035              		@ args = 0, pretend = 0, frame = 0
 1036              		@ frame_needed = 0, uses_anonymous_args = 0
 1037              		@ link register save eliminated.
 785:Drivers/STM32F4xx_FWLIB/src/stm32f4xx_usart.c ****   /* Check the parameters */
 786:Drivers/STM32F4xx_FWLIB/src/stm32f4xx_usart.c ****   assert_param(IS_USART_ALL_PERIPH(USARTx));
 1038              		.loc 1 786 3 view .LVU285
 787:Drivers/STM32F4xx_FWLIB/src/stm32f4xx_usart.c ****   
 788:Drivers/STM32F4xx_FWLIB/src/stm32f4xx_usart.c ****   /* Send break characters */
 789:Drivers/STM32F4xx_FWLIB/src/stm32f4xx_usart.c ****   USARTx->CR1 |= USART_CR1_SBK;
 1039              		.loc 1 789 3 view .LVU286
 1040              		.loc 1 789 15 is_stmt 0 view .LVU287
 1041 0000 8389     		ldrh	r3, [r0, #12]
 1042 0002 9BB2     		uxth	r3, r3
 1043 0004 43F00103 		orr	r3, r3, #1
 1044 0008 8381     		strh	r3, [r0, #12]	@ movhi
 790:Drivers/STM32F4xx_FWLIB/src/stm32f4xx_usart.c **** }
 1045              		.loc 1 790 1 view .LVU288
 1046 000a 7047     		bx	lr
 1047              		.cfi_endproc
 1048              	.LFE146:
 1050              		.section	.text.USART_HalfDuplexCmd,"ax",%progbits
 1051              		.align	1
 1052              		.global	USART_HalfDuplexCmd
 1053              		.syntax unified
 1054              		.thumb
 1055              		.thumb_func
 1056              		.fpu fpv4-sp-d16
 1058              	USART_HalfDuplexCmd:
 1059              	.LVL93:
 1060              	.LFB147:
 791:Drivers/STM32F4xx_FWLIB/src/stm32f4xx_usart.c **** 
 792:Drivers/STM32F4xx_FWLIB/src/stm32f4xx_usart.c **** /**
 793:Drivers/STM32F4xx_FWLIB/src/stm32f4xx_usart.c ****   * @}
 794:Drivers/STM32F4xx_FWLIB/src/stm32f4xx_usart.c ****   */
 795:Drivers/STM32F4xx_FWLIB/src/stm32f4xx_usart.c **** 
 796:Drivers/STM32F4xx_FWLIB/src/stm32f4xx_usart.c **** /** @defgroup USART_Group5 Halfduplex mode function
 797:Drivers/STM32F4xx_FWLIB/src/stm32f4xx_usart.c ****  *  @brief   Half-duplex mode function 
 798:Drivers/STM32F4xx_FWLIB/src/stm32f4xx_usart.c ****  *
 799:Drivers/STM32F4xx_FWLIB/src/stm32f4xx_usart.c **** @verbatim   
 800:Drivers/STM32F4xx_FWLIB/src/stm32f4xx_usart.c ****  ===============================================================================
 801:Drivers/STM32F4xx_FWLIB/src/stm32f4xx_usart.c ****                     ##### Half-duplex mode function #####
 802:Drivers/STM32F4xx_FWLIB/src/stm32f4xx_usart.c ****  ===============================================================================  
 803:Drivers/STM32F4xx_FWLIB/src/stm32f4xx_usart.c ****     [..]
 804:Drivers/STM32F4xx_FWLIB/src/stm32f4xx_usart.c ****     This subsection provides a set of functions allowing to manage the USART 
 805:Drivers/STM32F4xx_FWLIB/src/stm32f4xx_usart.c ****     Half-duplex communication.
 806:Drivers/STM32F4xx_FWLIB/src/stm32f4xx_usart.c ****     [..]
 807:Drivers/STM32F4xx_FWLIB/src/stm32f4xx_usart.c ****     The USART can be configured to follow a single-wire half-duplex protocol where 
 808:Drivers/STM32F4xx_FWLIB/src/stm32f4xx_usart.c ****     the TX and RX lines are internally connected.
 809:Drivers/STM32F4xx_FWLIB/src/stm32f4xx_usart.c ****     [..]
 810:Drivers/STM32F4xx_FWLIB/src/stm32f4xx_usart.c ****     USART Half duplex communication is possible through the following procedure:
 811:Drivers/STM32F4xx_FWLIB/src/stm32f4xx_usart.c ****       (#) Program the Baud rate, Word length, Stop bits, Parity, Mode transmitter 
 812:Drivers/STM32F4xx_FWLIB/src/stm32f4xx_usart.c ****           or Mode receiver and hardware flow control values using the USART_Init()
 813:Drivers/STM32F4xx_FWLIB/src/stm32f4xx_usart.c ****           function.
 814:Drivers/STM32F4xx_FWLIB/src/stm32f4xx_usart.c ****       (#) Configures the USART address using the USART_SetAddress() function.
ARM GAS  /tmp/cc5XfcFW.s 			page 34


 815:Drivers/STM32F4xx_FWLIB/src/stm32f4xx_usart.c ****       (#) Enable the USART using the USART_Cmd() function.
 816:Drivers/STM32F4xx_FWLIB/src/stm32f4xx_usart.c ****       (#) Enable the half duplex mode using USART_HalfDuplexCmd() function.
 817:Drivers/STM32F4xx_FWLIB/src/stm32f4xx_usart.c **** 
 818:Drivers/STM32F4xx_FWLIB/src/stm32f4xx_usart.c **** 
 819:Drivers/STM32F4xx_FWLIB/src/stm32f4xx_usart.c ****     -@- The RX pin is no longer used
 820:Drivers/STM32F4xx_FWLIB/src/stm32f4xx_usart.c ****     -@- In Half-duplex mode the following bits must be kept cleared:
 821:Drivers/STM32F4xx_FWLIB/src/stm32f4xx_usart.c ****       (+@) LINEN and CLKEN bits in the USART_CR2 register.
 822:Drivers/STM32F4xx_FWLIB/src/stm32f4xx_usart.c ****       (+@) SCEN and IREN bits in the USART_CR3 register.
 823:Drivers/STM32F4xx_FWLIB/src/stm32f4xx_usart.c **** 
 824:Drivers/STM32F4xx_FWLIB/src/stm32f4xx_usart.c **** @endverbatim
 825:Drivers/STM32F4xx_FWLIB/src/stm32f4xx_usart.c ****   * @{
 826:Drivers/STM32F4xx_FWLIB/src/stm32f4xx_usart.c ****   */
 827:Drivers/STM32F4xx_FWLIB/src/stm32f4xx_usart.c **** 
 828:Drivers/STM32F4xx_FWLIB/src/stm32f4xx_usart.c **** /**
 829:Drivers/STM32F4xx_FWLIB/src/stm32f4xx_usart.c ****   * @brief  Enables or disables the USART's Half Duplex communication.
 830:Drivers/STM32F4xx_FWLIB/src/stm32f4xx_usart.c ****   * @param  USARTx: where x can be 1, 2, 3, 4, 5, 6, 7 or 8 to select the USART or 
 831:Drivers/STM32F4xx_FWLIB/src/stm32f4xx_usart.c ****   *         UART peripheral.
 832:Drivers/STM32F4xx_FWLIB/src/stm32f4xx_usart.c ****   * @param  NewState: new state of the USART Communication.
 833:Drivers/STM32F4xx_FWLIB/src/stm32f4xx_usart.c ****   *          This parameter can be: ENABLE or DISABLE.
 834:Drivers/STM32F4xx_FWLIB/src/stm32f4xx_usart.c ****   * @retval None
 835:Drivers/STM32F4xx_FWLIB/src/stm32f4xx_usart.c ****   */
 836:Drivers/STM32F4xx_FWLIB/src/stm32f4xx_usart.c **** void USART_HalfDuplexCmd(USART_TypeDef* USARTx, FunctionalState NewState)
 837:Drivers/STM32F4xx_FWLIB/src/stm32f4xx_usart.c **** {
 1061              		.loc 1 837 1 is_stmt 1 view -0
 1062              		.cfi_startproc
 1063              		@ args = 0, pretend = 0, frame = 0
 1064              		@ frame_needed = 0, uses_anonymous_args = 0
 1065              		@ link register save eliminated.
 838:Drivers/STM32F4xx_FWLIB/src/stm32f4xx_usart.c ****   /* Check the parameters */
 839:Drivers/STM32F4xx_FWLIB/src/stm32f4xx_usart.c ****   assert_param(IS_USART_ALL_PERIPH(USARTx));
 1066              		.loc 1 839 3 view .LVU290
 840:Drivers/STM32F4xx_FWLIB/src/stm32f4xx_usart.c ****   assert_param(IS_FUNCTIONAL_STATE(NewState));
 1067              		.loc 1 840 3 view .LVU291
 841:Drivers/STM32F4xx_FWLIB/src/stm32f4xx_usart.c ****   
 842:Drivers/STM32F4xx_FWLIB/src/stm32f4xx_usart.c ****   if (NewState != DISABLE)
 1068              		.loc 1 842 3 view .LVU292
 1069              		.loc 1 842 6 is_stmt 0 view .LVU293
 1070 0000 29B1     		cbz	r1, .L61
 843:Drivers/STM32F4xx_FWLIB/src/stm32f4xx_usart.c ****   {
 844:Drivers/STM32F4xx_FWLIB/src/stm32f4xx_usart.c ****     /* Enable the Half-Duplex mode by setting the HDSEL bit in the CR3 register */
 845:Drivers/STM32F4xx_FWLIB/src/stm32f4xx_usart.c ****     USARTx->CR3 |= USART_CR3_HDSEL;
 1071              		.loc 1 845 5 is_stmt 1 view .LVU294
 1072              		.loc 1 845 17 is_stmt 0 view .LVU295
 1073 0002 838A     		ldrh	r3, [r0, #20]
 1074 0004 9BB2     		uxth	r3, r3
 1075 0006 43F00803 		orr	r3, r3, #8
 1076 000a 8382     		strh	r3, [r0, #20]	@ movhi
 1077 000c 7047     		bx	lr
 1078              	.L61:
 846:Drivers/STM32F4xx_FWLIB/src/stm32f4xx_usart.c ****   }
 847:Drivers/STM32F4xx_FWLIB/src/stm32f4xx_usart.c ****   else
 848:Drivers/STM32F4xx_FWLIB/src/stm32f4xx_usart.c ****   {
 849:Drivers/STM32F4xx_FWLIB/src/stm32f4xx_usart.c ****     /* Disable the Half-Duplex mode by clearing the HDSEL bit in the CR3 register */
 850:Drivers/STM32F4xx_FWLIB/src/stm32f4xx_usart.c ****     USARTx->CR3 &= (uint16_t)~((uint16_t)USART_CR3_HDSEL);
 1079              		.loc 1 850 5 is_stmt 1 view .LVU296
 1080              		.loc 1 850 17 is_stmt 0 view .LVU297
 1081 000e 838A     		ldrh	r3, [r0, #20]
ARM GAS  /tmp/cc5XfcFW.s 			page 35


 1082 0010 9BB2     		uxth	r3, r3
 1083 0012 23F00803 		bic	r3, r3, #8
 1084 0016 9BB2     		uxth	r3, r3
 1085 0018 8382     		strh	r3, [r0, #20]	@ movhi
 851:Drivers/STM32F4xx_FWLIB/src/stm32f4xx_usart.c ****   }
 852:Drivers/STM32F4xx_FWLIB/src/stm32f4xx_usart.c **** }
 1086              		.loc 1 852 1 view .LVU298
 1087 001a 7047     		bx	lr
 1088              		.cfi_endproc
 1089              	.LFE147:
 1091              		.section	.text.USART_SetGuardTime,"ax",%progbits
 1092              		.align	1
 1093              		.global	USART_SetGuardTime
 1094              		.syntax unified
 1095              		.thumb
 1096              		.thumb_func
 1097              		.fpu fpv4-sp-d16
 1099              	USART_SetGuardTime:
 1100              	.LVL94:
 1101              	.LFB148:
 853:Drivers/STM32F4xx_FWLIB/src/stm32f4xx_usart.c **** 
 854:Drivers/STM32F4xx_FWLIB/src/stm32f4xx_usart.c **** /**
 855:Drivers/STM32F4xx_FWLIB/src/stm32f4xx_usart.c ****   * @}
 856:Drivers/STM32F4xx_FWLIB/src/stm32f4xx_usart.c ****   */
 857:Drivers/STM32F4xx_FWLIB/src/stm32f4xx_usart.c **** 
 858:Drivers/STM32F4xx_FWLIB/src/stm32f4xx_usart.c **** 
 859:Drivers/STM32F4xx_FWLIB/src/stm32f4xx_usart.c **** /** @defgroup USART_Group6 Smartcard mode functions
 860:Drivers/STM32F4xx_FWLIB/src/stm32f4xx_usart.c ****  *  @brief   Smartcard mode functions 
 861:Drivers/STM32F4xx_FWLIB/src/stm32f4xx_usart.c ****  *
 862:Drivers/STM32F4xx_FWLIB/src/stm32f4xx_usart.c **** @verbatim   
 863:Drivers/STM32F4xx_FWLIB/src/stm32f4xx_usart.c ****  ===============================================================================
 864:Drivers/STM32F4xx_FWLIB/src/stm32f4xx_usart.c ****                               ##### Smartcard mode functions #####
 865:Drivers/STM32F4xx_FWLIB/src/stm32f4xx_usart.c ****  ===============================================================================  
 866:Drivers/STM32F4xx_FWLIB/src/stm32f4xx_usart.c ****     [..]
 867:Drivers/STM32F4xx_FWLIB/src/stm32f4xx_usart.c ****     This subsection provides a set of functions allowing to manage the USART 
 868:Drivers/STM32F4xx_FWLIB/src/stm32f4xx_usart.c ****     Smartcard communication.
 869:Drivers/STM32F4xx_FWLIB/src/stm32f4xx_usart.c ****     [..]
 870:Drivers/STM32F4xx_FWLIB/src/stm32f4xx_usart.c ****     The Smartcard interface is designed to support asynchronous protocol Smartcards as
 871:Drivers/STM32F4xx_FWLIB/src/stm32f4xx_usart.c ****     defined in the ISO 7816-3 standard.
 872:Drivers/STM32F4xx_FWLIB/src/stm32f4xx_usart.c ****     [..]
 873:Drivers/STM32F4xx_FWLIB/src/stm32f4xx_usart.c ****     The USART can provide a clock to the smartcard through the SCLK output.
 874:Drivers/STM32F4xx_FWLIB/src/stm32f4xx_usart.c ****     In smartcard mode, SCLK is not associated to the communication but is simply derived 
 875:Drivers/STM32F4xx_FWLIB/src/stm32f4xx_usart.c ****     from the internal peripheral input clock through a 5-bit prescaler.
 876:Drivers/STM32F4xx_FWLIB/src/stm32f4xx_usart.c ****     [..]
 877:Drivers/STM32F4xx_FWLIB/src/stm32f4xx_usart.c ****     Smartcard communication is possible through the following procedure:
 878:Drivers/STM32F4xx_FWLIB/src/stm32f4xx_usart.c ****       (#) Configures the Smartcard Prescaler using the USART_SetPrescaler() function.
 879:Drivers/STM32F4xx_FWLIB/src/stm32f4xx_usart.c ****       (#) Configures the Smartcard Guard Time using the USART_SetGuardTime() function.
 880:Drivers/STM32F4xx_FWLIB/src/stm32f4xx_usart.c ****       (#) Program the USART clock using the USART_ClockInit() function as following:
 881:Drivers/STM32F4xx_FWLIB/src/stm32f4xx_usart.c ****         (++) USART Clock enabled
 882:Drivers/STM32F4xx_FWLIB/src/stm32f4xx_usart.c ****         (++) USART CPOL Low
 883:Drivers/STM32F4xx_FWLIB/src/stm32f4xx_usart.c ****         (++) USART CPHA on first edge
 884:Drivers/STM32F4xx_FWLIB/src/stm32f4xx_usart.c ****         (++) USART Last Bit Clock Enabled
 885:Drivers/STM32F4xx_FWLIB/src/stm32f4xx_usart.c ****       (#) Program the Smartcard interface using the USART_Init() function as following:
 886:Drivers/STM32F4xx_FWLIB/src/stm32f4xx_usart.c ****         (++) Word Length = 9 Bits
 887:Drivers/STM32F4xx_FWLIB/src/stm32f4xx_usart.c ****         (++) 1.5 Stop Bit
 888:Drivers/STM32F4xx_FWLIB/src/stm32f4xx_usart.c ****         (++) Even parity
 889:Drivers/STM32F4xx_FWLIB/src/stm32f4xx_usart.c ****         (++) BaudRate = 12096 baud
ARM GAS  /tmp/cc5XfcFW.s 			page 36


 890:Drivers/STM32F4xx_FWLIB/src/stm32f4xx_usart.c ****         (++) Hardware flow control disabled (RTS and CTS signals)
 891:Drivers/STM32F4xx_FWLIB/src/stm32f4xx_usart.c ****         (++) Tx and Rx enabled
 892:Drivers/STM32F4xx_FWLIB/src/stm32f4xx_usart.c ****       (#) POptionally you can enable the parity error interrupt using the USART_ITConfig()
 893:Drivers/STM32F4xx_FWLIB/src/stm32f4xx_usart.c ****           function
 894:Drivers/STM32F4xx_FWLIB/src/stm32f4xx_usart.c ****       (#) PEnable the USART using the USART_Cmd() function.
 895:Drivers/STM32F4xx_FWLIB/src/stm32f4xx_usart.c ****       (#) PEnable the Smartcard NACK using the USART_SmartCardNACKCmd() function.
 896:Drivers/STM32F4xx_FWLIB/src/stm32f4xx_usart.c ****       (#) PEnable the Smartcard interface using the USART_SmartCardCmd() function.
 897:Drivers/STM32F4xx_FWLIB/src/stm32f4xx_usart.c **** 
 898:Drivers/STM32F4xx_FWLIB/src/stm32f4xx_usart.c ****     Please refer to the ISO 7816-3 specification for more details.
 899:Drivers/STM32F4xx_FWLIB/src/stm32f4xx_usart.c **** 
 900:Drivers/STM32F4xx_FWLIB/src/stm32f4xx_usart.c ****       -@- It is also possible to choose 0.5 stop bit for receiving but it is recommended 
 901:Drivers/STM32F4xx_FWLIB/src/stm32f4xx_usart.c ****           to use 1.5 stop bits for both transmitting and receiving to avoid switching 
 902:Drivers/STM32F4xx_FWLIB/src/stm32f4xx_usart.c ****           between the two configurations.
 903:Drivers/STM32F4xx_FWLIB/src/stm32f4xx_usart.c ****       -@- In smartcard mode, the following bits must be kept cleared:
 904:Drivers/STM32F4xx_FWLIB/src/stm32f4xx_usart.c ****         (+@) LINEN bit in the USART_CR2 register.
 905:Drivers/STM32F4xx_FWLIB/src/stm32f4xx_usart.c ****         (+@) HDSEL and IREN bits in the USART_CR3 register.
 906:Drivers/STM32F4xx_FWLIB/src/stm32f4xx_usart.c ****       -@- Smartcard mode is available on USART peripherals only (not available on UART4 
 907:Drivers/STM32F4xx_FWLIB/src/stm32f4xx_usart.c ****           and UART5 peripherals).
 908:Drivers/STM32F4xx_FWLIB/src/stm32f4xx_usart.c **** 
 909:Drivers/STM32F4xx_FWLIB/src/stm32f4xx_usart.c **** @endverbatim
 910:Drivers/STM32F4xx_FWLIB/src/stm32f4xx_usart.c ****   * @{
 911:Drivers/STM32F4xx_FWLIB/src/stm32f4xx_usart.c ****   */
 912:Drivers/STM32F4xx_FWLIB/src/stm32f4xx_usart.c **** 
 913:Drivers/STM32F4xx_FWLIB/src/stm32f4xx_usart.c **** /**
 914:Drivers/STM32F4xx_FWLIB/src/stm32f4xx_usart.c ****   * @brief  Sets the specified USART guard time.
 915:Drivers/STM32F4xx_FWLIB/src/stm32f4xx_usart.c ****   * @param  USARTx: where x can be 1, 2, 3 or 6 to select the USART or 
 916:Drivers/STM32F4xx_FWLIB/src/stm32f4xx_usart.c ****   *         UART peripheral.
 917:Drivers/STM32F4xx_FWLIB/src/stm32f4xx_usart.c ****   * @param  USART_GuardTime: specifies the guard time.   
 918:Drivers/STM32F4xx_FWLIB/src/stm32f4xx_usart.c ****   * @retval None
 919:Drivers/STM32F4xx_FWLIB/src/stm32f4xx_usart.c ****   */
 920:Drivers/STM32F4xx_FWLIB/src/stm32f4xx_usart.c **** void USART_SetGuardTime(USART_TypeDef* USARTx, uint8_t USART_GuardTime)
 921:Drivers/STM32F4xx_FWLIB/src/stm32f4xx_usart.c **** {    
 1102              		.loc 1 921 1 is_stmt 1 view -0
 1103              		.cfi_startproc
 1104              		@ args = 0, pretend = 0, frame = 0
 1105              		@ frame_needed = 0, uses_anonymous_args = 0
 1106              		@ link register save eliminated.
 922:Drivers/STM32F4xx_FWLIB/src/stm32f4xx_usart.c ****   /* Check the parameters */
 923:Drivers/STM32F4xx_FWLIB/src/stm32f4xx_usart.c ****   assert_param(IS_USART_1236_PERIPH(USARTx));
 1107              		.loc 1 923 3 view .LVU300
 924:Drivers/STM32F4xx_FWLIB/src/stm32f4xx_usart.c ****   
 925:Drivers/STM32F4xx_FWLIB/src/stm32f4xx_usart.c ****   /* Clear the USART Guard time */
 926:Drivers/STM32F4xx_FWLIB/src/stm32f4xx_usart.c ****   USARTx->GTPR &= USART_GTPR_PSC;
 1108              		.loc 1 926 3 view .LVU301
 1109              		.loc 1 926 16 is_stmt 0 view .LVU302
 1110 0000 028B     		ldrh	r2, [r0, #24]
 1111 0002 D2B2     		uxtb	r2, r2
 1112 0004 0283     		strh	r2, [r0, #24]	@ movhi
 927:Drivers/STM32F4xx_FWLIB/src/stm32f4xx_usart.c ****   /* Set the USART guard time */
 928:Drivers/STM32F4xx_FWLIB/src/stm32f4xx_usart.c ****   USARTx->GTPR |= (uint16_t)((uint16_t)USART_GuardTime << 0x08);
 1113              		.loc 1 928 3 is_stmt 1 view .LVU303
 1114              		.loc 1 928 16 is_stmt 0 view .LVU304
 1115 0006 038B     		ldrh	r3, [r0, #24]
 1116 0008 9BB2     		uxth	r3, r3
 1117 000a 43EA0123 		orr	r3, r3, r1, lsl #8
 1118 000e 0383     		strh	r3, [r0, #24]	@ movhi
 929:Drivers/STM32F4xx_FWLIB/src/stm32f4xx_usart.c **** }
ARM GAS  /tmp/cc5XfcFW.s 			page 37


 1119              		.loc 1 929 1 view .LVU305
 1120 0010 7047     		bx	lr
 1121              		.cfi_endproc
 1122              	.LFE148:
 1124              		.section	.text.USART_SmartCardCmd,"ax",%progbits
 1125              		.align	1
 1126              		.global	USART_SmartCardCmd
 1127              		.syntax unified
 1128              		.thumb
 1129              		.thumb_func
 1130              		.fpu fpv4-sp-d16
 1132              	USART_SmartCardCmd:
 1133              	.LVL95:
 1134              	.LFB149:
 930:Drivers/STM32F4xx_FWLIB/src/stm32f4xx_usart.c **** 
 931:Drivers/STM32F4xx_FWLIB/src/stm32f4xx_usart.c **** /**
 932:Drivers/STM32F4xx_FWLIB/src/stm32f4xx_usart.c ****   * @brief  Enables or disables the USART's Smart Card mode.
 933:Drivers/STM32F4xx_FWLIB/src/stm32f4xx_usart.c ****   * @param  USARTx: where x can be 1, 2, 3 or 6 to select the USART or 
 934:Drivers/STM32F4xx_FWLIB/src/stm32f4xx_usart.c ****   *         UART peripheral.
 935:Drivers/STM32F4xx_FWLIB/src/stm32f4xx_usart.c ****   * @param  NewState: new state of the Smart Card mode.
 936:Drivers/STM32F4xx_FWLIB/src/stm32f4xx_usart.c ****   *          This parameter can be: ENABLE or DISABLE.      
 937:Drivers/STM32F4xx_FWLIB/src/stm32f4xx_usart.c ****   * @retval None
 938:Drivers/STM32F4xx_FWLIB/src/stm32f4xx_usart.c ****   */
 939:Drivers/STM32F4xx_FWLIB/src/stm32f4xx_usart.c **** void USART_SmartCardCmd(USART_TypeDef* USARTx, FunctionalState NewState)
 940:Drivers/STM32F4xx_FWLIB/src/stm32f4xx_usart.c **** {
 1135              		.loc 1 940 1 is_stmt 1 view -0
 1136              		.cfi_startproc
 1137              		@ args = 0, pretend = 0, frame = 0
 1138              		@ frame_needed = 0, uses_anonymous_args = 0
 1139              		@ link register save eliminated.
 941:Drivers/STM32F4xx_FWLIB/src/stm32f4xx_usart.c ****   /* Check the parameters */
 942:Drivers/STM32F4xx_FWLIB/src/stm32f4xx_usart.c ****   assert_param(IS_USART_1236_PERIPH(USARTx));
 1140              		.loc 1 942 3 view .LVU307
 943:Drivers/STM32F4xx_FWLIB/src/stm32f4xx_usart.c ****   assert_param(IS_FUNCTIONAL_STATE(NewState));
 1141              		.loc 1 943 3 view .LVU308
 944:Drivers/STM32F4xx_FWLIB/src/stm32f4xx_usart.c ****   if (NewState != DISABLE)
 1142              		.loc 1 944 3 view .LVU309
 1143              		.loc 1 944 6 is_stmt 0 view .LVU310
 1144 0000 29B1     		cbz	r1, .L65
 945:Drivers/STM32F4xx_FWLIB/src/stm32f4xx_usart.c ****   {
 946:Drivers/STM32F4xx_FWLIB/src/stm32f4xx_usart.c ****     /* Enable the SC mode by setting the SCEN bit in the CR3 register */
 947:Drivers/STM32F4xx_FWLIB/src/stm32f4xx_usart.c ****     USARTx->CR3 |= USART_CR3_SCEN;
 1145              		.loc 1 947 5 is_stmt 1 view .LVU311
 1146              		.loc 1 947 17 is_stmt 0 view .LVU312
 1147 0002 838A     		ldrh	r3, [r0, #20]
 1148 0004 9BB2     		uxth	r3, r3
 1149 0006 43F02003 		orr	r3, r3, #32
 1150 000a 8382     		strh	r3, [r0, #20]	@ movhi
 1151 000c 7047     		bx	lr
 1152              	.L65:
 948:Drivers/STM32F4xx_FWLIB/src/stm32f4xx_usart.c ****   }
 949:Drivers/STM32F4xx_FWLIB/src/stm32f4xx_usart.c ****   else
 950:Drivers/STM32F4xx_FWLIB/src/stm32f4xx_usart.c ****   {
 951:Drivers/STM32F4xx_FWLIB/src/stm32f4xx_usart.c ****     /* Disable the SC mode by clearing the SCEN bit in the CR3 register */
 952:Drivers/STM32F4xx_FWLIB/src/stm32f4xx_usart.c ****     USARTx->CR3 &= (uint16_t)~((uint16_t)USART_CR3_SCEN);
 1153              		.loc 1 952 5 is_stmt 1 view .LVU313
 1154              		.loc 1 952 17 is_stmt 0 view .LVU314
ARM GAS  /tmp/cc5XfcFW.s 			page 38


 1155 000e 838A     		ldrh	r3, [r0, #20]
 1156 0010 9BB2     		uxth	r3, r3
 1157 0012 23F02003 		bic	r3, r3, #32
 1158 0016 9BB2     		uxth	r3, r3
 1159 0018 8382     		strh	r3, [r0, #20]	@ movhi
 953:Drivers/STM32F4xx_FWLIB/src/stm32f4xx_usart.c ****   }
 954:Drivers/STM32F4xx_FWLIB/src/stm32f4xx_usart.c **** }
 1160              		.loc 1 954 1 view .LVU315
 1161 001a 7047     		bx	lr
 1162              		.cfi_endproc
 1163              	.LFE149:
 1165              		.section	.text.USART_SmartCardNACKCmd,"ax",%progbits
 1166              		.align	1
 1167              		.global	USART_SmartCardNACKCmd
 1168              		.syntax unified
 1169              		.thumb
 1170              		.thumb_func
 1171              		.fpu fpv4-sp-d16
 1173              	USART_SmartCardNACKCmd:
 1174              	.LVL96:
 1175              	.LFB150:
 955:Drivers/STM32F4xx_FWLIB/src/stm32f4xx_usart.c **** 
 956:Drivers/STM32F4xx_FWLIB/src/stm32f4xx_usart.c **** /**
 957:Drivers/STM32F4xx_FWLIB/src/stm32f4xx_usart.c ****   * @brief  Enables or disables NACK transmission.
 958:Drivers/STM32F4xx_FWLIB/src/stm32f4xx_usart.c ****   * @param  USARTx: where x can be 1, 2, 3 or 6 to select the USART or 
 959:Drivers/STM32F4xx_FWLIB/src/stm32f4xx_usart.c ****   *         UART peripheral.
 960:Drivers/STM32F4xx_FWLIB/src/stm32f4xx_usart.c ****   * @param  NewState: new state of the NACK transmission.
 961:Drivers/STM32F4xx_FWLIB/src/stm32f4xx_usart.c ****   *          This parameter can be: ENABLE or DISABLE.  
 962:Drivers/STM32F4xx_FWLIB/src/stm32f4xx_usart.c ****   * @retval None
 963:Drivers/STM32F4xx_FWLIB/src/stm32f4xx_usart.c ****   */
 964:Drivers/STM32F4xx_FWLIB/src/stm32f4xx_usart.c **** void USART_SmartCardNACKCmd(USART_TypeDef* USARTx, FunctionalState NewState)
 965:Drivers/STM32F4xx_FWLIB/src/stm32f4xx_usart.c **** {
 1176              		.loc 1 965 1 is_stmt 1 view -0
 1177              		.cfi_startproc
 1178              		@ args = 0, pretend = 0, frame = 0
 1179              		@ frame_needed = 0, uses_anonymous_args = 0
 1180              		@ link register save eliminated.
 966:Drivers/STM32F4xx_FWLIB/src/stm32f4xx_usart.c ****   /* Check the parameters */
 967:Drivers/STM32F4xx_FWLIB/src/stm32f4xx_usart.c ****   assert_param(IS_USART_1236_PERIPH(USARTx)); 
 1181              		.loc 1 967 3 view .LVU317
 968:Drivers/STM32F4xx_FWLIB/src/stm32f4xx_usart.c ****   assert_param(IS_FUNCTIONAL_STATE(NewState));
 1182              		.loc 1 968 3 view .LVU318
 969:Drivers/STM32F4xx_FWLIB/src/stm32f4xx_usart.c ****   if (NewState != DISABLE)
 1183              		.loc 1 969 3 view .LVU319
 1184              		.loc 1 969 6 is_stmt 0 view .LVU320
 1185 0000 29B1     		cbz	r1, .L68
 970:Drivers/STM32F4xx_FWLIB/src/stm32f4xx_usart.c ****   {
 971:Drivers/STM32F4xx_FWLIB/src/stm32f4xx_usart.c ****     /* Enable the NACK transmission by setting the NACK bit in the CR3 register */
 972:Drivers/STM32F4xx_FWLIB/src/stm32f4xx_usart.c ****     USARTx->CR3 |= USART_CR3_NACK;
 1186              		.loc 1 972 5 is_stmt 1 view .LVU321
 1187              		.loc 1 972 17 is_stmt 0 view .LVU322
 1188 0002 838A     		ldrh	r3, [r0, #20]
 1189 0004 9BB2     		uxth	r3, r3
 1190 0006 43F01003 		orr	r3, r3, #16
 1191 000a 8382     		strh	r3, [r0, #20]	@ movhi
 1192 000c 7047     		bx	lr
 1193              	.L68:
ARM GAS  /tmp/cc5XfcFW.s 			page 39


 973:Drivers/STM32F4xx_FWLIB/src/stm32f4xx_usart.c ****   }
 974:Drivers/STM32F4xx_FWLIB/src/stm32f4xx_usart.c ****   else
 975:Drivers/STM32F4xx_FWLIB/src/stm32f4xx_usart.c ****   {
 976:Drivers/STM32F4xx_FWLIB/src/stm32f4xx_usart.c ****     /* Disable the NACK transmission by clearing the NACK bit in the CR3 register */
 977:Drivers/STM32F4xx_FWLIB/src/stm32f4xx_usart.c ****     USARTx->CR3 &= (uint16_t)~((uint16_t)USART_CR3_NACK);
 1194              		.loc 1 977 5 is_stmt 1 view .LVU323
 1195              		.loc 1 977 17 is_stmt 0 view .LVU324
 1196 000e 838A     		ldrh	r3, [r0, #20]
 1197 0010 9BB2     		uxth	r3, r3
 1198 0012 23F01003 		bic	r3, r3, #16
 1199 0016 9BB2     		uxth	r3, r3
 1200 0018 8382     		strh	r3, [r0, #20]	@ movhi
 978:Drivers/STM32F4xx_FWLIB/src/stm32f4xx_usart.c ****   }
 979:Drivers/STM32F4xx_FWLIB/src/stm32f4xx_usart.c **** }
 1201              		.loc 1 979 1 view .LVU325
 1202 001a 7047     		bx	lr
 1203              		.cfi_endproc
 1204              	.LFE150:
 1206              		.section	.text.USART_IrDAConfig,"ax",%progbits
 1207              		.align	1
 1208              		.global	USART_IrDAConfig
 1209              		.syntax unified
 1210              		.thumb
 1211              		.thumb_func
 1212              		.fpu fpv4-sp-d16
 1214              	USART_IrDAConfig:
 1215              	.LVL97:
 1216              	.LFB151:
 980:Drivers/STM32F4xx_FWLIB/src/stm32f4xx_usart.c **** 
 981:Drivers/STM32F4xx_FWLIB/src/stm32f4xx_usart.c **** /**
 982:Drivers/STM32F4xx_FWLIB/src/stm32f4xx_usart.c ****   * @}
 983:Drivers/STM32F4xx_FWLIB/src/stm32f4xx_usart.c ****   */
 984:Drivers/STM32F4xx_FWLIB/src/stm32f4xx_usart.c **** 
 985:Drivers/STM32F4xx_FWLIB/src/stm32f4xx_usart.c **** /** @defgroup USART_Group7 IrDA mode functions
 986:Drivers/STM32F4xx_FWLIB/src/stm32f4xx_usart.c ****  *  @brief   IrDA mode functions 
 987:Drivers/STM32F4xx_FWLIB/src/stm32f4xx_usart.c ****  *
 988:Drivers/STM32F4xx_FWLIB/src/stm32f4xx_usart.c **** @verbatim   
 989:Drivers/STM32F4xx_FWLIB/src/stm32f4xx_usart.c ****  ===============================================================================
 990:Drivers/STM32F4xx_FWLIB/src/stm32f4xx_usart.c ****                         ##### IrDA mode functions #####
 991:Drivers/STM32F4xx_FWLIB/src/stm32f4xx_usart.c ****  ===============================================================================  
 992:Drivers/STM32F4xx_FWLIB/src/stm32f4xx_usart.c ****     [..]
 993:Drivers/STM32F4xx_FWLIB/src/stm32f4xx_usart.c ****     This subsection provides a set of functions allowing to manage the USART 
 994:Drivers/STM32F4xx_FWLIB/src/stm32f4xx_usart.c ****     IrDA communication.
 995:Drivers/STM32F4xx_FWLIB/src/stm32f4xx_usart.c ****     [..]
 996:Drivers/STM32F4xx_FWLIB/src/stm32f4xx_usart.c ****     IrDA is a half duplex communication protocol. If the Transmitter is busy, any data
 997:Drivers/STM32F4xx_FWLIB/src/stm32f4xx_usart.c ****     on the IrDA receive line will be ignored by the IrDA decoder and if the Receiver 
 998:Drivers/STM32F4xx_FWLIB/src/stm32f4xx_usart.c ****     is busy, data on the TX from the USART to IrDA will not be encoded by IrDA.
 999:Drivers/STM32F4xx_FWLIB/src/stm32f4xx_usart.c ****     While receiving data, transmission should be avoided as the data to be transmitted
1000:Drivers/STM32F4xx_FWLIB/src/stm32f4xx_usart.c ****     could be corrupted.
1001:Drivers/STM32F4xx_FWLIB/src/stm32f4xx_usart.c ****     [..]
1002:Drivers/STM32F4xx_FWLIB/src/stm32f4xx_usart.c ****     IrDA communication is possible through the following procedure:
1003:Drivers/STM32F4xx_FWLIB/src/stm32f4xx_usart.c ****       (#) Program the Baud rate, Word length = 8 bits, Stop bits, Parity, Transmitter/Receiver 
1004:Drivers/STM32F4xx_FWLIB/src/stm32f4xx_usart.c ****           modes and hardware flow control values using the USART_Init() function.
1005:Drivers/STM32F4xx_FWLIB/src/stm32f4xx_usart.c ****       (#) Enable the USART using the USART_Cmd() function.
1006:Drivers/STM32F4xx_FWLIB/src/stm32f4xx_usart.c ****       (#) Configures the IrDA pulse width by configuring the prescaler using  
1007:Drivers/STM32F4xx_FWLIB/src/stm32f4xx_usart.c ****           the USART_SetPrescaler() function.
1008:Drivers/STM32F4xx_FWLIB/src/stm32f4xx_usart.c ****       (#) Configures the IrDA  USART_IrDAMode_LowPower or USART_IrDAMode_Normal mode
ARM GAS  /tmp/cc5XfcFW.s 			page 40


1009:Drivers/STM32F4xx_FWLIB/src/stm32f4xx_usart.c ****           using the USART_IrDAConfig() function.
1010:Drivers/STM32F4xx_FWLIB/src/stm32f4xx_usart.c ****       (#) Enable the IrDA using the USART_IrDACmd() function.
1011:Drivers/STM32F4xx_FWLIB/src/stm32f4xx_usart.c **** 
1012:Drivers/STM32F4xx_FWLIB/src/stm32f4xx_usart.c ****       -@- A pulse of width less than two and greater than one PSC period(s) may or may
1013:Drivers/STM32F4xx_FWLIB/src/stm32f4xx_usart.c ****           not be rejected.
1014:Drivers/STM32F4xx_FWLIB/src/stm32f4xx_usart.c ****       -@- The receiver set up time should be managed by software. The IrDA physical layer
1015:Drivers/STM32F4xx_FWLIB/src/stm32f4xx_usart.c ****           specification specifies a minimum of 10 ms delay between transmission and 
1016:Drivers/STM32F4xx_FWLIB/src/stm32f4xx_usart.c ****           reception (IrDA is a half duplex protocol).
1017:Drivers/STM32F4xx_FWLIB/src/stm32f4xx_usart.c ****       -@- In IrDA mode, the following bits must be kept cleared:
1018:Drivers/STM32F4xx_FWLIB/src/stm32f4xx_usart.c ****         (+@) LINEN, STOP and CLKEN bits in the USART_CR2 register.
1019:Drivers/STM32F4xx_FWLIB/src/stm32f4xx_usart.c ****         (+@) SCEN and HDSEL bits in the USART_CR3 register.
1020:Drivers/STM32F4xx_FWLIB/src/stm32f4xx_usart.c **** 
1021:Drivers/STM32F4xx_FWLIB/src/stm32f4xx_usart.c **** @endverbatim
1022:Drivers/STM32F4xx_FWLIB/src/stm32f4xx_usart.c ****   * @{
1023:Drivers/STM32F4xx_FWLIB/src/stm32f4xx_usart.c ****   */
1024:Drivers/STM32F4xx_FWLIB/src/stm32f4xx_usart.c **** 
1025:Drivers/STM32F4xx_FWLIB/src/stm32f4xx_usart.c **** /**
1026:Drivers/STM32F4xx_FWLIB/src/stm32f4xx_usart.c ****   * @brief  Configures the USART's IrDA interface.
1027:Drivers/STM32F4xx_FWLIB/src/stm32f4xx_usart.c ****   * @param  USARTx: where x can be 1, 2, 3, 4, 5, 6, 7 or 8 to select the USART or 
1028:Drivers/STM32F4xx_FWLIB/src/stm32f4xx_usart.c ****   *         UART peripheral.
1029:Drivers/STM32F4xx_FWLIB/src/stm32f4xx_usart.c ****   * @param  USART_IrDAMode: specifies the IrDA mode.
1030:Drivers/STM32F4xx_FWLIB/src/stm32f4xx_usart.c ****   *          This parameter can be one of the following values:
1031:Drivers/STM32F4xx_FWLIB/src/stm32f4xx_usart.c ****   *            @arg USART_IrDAMode_LowPower
1032:Drivers/STM32F4xx_FWLIB/src/stm32f4xx_usart.c ****   *            @arg USART_IrDAMode_Normal
1033:Drivers/STM32F4xx_FWLIB/src/stm32f4xx_usart.c ****   * @retval None
1034:Drivers/STM32F4xx_FWLIB/src/stm32f4xx_usart.c ****   */
1035:Drivers/STM32F4xx_FWLIB/src/stm32f4xx_usart.c **** void USART_IrDAConfig(USART_TypeDef* USARTx, uint16_t USART_IrDAMode)
1036:Drivers/STM32F4xx_FWLIB/src/stm32f4xx_usart.c **** {
 1217              		.loc 1 1036 1 is_stmt 1 view -0
 1218              		.cfi_startproc
 1219              		@ args = 0, pretend = 0, frame = 0
 1220              		@ frame_needed = 0, uses_anonymous_args = 0
 1221              		@ link register save eliminated.
1037:Drivers/STM32F4xx_FWLIB/src/stm32f4xx_usart.c ****   /* Check the parameters */
1038:Drivers/STM32F4xx_FWLIB/src/stm32f4xx_usart.c ****   assert_param(IS_USART_ALL_PERIPH(USARTx));
 1222              		.loc 1 1038 3 view .LVU327
1039:Drivers/STM32F4xx_FWLIB/src/stm32f4xx_usart.c ****   assert_param(IS_USART_IRDA_MODE(USART_IrDAMode));
 1223              		.loc 1 1039 3 view .LVU328
1040:Drivers/STM32F4xx_FWLIB/src/stm32f4xx_usart.c ****     
1041:Drivers/STM32F4xx_FWLIB/src/stm32f4xx_usart.c ****   USARTx->CR3 &= (uint16_t)~((uint16_t)USART_CR3_IRLP);
 1224              		.loc 1 1041 3 view .LVU329
 1225              		.loc 1 1041 15 is_stmt 0 view .LVU330
 1226 0000 838A     		ldrh	r3, [r0, #20]
 1227 0002 9BB2     		uxth	r3, r3
 1228 0004 23F00403 		bic	r3, r3, #4
 1229 0008 9BB2     		uxth	r3, r3
 1230 000a 8382     		strh	r3, [r0, #20]	@ movhi
1042:Drivers/STM32F4xx_FWLIB/src/stm32f4xx_usart.c ****   USARTx->CR3 |= USART_IrDAMode;
 1231              		.loc 1 1042 3 is_stmt 1 view .LVU331
 1232              		.loc 1 1042 15 is_stmt 0 view .LVU332
 1233 000c 838A     		ldrh	r3, [r0, #20]
 1234 000e 9BB2     		uxth	r3, r3
 1235 0010 0B43     		orrs	r3, r3, r1
 1236 0012 8382     		strh	r3, [r0, #20]	@ movhi
1043:Drivers/STM32F4xx_FWLIB/src/stm32f4xx_usart.c **** }
 1237              		.loc 1 1043 1 view .LVU333
 1238 0014 7047     		bx	lr
ARM GAS  /tmp/cc5XfcFW.s 			page 41


 1239              		.cfi_endproc
 1240              	.LFE151:
 1242              		.section	.text.USART_IrDACmd,"ax",%progbits
 1243              		.align	1
 1244              		.global	USART_IrDACmd
 1245              		.syntax unified
 1246              		.thumb
 1247              		.thumb_func
 1248              		.fpu fpv4-sp-d16
 1250              	USART_IrDACmd:
 1251              	.LVL98:
 1252              	.LFB152:
1044:Drivers/STM32F4xx_FWLIB/src/stm32f4xx_usart.c **** 
1045:Drivers/STM32F4xx_FWLIB/src/stm32f4xx_usart.c **** /**
1046:Drivers/STM32F4xx_FWLIB/src/stm32f4xx_usart.c ****   * @brief  Enables or disables the USART's IrDA interface.
1047:Drivers/STM32F4xx_FWLIB/src/stm32f4xx_usart.c ****   * @param  USARTx: where x can be 1, 2, 3, 4, 5, 6, 7 or 8 to select the USART or 
1048:Drivers/STM32F4xx_FWLIB/src/stm32f4xx_usart.c ****   *         UART peripheral.
1049:Drivers/STM32F4xx_FWLIB/src/stm32f4xx_usart.c ****   * @param  NewState: new state of the IrDA mode.
1050:Drivers/STM32F4xx_FWLIB/src/stm32f4xx_usart.c ****   *          This parameter can be: ENABLE or DISABLE.
1051:Drivers/STM32F4xx_FWLIB/src/stm32f4xx_usart.c ****   * @retval None
1052:Drivers/STM32F4xx_FWLIB/src/stm32f4xx_usart.c ****   */
1053:Drivers/STM32F4xx_FWLIB/src/stm32f4xx_usart.c **** void USART_IrDACmd(USART_TypeDef* USARTx, FunctionalState NewState)
1054:Drivers/STM32F4xx_FWLIB/src/stm32f4xx_usart.c **** {
 1253              		.loc 1 1054 1 is_stmt 1 view -0
 1254              		.cfi_startproc
 1255              		@ args = 0, pretend = 0, frame = 0
 1256              		@ frame_needed = 0, uses_anonymous_args = 0
 1257              		@ link register save eliminated.
1055:Drivers/STM32F4xx_FWLIB/src/stm32f4xx_usart.c ****   /* Check the parameters */
1056:Drivers/STM32F4xx_FWLIB/src/stm32f4xx_usart.c ****   assert_param(IS_USART_ALL_PERIPH(USARTx));
 1258              		.loc 1 1056 3 view .LVU335
1057:Drivers/STM32F4xx_FWLIB/src/stm32f4xx_usart.c ****   assert_param(IS_FUNCTIONAL_STATE(NewState));
 1259              		.loc 1 1057 3 view .LVU336
1058:Drivers/STM32F4xx_FWLIB/src/stm32f4xx_usart.c ****     
1059:Drivers/STM32F4xx_FWLIB/src/stm32f4xx_usart.c ****   if (NewState != DISABLE)
 1260              		.loc 1 1059 3 view .LVU337
 1261              		.loc 1 1059 6 is_stmt 0 view .LVU338
 1262 0000 29B1     		cbz	r1, .L72
1060:Drivers/STM32F4xx_FWLIB/src/stm32f4xx_usart.c ****   {
1061:Drivers/STM32F4xx_FWLIB/src/stm32f4xx_usart.c ****     /* Enable the IrDA mode by setting the IREN bit in the CR3 register */
1062:Drivers/STM32F4xx_FWLIB/src/stm32f4xx_usart.c ****     USARTx->CR3 |= USART_CR3_IREN;
 1263              		.loc 1 1062 5 is_stmt 1 view .LVU339
 1264              		.loc 1 1062 17 is_stmt 0 view .LVU340
 1265 0002 838A     		ldrh	r3, [r0, #20]
 1266 0004 9BB2     		uxth	r3, r3
 1267 0006 43F00203 		orr	r3, r3, #2
 1268 000a 8382     		strh	r3, [r0, #20]	@ movhi
 1269 000c 7047     		bx	lr
 1270              	.L72:
1063:Drivers/STM32F4xx_FWLIB/src/stm32f4xx_usart.c ****   }
1064:Drivers/STM32F4xx_FWLIB/src/stm32f4xx_usart.c ****   else
1065:Drivers/STM32F4xx_FWLIB/src/stm32f4xx_usart.c ****   {
1066:Drivers/STM32F4xx_FWLIB/src/stm32f4xx_usart.c ****     /* Disable the IrDA mode by clearing the IREN bit in the CR3 register */
1067:Drivers/STM32F4xx_FWLIB/src/stm32f4xx_usart.c ****     USARTx->CR3 &= (uint16_t)~((uint16_t)USART_CR3_IREN);
 1271              		.loc 1 1067 5 is_stmt 1 view .LVU341
 1272              		.loc 1 1067 17 is_stmt 0 view .LVU342
 1273 000e 838A     		ldrh	r3, [r0, #20]
ARM GAS  /tmp/cc5XfcFW.s 			page 42


 1274 0010 9BB2     		uxth	r3, r3
 1275 0012 23F00203 		bic	r3, r3, #2
 1276 0016 9BB2     		uxth	r3, r3
 1277 0018 8382     		strh	r3, [r0, #20]	@ movhi
1068:Drivers/STM32F4xx_FWLIB/src/stm32f4xx_usart.c ****   }
1069:Drivers/STM32F4xx_FWLIB/src/stm32f4xx_usart.c **** }
 1278              		.loc 1 1069 1 view .LVU343
 1279 001a 7047     		bx	lr
 1280              		.cfi_endproc
 1281              	.LFE152:
 1283              		.section	.text.USART_DMACmd,"ax",%progbits
 1284              		.align	1
 1285              		.global	USART_DMACmd
 1286              		.syntax unified
 1287              		.thumb
 1288              		.thumb_func
 1289              		.fpu fpv4-sp-d16
 1291              	USART_DMACmd:
 1292              	.LVL99:
 1293              	.LFB153:
1070:Drivers/STM32F4xx_FWLIB/src/stm32f4xx_usart.c **** 
1071:Drivers/STM32F4xx_FWLIB/src/stm32f4xx_usart.c **** /**
1072:Drivers/STM32F4xx_FWLIB/src/stm32f4xx_usart.c ****   * @}
1073:Drivers/STM32F4xx_FWLIB/src/stm32f4xx_usart.c ****   */
1074:Drivers/STM32F4xx_FWLIB/src/stm32f4xx_usart.c **** 
1075:Drivers/STM32F4xx_FWLIB/src/stm32f4xx_usart.c **** /** @defgroup USART_Group8 DMA transfers management functions
1076:Drivers/STM32F4xx_FWLIB/src/stm32f4xx_usart.c ****  *  @brief   DMA transfers management functions
1077:Drivers/STM32F4xx_FWLIB/src/stm32f4xx_usart.c ****  *
1078:Drivers/STM32F4xx_FWLIB/src/stm32f4xx_usart.c **** @verbatim   
1079:Drivers/STM32F4xx_FWLIB/src/stm32f4xx_usart.c ****  ===============================================================================
1080:Drivers/STM32F4xx_FWLIB/src/stm32f4xx_usart.c ****               ##### DMA transfers management functions #####
1081:Drivers/STM32F4xx_FWLIB/src/stm32f4xx_usart.c ****  ===============================================================================  
1082:Drivers/STM32F4xx_FWLIB/src/stm32f4xx_usart.c **** 
1083:Drivers/STM32F4xx_FWLIB/src/stm32f4xx_usart.c **** @endverbatim
1084:Drivers/STM32F4xx_FWLIB/src/stm32f4xx_usart.c ****   * @{
1085:Drivers/STM32F4xx_FWLIB/src/stm32f4xx_usart.c ****   */
1086:Drivers/STM32F4xx_FWLIB/src/stm32f4xx_usart.c ****   
1087:Drivers/STM32F4xx_FWLIB/src/stm32f4xx_usart.c **** /**
1088:Drivers/STM32F4xx_FWLIB/src/stm32f4xx_usart.c ****   * @brief  Enables or disables the USART's DMA interface.
1089:Drivers/STM32F4xx_FWLIB/src/stm32f4xx_usart.c ****   * @param  USARTx: where x can be 1, 2, 3, 4, 5, 6, 7 or 8 to select the USART or 
1090:Drivers/STM32F4xx_FWLIB/src/stm32f4xx_usart.c ****   *         UART peripheral.
1091:Drivers/STM32F4xx_FWLIB/src/stm32f4xx_usart.c ****   * @param  USART_DMAReq: specifies the DMA request.
1092:Drivers/STM32F4xx_FWLIB/src/stm32f4xx_usart.c ****   *          This parameter can be any combination of the following values:
1093:Drivers/STM32F4xx_FWLIB/src/stm32f4xx_usart.c ****   *            @arg USART_DMAReq_Tx: USART DMA transmit request
1094:Drivers/STM32F4xx_FWLIB/src/stm32f4xx_usart.c ****   *            @arg USART_DMAReq_Rx: USART DMA receive request
1095:Drivers/STM32F4xx_FWLIB/src/stm32f4xx_usart.c ****   * @param  NewState: new state of the DMA Request sources.
1096:Drivers/STM32F4xx_FWLIB/src/stm32f4xx_usart.c ****   *          This parameter can be: ENABLE or DISABLE.   
1097:Drivers/STM32F4xx_FWLIB/src/stm32f4xx_usart.c ****   * @retval None
1098:Drivers/STM32F4xx_FWLIB/src/stm32f4xx_usart.c ****   */
1099:Drivers/STM32F4xx_FWLIB/src/stm32f4xx_usart.c **** void USART_DMACmd(USART_TypeDef* USARTx, uint16_t USART_DMAReq, FunctionalState NewState)
1100:Drivers/STM32F4xx_FWLIB/src/stm32f4xx_usart.c **** {
 1294              		.loc 1 1100 1 is_stmt 1 view -0
 1295              		.cfi_startproc
 1296              		@ args = 0, pretend = 0, frame = 0
 1297              		@ frame_needed = 0, uses_anonymous_args = 0
 1298              		@ link register save eliminated.
1101:Drivers/STM32F4xx_FWLIB/src/stm32f4xx_usart.c ****   /* Check the parameters */
ARM GAS  /tmp/cc5XfcFW.s 			page 43


1102:Drivers/STM32F4xx_FWLIB/src/stm32f4xx_usart.c ****   assert_param(IS_USART_ALL_PERIPH(USARTx));
 1299              		.loc 1 1102 3 view .LVU345
1103:Drivers/STM32F4xx_FWLIB/src/stm32f4xx_usart.c ****   assert_param(IS_USART_DMAREQ(USART_DMAReq));  
 1300              		.loc 1 1103 3 view .LVU346
1104:Drivers/STM32F4xx_FWLIB/src/stm32f4xx_usart.c ****   assert_param(IS_FUNCTIONAL_STATE(NewState)); 
 1301              		.loc 1 1104 3 view .LVU347
1105:Drivers/STM32F4xx_FWLIB/src/stm32f4xx_usart.c **** 
1106:Drivers/STM32F4xx_FWLIB/src/stm32f4xx_usart.c ****   if (NewState != DISABLE)
 1302              		.loc 1 1106 3 view .LVU348
 1303              		.loc 1 1106 6 is_stmt 0 view .LVU349
 1304 0000 22B1     		cbz	r2, .L75
1107:Drivers/STM32F4xx_FWLIB/src/stm32f4xx_usart.c ****   {
1108:Drivers/STM32F4xx_FWLIB/src/stm32f4xx_usart.c ****     /* Enable the DMA transfer for selected requests by setting the DMAT and/or
1109:Drivers/STM32F4xx_FWLIB/src/stm32f4xx_usart.c ****        DMAR bits in the USART CR3 register */
1110:Drivers/STM32F4xx_FWLIB/src/stm32f4xx_usart.c ****     USARTx->CR3 |= USART_DMAReq;
 1305              		.loc 1 1110 5 is_stmt 1 view .LVU350
 1306              		.loc 1 1110 17 is_stmt 0 view .LVU351
 1307 0002 838A     		ldrh	r3, [r0, #20]
 1308 0004 9BB2     		uxth	r3, r3
 1309 0006 1943     		orrs	r1, r1, r3
 1310              	.LVL100:
 1311              		.loc 1 1110 17 view .LVU352
 1312 0008 8182     		strh	r1, [r0, #20]	@ movhi
 1313 000a 7047     		bx	lr
 1314              	.LVL101:
 1315              	.L75:
1111:Drivers/STM32F4xx_FWLIB/src/stm32f4xx_usart.c ****   }
1112:Drivers/STM32F4xx_FWLIB/src/stm32f4xx_usart.c ****   else
1113:Drivers/STM32F4xx_FWLIB/src/stm32f4xx_usart.c ****   {
1114:Drivers/STM32F4xx_FWLIB/src/stm32f4xx_usart.c ****     /* Disable the DMA transfer for selected requests by clearing the DMAT and/or
1115:Drivers/STM32F4xx_FWLIB/src/stm32f4xx_usart.c ****        DMAR bits in the USART CR3 register */
1116:Drivers/STM32F4xx_FWLIB/src/stm32f4xx_usart.c ****     USARTx->CR3 &= (uint16_t)~USART_DMAReq;
 1316              		.loc 1 1116 5 is_stmt 1 view .LVU353
 1317              		.loc 1 1116 17 is_stmt 0 view .LVU354
 1318 000c 838A     		ldrh	r3, [r0, #20]
 1319              		.loc 1 1116 20 view .LVU355
 1320 000e C943     		mvns	r1, r1
 1321              	.LVL102:
 1322              		.loc 1 1116 20 view .LVU356
 1323 0010 89B2     		uxth	r1, r1
 1324              		.loc 1 1116 17 view .LVU357
 1325 0012 1940     		ands	r1, r1, r3
 1326 0014 8182     		strh	r1, [r0, #20]	@ movhi
1117:Drivers/STM32F4xx_FWLIB/src/stm32f4xx_usart.c ****   }
1118:Drivers/STM32F4xx_FWLIB/src/stm32f4xx_usart.c **** }
 1327              		.loc 1 1118 1 view .LVU358
 1328 0016 7047     		bx	lr
 1329              		.cfi_endproc
 1330              	.LFE153:
 1332              		.section	.text.USART_ITConfig,"ax",%progbits
 1333              		.align	1
 1334              		.global	USART_ITConfig
 1335              		.syntax unified
 1336              		.thumb
 1337              		.thumb_func
 1338              		.fpu fpv4-sp-d16
 1340              	USART_ITConfig:
ARM GAS  /tmp/cc5XfcFW.s 			page 44


 1341              	.LVL103:
 1342              	.LFB154:
1119:Drivers/STM32F4xx_FWLIB/src/stm32f4xx_usart.c **** 
1120:Drivers/STM32F4xx_FWLIB/src/stm32f4xx_usart.c **** /**
1121:Drivers/STM32F4xx_FWLIB/src/stm32f4xx_usart.c ****   * @}
1122:Drivers/STM32F4xx_FWLIB/src/stm32f4xx_usart.c ****   */
1123:Drivers/STM32F4xx_FWLIB/src/stm32f4xx_usart.c ****   
1124:Drivers/STM32F4xx_FWLIB/src/stm32f4xx_usart.c **** /** @defgroup USART_Group9 Interrupts and flags management functions
1125:Drivers/STM32F4xx_FWLIB/src/stm32f4xx_usart.c ****  *  @brief   Interrupts and flags management functions 
1126:Drivers/STM32F4xx_FWLIB/src/stm32f4xx_usart.c ****  *
1127:Drivers/STM32F4xx_FWLIB/src/stm32f4xx_usart.c **** @verbatim   
1128:Drivers/STM32F4xx_FWLIB/src/stm32f4xx_usart.c ****  ===============================================================================
1129:Drivers/STM32F4xx_FWLIB/src/stm32f4xx_usart.c ****             ##### Interrupts and flags management functions #####
1130:Drivers/STM32F4xx_FWLIB/src/stm32f4xx_usart.c ****  ===============================================================================  
1131:Drivers/STM32F4xx_FWLIB/src/stm32f4xx_usart.c ****     [..]
1132:Drivers/STM32F4xx_FWLIB/src/stm32f4xx_usart.c ****     This subsection provides a set of functions allowing to configure the USART 
1133:Drivers/STM32F4xx_FWLIB/src/stm32f4xx_usart.c ****     Interrupts sources, DMA channels requests and check or clear the flags or 
1134:Drivers/STM32F4xx_FWLIB/src/stm32f4xx_usart.c ****     pending bits status.
1135:Drivers/STM32F4xx_FWLIB/src/stm32f4xx_usart.c ****     The user should identify which mode will be used in his application to manage 
1136:Drivers/STM32F4xx_FWLIB/src/stm32f4xx_usart.c ****     the communication: Polling mode, Interrupt mode or DMA mode. 
1137:Drivers/STM32F4xx_FWLIB/src/stm32f4xx_usart.c ****     
1138:Drivers/STM32F4xx_FWLIB/src/stm32f4xx_usart.c ****     *** Polling Mode ***
1139:Drivers/STM32F4xx_FWLIB/src/stm32f4xx_usart.c ****     ====================
1140:Drivers/STM32F4xx_FWLIB/src/stm32f4xx_usart.c ****     [..]
1141:Drivers/STM32F4xx_FWLIB/src/stm32f4xx_usart.c ****     In Polling Mode, the SPI communication can be managed by 10 flags:
1142:Drivers/STM32F4xx_FWLIB/src/stm32f4xx_usart.c ****       (#) USART_FLAG_TXE : to indicate the status of the transmit buffer register
1143:Drivers/STM32F4xx_FWLIB/src/stm32f4xx_usart.c ****       (#) USART_FLAG_RXNE : to indicate the status of the receive buffer register
1144:Drivers/STM32F4xx_FWLIB/src/stm32f4xx_usart.c ****       (#) USART_FLAG_TC : to indicate the status of the transmit operation
1145:Drivers/STM32F4xx_FWLIB/src/stm32f4xx_usart.c ****       (#) USART_FLAG_IDLE : to indicate the status of the Idle Line             
1146:Drivers/STM32F4xx_FWLIB/src/stm32f4xx_usart.c ****       (#) USART_FLAG_CTS : to indicate the status of the nCTS input
1147:Drivers/STM32F4xx_FWLIB/src/stm32f4xx_usart.c ****       (#) USART_FLAG_LBD : to indicate the status of the LIN break detection
1148:Drivers/STM32F4xx_FWLIB/src/stm32f4xx_usart.c ****       (#) USART_FLAG_NE : to indicate if a noise error occur
1149:Drivers/STM32F4xx_FWLIB/src/stm32f4xx_usart.c ****       (#) USART_FLAG_FE : to indicate if a frame error occur
1150:Drivers/STM32F4xx_FWLIB/src/stm32f4xx_usart.c ****       (#) USART_FLAG_PE : to indicate if a parity error occur
1151:Drivers/STM32F4xx_FWLIB/src/stm32f4xx_usart.c ****       (#) USART_FLAG_ORE : to indicate if an Overrun error occur
1152:Drivers/STM32F4xx_FWLIB/src/stm32f4xx_usart.c ****     [..]
1153:Drivers/STM32F4xx_FWLIB/src/stm32f4xx_usart.c ****     In this Mode it is advised to use the following functions:
1154:Drivers/STM32F4xx_FWLIB/src/stm32f4xx_usart.c ****       (+) FlagStatus USART_GetFlagStatus(USART_TypeDef* USARTx, uint16_t USART_FLAG);
1155:Drivers/STM32F4xx_FWLIB/src/stm32f4xx_usart.c ****       (+) void USART_ClearFlag(USART_TypeDef* USARTx, uint16_t USART_FLAG);
1156:Drivers/STM32F4xx_FWLIB/src/stm32f4xx_usart.c **** 
1157:Drivers/STM32F4xx_FWLIB/src/stm32f4xx_usart.c ****     *** Interrupt Mode ***
1158:Drivers/STM32F4xx_FWLIB/src/stm32f4xx_usart.c ****     ======================
1159:Drivers/STM32F4xx_FWLIB/src/stm32f4xx_usart.c ****     [..]
1160:Drivers/STM32F4xx_FWLIB/src/stm32f4xx_usart.c ****     In Interrupt Mode, the USART communication can be managed by 8 interrupt sources
1161:Drivers/STM32F4xx_FWLIB/src/stm32f4xx_usart.c ****     and 10 pending bits: 
1162:Drivers/STM32F4xx_FWLIB/src/stm32f4xx_usart.c **** 
1163:Drivers/STM32F4xx_FWLIB/src/stm32f4xx_usart.c ****       (#) Pending Bits:
1164:Drivers/STM32F4xx_FWLIB/src/stm32f4xx_usart.c **** 
1165:Drivers/STM32F4xx_FWLIB/src/stm32f4xx_usart.c ****         (##) USART_IT_TXE : to indicate the status of the transmit buffer register
1166:Drivers/STM32F4xx_FWLIB/src/stm32f4xx_usart.c ****         (##) USART_IT_RXNE : to indicate the status of the receive buffer register
1167:Drivers/STM32F4xx_FWLIB/src/stm32f4xx_usart.c ****         (##) USART_IT_TC : to indicate the status of the transmit operation
1168:Drivers/STM32F4xx_FWLIB/src/stm32f4xx_usart.c ****         (##) USART_IT_IDLE : to indicate the status of the Idle Line             
1169:Drivers/STM32F4xx_FWLIB/src/stm32f4xx_usart.c ****         (##) USART_IT_CTS : to indicate the status of the nCTS input
1170:Drivers/STM32F4xx_FWLIB/src/stm32f4xx_usart.c ****         (##) USART_IT_LBD : to indicate the status of the LIN break detection
1171:Drivers/STM32F4xx_FWLIB/src/stm32f4xx_usart.c ****         (##) USART_IT_NE : to indicate if a noise error occur
1172:Drivers/STM32F4xx_FWLIB/src/stm32f4xx_usart.c ****         (##) USART_IT_FE : to indicate if a frame error occur
1173:Drivers/STM32F4xx_FWLIB/src/stm32f4xx_usart.c ****         (##) USART_IT_PE : to indicate if a parity error occur
ARM GAS  /tmp/cc5XfcFW.s 			page 45


1174:Drivers/STM32F4xx_FWLIB/src/stm32f4xx_usart.c ****         (##) USART_IT_ORE : to indicate if an Overrun error occur
1175:Drivers/STM32F4xx_FWLIB/src/stm32f4xx_usart.c **** 
1176:Drivers/STM32F4xx_FWLIB/src/stm32f4xx_usart.c ****       (#) Interrupt Source:
1177:Drivers/STM32F4xx_FWLIB/src/stm32f4xx_usart.c **** 
1178:Drivers/STM32F4xx_FWLIB/src/stm32f4xx_usart.c ****         (##) USART_IT_TXE : specifies the interrupt source for the Tx buffer empty 
1179:Drivers/STM32F4xx_FWLIB/src/stm32f4xx_usart.c ****                             interrupt. 
1180:Drivers/STM32F4xx_FWLIB/src/stm32f4xx_usart.c ****         (##) USART_IT_RXNE : specifies the interrupt source for the Rx buffer not 
1181:Drivers/STM32F4xx_FWLIB/src/stm32f4xx_usart.c ****                              empty interrupt.
1182:Drivers/STM32F4xx_FWLIB/src/stm32f4xx_usart.c ****         (##) USART_IT_TC : specifies the interrupt source for the Transmit complete 
1183:Drivers/STM32F4xx_FWLIB/src/stm32f4xx_usart.c ****                            interrupt. 
1184:Drivers/STM32F4xx_FWLIB/src/stm32f4xx_usart.c ****         (##) USART_IT_IDLE : specifies the interrupt source for the Idle Line interrupt.           
1185:Drivers/STM32F4xx_FWLIB/src/stm32f4xx_usart.c ****         (##) USART_IT_CTS : specifies the interrupt source for the CTS interrupt. 
1186:Drivers/STM32F4xx_FWLIB/src/stm32f4xx_usart.c ****         (##) USART_IT_LBD : specifies the interrupt source for the LIN break detection
1187:Drivers/STM32F4xx_FWLIB/src/stm32f4xx_usart.c ****                             interrupt. 
1188:Drivers/STM32F4xx_FWLIB/src/stm32f4xx_usart.c ****         (##) USART_IT_PE : specifies the interrupt source for the parity error interrupt. 
1189:Drivers/STM32F4xx_FWLIB/src/stm32f4xx_usart.c ****         (##) USART_IT_ERR :  specifies the interrupt source for the errors interrupt.
1190:Drivers/STM32F4xx_FWLIB/src/stm32f4xx_usart.c **** 
1191:Drivers/STM32F4xx_FWLIB/src/stm32f4xx_usart.c ****       -@@- Some parameters are coded in order to use them as interrupt source 
1192:Drivers/STM32F4xx_FWLIB/src/stm32f4xx_usart.c ****           or as pending bits.
1193:Drivers/STM32F4xx_FWLIB/src/stm32f4xx_usart.c ****     [..]
1194:Drivers/STM32F4xx_FWLIB/src/stm32f4xx_usart.c ****     In this Mode it is advised to use the following functions:
1195:Drivers/STM32F4xx_FWLIB/src/stm32f4xx_usart.c ****       (+) void USART_ITConfig(USART_TypeDef* USARTx, uint16_t USART_IT, FunctionalState NewState);
1196:Drivers/STM32F4xx_FWLIB/src/stm32f4xx_usart.c ****       (+) ITStatus USART_GetITStatus(USART_TypeDef* USARTx, uint16_t USART_IT);
1197:Drivers/STM32F4xx_FWLIB/src/stm32f4xx_usart.c ****       (+) void USART_ClearITPendingBit(USART_TypeDef* USARTx, uint16_t USART_IT);
1198:Drivers/STM32F4xx_FWLIB/src/stm32f4xx_usart.c **** 
1199:Drivers/STM32F4xx_FWLIB/src/stm32f4xx_usart.c ****     *** DMA Mode ***
1200:Drivers/STM32F4xx_FWLIB/src/stm32f4xx_usart.c ****     ================
1201:Drivers/STM32F4xx_FWLIB/src/stm32f4xx_usart.c ****     [..]
1202:Drivers/STM32F4xx_FWLIB/src/stm32f4xx_usart.c ****     In DMA Mode, the USART communication can be managed by 2 DMA Channel requests:
1203:Drivers/STM32F4xx_FWLIB/src/stm32f4xx_usart.c ****       (#) USART_DMAReq_Tx: specifies the Tx buffer DMA transfer request
1204:Drivers/STM32F4xx_FWLIB/src/stm32f4xx_usart.c ****       (#) USART_DMAReq_Rx: specifies the Rx buffer DMA transfer request
1205:Drivers/STM32F4xx_FWLIB/src/stm32f4xx_usart.c ****     [..]
1206:Drivers/STM32F4xx_FWLIB/src/stm32f4xx_usart.c ****     In this Mode it is advised to use the following function:
1207:Drivers/STM32F4xx_FWLIB/src/stm32f4xx_usart.c ****       (+) void USART_DMACmd(USART_TypeDef* USARTx, uint16_t USART_DMAReq, FunctionalState NewState)
1208:Drivers/STM32F4xx_FWLIB/src/stm32f4xx_usart.c **** 
1209:Drivers/STM32F4xx_FWLIB/src/stm32f4xx_usart.c **** @endverbatim
1210:Drivers/STM32F4xx_FWLIB/src/stm32f4xx_usart.c ****   * @{
1211:Drivers/STM32F4xx_FWLIB/src/stm32f4xx_usart.c ****   */
1212:Drivers/STM32F4xx_FWLIB/src/stm32f4xx_usart.c **** 
1213:Drivers/STM32F4xx_FWLIB/src/stm32f4xx_usart.c **** /**
1214:Drivers/STM32F4xx_FWLIB/src/stm32f4xx_usart.c ****   * @brief  Enables or disables the specified USART interrupts.
1215:Drivers/STM32F4xx_FWLIB/src/stm32f4xx_usart.c ****   * @param  USARTx: where x can be 1, 2, 3, 4, 5, 6, 7 or 8 to select the USART or 
1216:Drivers/STM32F4xx_FWLIB/src/stm32f4xx_usart.c ****   *         UART peripheral.
1217:Drivers/STM32F4xx_FWLIB/src/stm32f4xx_usart.c ****   * @param  USART_IT: specifies the USART interrupt sources to be enabled or disabled.
1218:Drivers/STM32F4xx_FWLIB/src/stm32f4xx_usart.c ****   *          This parameter can be one of the following values:
1219:Drivers/STM32F4xx_FWLIB/src/stm32f4xx_usart.c ****   *            @arg USART_IT_CTS:  CTS change interrupt
1220:Drivers/STM32F4xx_FWLIB/src/stm32f4xx_usart.c ****   *            @arg USART_IT_LBD:  LIN Break detection interrupt
1221:Drivers/STM32F4xx_FWLIB/src/stm32f4xx_usart.c ****   *            @arg USART_IT_TXE:  Transmit Data Register empty interrupt
1222:Drivers/STM32F4xx_FWLIB/src/stm32f4xx_usart.c ****   *            @arg USART_IT_TC:   Transmission complete interrupt
1223:Drivers/STM32F4xx_FWLIB/src/stm32f4xx_usart.c ****   *            @arg USART_IT_RXNE: Receive Data register not empty interrupt
1224:Drivers/STM32F4xx_FWLIB/src/stm32f4xx_usart.c ****   *            @arg USART_IT_IDLE: Idle line detection interrupt
1225:Drivers/STM32F4xx_FWLIB/src/stm32f4xx_usart.c ****   *            @arg USART_IT_PE:   Parity Error interrupt
1226:Drivers/STM32F4xx_FWLIB/src/stm32f4xx_usart.c ****   *            @arg USART_IT_ERR:  Error interrupt(Frame error, noise error, overrun error)
1227:Drivers/STM32F4xx_FWLIB/src/stm32f4xx_usart.c ****   * @param  NewState: new state of the specified USARTx interrupts.
1228:Drivers/STM32F4xx_FWLIB/src/stm32f4xx_usart.c ****   *          This parameter can be: ENABLE or DISABLE.
1229:Drivers/STM32F4xx_FWLIB/src/stm32f4xx_usart.c ****   * @retval None
1230:Drivers/STM32F4xx_FWLIB/src/stm32f4xx_usart.c ****   */
ARM GAS  /tmp/cc5XfcFW.s 			page 46


1231:Drivers/STM32F4xx_FWLIB/src/stm32f4xx_usart.c **** void USART_ITConfig(USART_TypeDef* USARTx, uint16_t USART_IT, FunctionalState NewState)
1232:Drivers/STM32F4xx_FWLIB/src/stm32f4xx_usart.c **** {
 1343              		.loc 1 1232 1 is_stmt 1 view -0
 1344              		.cfi_startproc
 1345              		@ args = 0, pretend = 0, frame = 0
 1346              		@ frame_needed = 0, uses_anonymous_args = 0
 1347              		@ link register save eliminated.
 1348              		.loc 1 1232 1 is_stmt 0 view .LVU360
 1349 0000 10B4     		push	{r4}
 1350              	.LCFI7:
 1351              		.cfi_def_cfa_offset 4
 1352              		.cfi_offset 4, -4
1233:Drivers/STM32F4xx_FWLIB/src/stm32f4xx_usart.c ****   uint32_t usartreg = 0x00, itpos = 0x00, itmask = 0x00;
 1353              		.loc 1 1233 3 is_stmt 1 view .LVU361
 1354              	.LVL104:
1234:Drivers/STM32F4xx_FWLIB/src/stm32f4xx_usart.c ****   uint32_t usartxbase = 0x00;
 1355              		.loc 1 1234 3 view .LVU362
1235:Drivers/STM32F4xx_FWLIB/src/stm32f4xx_usart.c ****   /* Check the parameters */
1236:Drivers/STM32F4xx_FWLIB/src/stm32f4xx_usart.c ****   assert_param(IS_USART_ALL_PERIPH(USARTx));
 1356              		.loc 1 1236 3 view .LVU363
1237:Drivers/STM32F4xx_FWLIB/src/stm32f4xx_usart.c ****   assert_param(IS_USART_CONFIG_IT(USART_IT));
 1357              		.loc 1 1237 3 view .LVU364
1238:Drivers/STM32F4xx_FWLIB/src/stm32f4xx_usart.c ****   assert_param(IS_FUNCTIONAL_STATE(NewState));
 1358              		.loc 1 1238 3 view .LVU365
1239:Drivers/STM32F4xx_FWLIB/src/stm32f4xx_usart.c **** 
1240:Drivers/STM32F4xx_FWLIB/src/stm32f4xx_usart.c ****   /* The CTS interrupt is not available for UART4 and UART5 */
1241:Drivers/STM32F4xx_FWLIB/src/stm32f4xx_usart.c ****   if (USART_IT == USART_IT_CTS)
 1359              		.loc 1 1241 3 view .LVU366
1242:Drivers/STM32F4xx_FWLIB/src/stm32f4xx_usart.c ****   {
1243:Drivers/STM32F4xx_FWLIB/src/stm32f4xx_usart.c ****     assert_param(IS_USART_1236_PERIPH(USARTx));
 1360              		.loc 1 1243 5 view .LVU367
1244:Drivers/STM32F4xx_FWLIB/src/stm32f4xx_usart.c ****   } 
1245:Drivers/STM32F4xx_FWLIB/src/stm32f4xx_usart.c ****     
1246:Drivers/STM32F4xx_FWLIB/src/stm32f4xx_usart.c ****   usartxbase = (uint32_t)USARTx;
 1361              		.loc 1 1246 3 view .LVU368
1247:Drivers/STM32F4xx_FWLIB/src/stm32f4xx_usart.c **** 
1248:Drivers/STM32F4xx_FWLIB/src/stm32f4xx_usart.c ****   /* Get the USART register index */
1249:Drivers/STM32F4xx_FWLIB/src/stm32f4xx_usart.c ****   usartreg = (((uint8_t)USART_IT) >> 0x05);
 1362              		.loc 1 1249 3 view .LVU369
 1363              		.loc 1 1249 35 is_stmt 0 view .LVU370
 1364 0002 C1F34214 		ubfx	r4, r1, #5, #3
 1365              	.LVL105:
1250:Drivers/STM32F4xx_FWLIB/src/stm32f4xx_usart.c **** 
1251:Drivers/STM32F4xx_FWLIB/src/stm32f4xx_usart.c ****   /* Get the interrupt position */
1252:Drivers/STM32F4xx_FWLIB/src/stm32f4xx_usart.c ****   itpos = USART_IT & IT_MASK;
 1366              		.loc 1 1252 3 is_stmt 1 view .LVU371
 1367              		.loc 1 1252 9 is_stmt 0 view .LVU372
 1368 0006 01F01F01 		and	r1, r1, #31
 1369              	.LVL106:
1253:Drivers/STM32F4xx_FWLIB/src/stm32f4xx_usart.c ****   itmask = (((uint32_t)0x01) << itpos);
 1370              		.loc 1 1253 3 is_stmt 1 view .LVU373
 1371              		.loc 1 1253 10 is_stmt 0 view .LVU374
 1372 000a 0123     		movs	r3, #1
 1373 000c 03FA01F1 		lsl	r1, r3, r1
 1374              	.LVL107:
1254:Drivers/STM32F4xx_FWLIB/src/stm32f4xx_usart.c ****     
1255:Drivers/STM32F4xx_FWLIB/src/stm32f4xx_usart.c ****   if (usartreg == 0x01) /* The IT is in CR1 register */
ARM GAS  /tmp/cc5XfcFW.s 			page 47


 1375              		.loc 1 1255 3 is_stmt 1 view .LVU375
 1376              		.loc 1 1255 6 is_stmt 0 view .LVU376
 1377 0010 9C42     		cmp	r4, r3
 1378 0012 09D0     		beq	.L84
1256:Drivers/STM32F4xx_FWLIB/src/stm32f4xx_usart.c ****   {
1257:Drivers/STM32F4xx_FWLIB/src/stm32f4xx_usart.c ****     usartxbase += 0x0C;
1258:Drivers/STM32F4xx_FWLIB/src/stm32f4xx_usart.c ****   }
1259:Drivers/STM32F4xx_FWLIB/src/stm32f4xx_usart.c ****   else if (usartreg == 0x02) /* The IT is in CR2 register */
 1379              		.loc 1 1259 8 is_stmt 1 view .LVU377
 1380              		.loc 1 1259 11 is_stmt 0 view .LVU378
 1381 0014 022C     		cmp	r4, #2
 1382 0016 09D0     		beq	.L85
1260:Drivers/STM32F4xx_FWLIB/src/stm32f4xx_usart.c ****   {
1261:Drivers/STM32F4xx_FWLIB/src/stm32f4xx_usart.c ****     usartxbase += 0x10;
1262:Drivers/STM32F4xx_FWLIB/src/stm32f4xx_usart.c ****   }
1263:Drivers/STM32F4xx_FWLIB/src/stm32f4xx_usart.c ****   else /* The IT is in CR3 register */
1264:Drivers/STM32F4xx_FWLIB/src/stm32f4xx_usart.c ****   {
1265:Drivers/STM32F4xx_FWLIB/src/stm32f4xx_usart.c ****     usartxbase += 0x14; 
 1383              		.loc 1 1265 5 is_stmt 1 view .LVU379
 1384              		.loc 1 1265 16 is_stmt 0 view .LVU380
 1385 0018 1430     		adds	r0, r0, #20
 1386              	.LVL108:
 1387              	.L79:
1266:Drivers/STM32F4xx_FWLIB/src/stm32f4xx_usart.c ****   }
1267:Drivers/STM32F4xx_FWLIB/src/stm32f4xx_usart.c ****   if (NewState != DISABLE)
 1388              		.loc 1 1267 3 is_stmt 1 view .LVU381
 1389              		.loc 1 1267 6 is_stmt 0 view .LVU382
 1390 001a 4AB1     		cbz	r2, .L81
1268:Drivers/STM32F4xx_FWLIB/src/stm32f4xx_usart.c ****   {
1269:Drivers/STM32F4xx_FWLIB/src/stm32f4xx_usart.c ****     *(__IO uint32_t*)usartxbase  |= itmask;
 1391              		.loc 1 1269 5 is_stmt 1 view .LVU383
 1392              		.loc 1 1269 34 is_stmt 0 view .LVU384
 1393 001c 0368     		ldr	r3, [r0]
 1394 001e 1943     		orrs	r1, r1, r3
 1395              	.LVL109:
 1396              		.loc 1 1269 34 view .LVU385
 1397 0020 0160     		str	r1, [r0]
 1398              	.L77:
1270:Drivers/STM32F4xx_FWLIB/src/stm32f4xx_usart.c ****   }
1271:Drivers/STM32F4xx_FWLIB/src/stm32f4xx_usart.c ****   else
1272:Drivers/STM32F4xx_FWLIB/src/stm32f4xx_usart.c ****   {
1273:Drivers/STM32F4xx_FWLIB/src/stm32f4xx_usart.c ****     *(__IO uint32_t*)usartxbase &= ~itmask;
1274:Drivers/STM32F4xx_FWLIB/src/stm32f4xx_usart.c ****   }
1275:Drivers/STM32F4xx_FWLIB/src/stm32f4xx_usart.c **** }
 1399              		.loc 1 1275 1 view .LVU386
 1400 0022 5DF8044B 		ldr	r4, [sp], #4
 1401              	.LCFI8:
 1402              		.cfi_remember_state
 1403              		.cfi_restore 4
 1404              		.cfi_def_cfa_offset 0
 1405              	.LVL110:
 1406              		.loc 1 1275 1 view .LVU387
 1407 0026 7047     		bx	lr
 1408              	.LVL111:
 1409              	.L84:
 1410              	.LCFI9:
 1411              		.cfi_restore_state
ARM GAS  /tmp/cc5XfcFW.s 			page 48


1257:Drivers/STM32F4xx_FWLIB/src/stm32f4xx_usart.c ****   }
 1412              		.loc 1 1257 5 is_stmt 1 view .LVU388
1257:Drivers/STM32F4xx_FWLIB/src/stm32f4xx_usart.c ****   }
 1413              		.loc 1 1257 16 is_stmt 0 view .LVU389
 1414 0028 0C30     		adds	r0, r0, #12
 1415              	.LVL112:
1257:Drivers/STM32F4xx_FWLIB/src/stm32f4xx_usart.c ****   }
 1416              		.loc 1 1257 16 view .LVU390
 1417 002a F6E7     		b	.L79
 1418              	.LVL113:
 1419              	.L85:
1261:Drivers/STM32F4xx_FWLIB/src/stm32f4xx_usart.c ****   }
 1420              		.loc 1 1261 5 is_stmt 1 view .LVU391
1261:Drivers/STM32F4xx_FWLIB/src/stm32f4xx_usart.c ****   }
 1421              		.loc 1 1261 16 is_stmt 0 view .LVU392
 1422 002c 1030     		adds	r0, r0, #16
 1423              	.LVL114:
1261:Drivers/STM32F4xx_FWLIB/src/stm32f4xx_usart.c ****   }
 1424              		.loc 1 1261 16 view .LVU393
 1425 002e F4E7     		b	.L79
 1426              	.LVL115:
 1427              	.L81:
1273:Drivers/STM32F4xx_FWLIB/src/stm32f4xx_usart.c ****   }
 1428              		.loc 1 1273 5 is_stmt 1 view .LVU394
1273:Drivers/STM32F4xx_FWLIB/src/stm32f4xx_usart.c ****   }
 1429              		.loc 1 1273 33 is_stmt 0 view .LVU395
 1430 0030 0368     		ldr	r3, [r0]
 1431 0032 23EA0101 		bic	r1, r3, r1
 1432              	.LVL116:
1273:Drivers/STM32F4xx_FWLIB/src/stm32f4xx_usart.c ****   }
 1433              		.loc 1 1273 33 view .LVU396
 1434 0036 0160     		str	r1, [r0]
 1435              		.loc 1 1275 1 view .LVU397
 1436 0038 F3E7     		b	.L77
 1437              		.cfi_endproc
 1438              	.LFE154:
 1440              		.section	.text.USART_GetFlagStatus,"ax",%progbits
 1441              		.align	1
 1442              		.global	USART_GetFlagStatus
 1443              		.syntax unified
 1444              		.thumb
 1445              		.thumb_func
 1446              		.fpu fpv4-sp-d16
 1448              	USART_GetFlagStatus:
 1449              	.LVL117:
 1450              	.LFB155:
1276:Drivers/STM32F4xx_FWLIB/src/stm32f4xx_usart.c **** 
1277:Drivers/STM32F4xx_FWLIB/src/stm32f4xx_usart.c **** /**
1278:Drivers/STM32F4xx_FWLIB/src/stm32f4xx_usart.c ****   * @brief  Checks whether the specified USART flag is set or not.
1279:Drivers/STM32F4xx_FWLIB/src/stm32f4xx_usart.c ****   * @param  USARTx: where x can be 1, 2, 3, 4, 5, 6, 7 or 8 to select the USART or 
1280:Drivers/STM32F4xx_FWLIB/src/stm32f4xx_usart.c ****   *         UART peripheral.
1281:Drivers/STM32F4xx_FWLIB/src/stm32f4xx_usart.c ****   * @param  USART_FLAG: specifies the flag to check.
1282:Drivers/STM32F4xx_FWLIB/src/stm32f4xx_usart.c ****   *          This parameter can be one of the following values:
1283:Drivers/STM32F4xx_FWLIB/src/stm32f4xx_usart.c ****   *            @arg USART_FLAG_CTS:  CTS Change flag (not available for UART4 and UART5)
1284:Drivers/STM32F4xx_FWLIB/src/stm32f4xx_usart.c ****   *            @arg USART_FLAG_LBD:  LIN Break detection flag
1285:Drivers/STM32F4xx_FWLIB/src/stm32f4xx_usart.c ****   *            @arg USART_FLAG_TXE:  Transmit data register empty flag
1286:Drivers/STM32F4xx_FWLIB/src/stm32f4xx_usart.c ****   *            @arg USART_FLAG_TC:   Transmission Complete flag
ARM GAS  /tmp/cc5XfcFW.s 			page 49


1287:Drivers/STM32F4xx_FWLIB/src/stm32f4xx_usart.c ****   *            @arg USART_FLAG_RXNE: Receive data register not empty flag
1288:Drivers/STM32F4xx_FWLIB/src/stm32f4xx_usart.c ****   *            @arg USART_FLAG_IDLE: Idle Line detection flag
1289:Drivers/STM32F4xx_FWLIB/src/stm32f4xx_usart.c ****   *            @arg USART_FLAG_ORE:  OverRun Error flag
1290:Drivers/STM32F4xx_FWLIB/src/stm32f4xx_usart.c ****   *            @arg USART_FLAG_NE:   Noise Error flag
1291:Drivers/STM32F4xx_FWLIB/src/stm32f4xx_usart.c ****   *            @arg USART_FLAG_FE:   Framing Error flag
1292:Drivers/STM32F4xx_FWLIB/src/stm32f4xx_usart.c ****   *            @arg USART_FLAG_PE:   Parity Error flag
1293:Drivers/STM32F4xx_FWLIB/src/stm32f4xx_usart.c ****   * @retval The new state of USART_FLAG (SET or RESET).
1294:Drivers/STM32F4xx_FWLIB/src/stm32f4xx_usart.c ****   */
1295:Drivers/STM32F4xx_FWLIB/src/stm32f4xx_usart.c **** FlagStatus USART_GetFlagStatus(USART_TypeDef* USARTx, uint16_t USART_FLAG)
1296:Drivers/STM32F4xx_FWLIB/src/stm32f4xx_usart.c **** {
 1451              		.loc 1 1296 1 is_stmt 1 view -0
 1452              		.cfi_startproc
 1453              		@ args = 0, pretend = 0, frame = 0
 1454              		@ frame_needed = 0, uses_anonymous_args = 0
 1455              		@ link register save eliminated.
1297:Drivers/STM32F4xx_FWLIB/src/stm32f4xx_usart.c ****   FlagStatus bitstatus = RESET;
 1456              		.loc 1 1297 3 view .LVU399
1298:Drivers/STM32F4xx_FWLIB/src/stm32f4xx_usart.c ****   /* Check the parameters */
1299:Drivers/STM32F4xx_FWLIB/src/stm32f4xx_usart.c ****   assert_param(IS_USART_ALL_PERIPH(USARTx));
 1457              		.loc 1 1299 3 view .LVU400
1300:Drivers/STM32F4xx_FWLIB/src/stm32f4xx_usart.c ****   assert_param(IS_USART_FLAG(USART_FLAG));
 1458              		.loc 1 1300 3 view .LVU401
1301:Drivers/STM32F4xx_FWLIB/src/stm32f4xx_usart.c **** 
1302:Drivers/STM32F4xx_FWLIB/src/stm32f4xx_usart.c ****   /* The CTS flag is not available for UART4 and UART5 */
1303:Drivers/STM32F4xx_FWLIB/src/stm32f4xx_usart.c ****   if (USART_FLAG == USART_FLAG_CTS)
 1459              		.loc 1 1303 3 view .LVU402
1304:Drivers/STM32F4xx_FWLIB/src/stm32f4xx_usart.c ****   {
1305:Drivers/STM32F4xx_FWLIB/src/stm32f4xx_usart.c ****     assert_param(IS_USART_1236_PERIPH(USARTx));
 1460              		.loc 1 1305 5 view .LVU403
1306:Drivers/STM32F4xx_FWLIB/src/stm32f4xx_usart.c ****   } 
1307:Drivers/STM32F4xx_FWLIB/src/stm32f4xx_usart.c ****     
1308:Drivers/STM32F4xx_FWLIB/src/stm32f4xx_usart.c ****   if ((USARTx->SR & USART_FLAG) != (uint16_t)RESET)
 1461              		.loc 1 1308 3 view .LVU404
 1462              		.loc 1 1308 14 is_stmt 0 view .LVU405
 1463 0000 0388     		ldrh	r3, [r0]
 1464              		.loc 1 1308 6 view .LVU406
 1465 0002 1942     		tst	r1, r3
 1466 0004 01D0     		beq	.L88
1309:Drivers/STM32F4xx_FWLIB/src/stm32f4xx_usart.c ****   {
1310:Drivers/STM32F4xx_FWLIB/src/stm32f4xx_usart.c ****     bitstatus = SET;
 1467              		.loc 1 1310 15 view .LVU407
 1468 0006 0120     		movs	r0, #1
 1469              	.LVL118:
 1470              		.loc 1 1310 15 view .LVU408
 1471 0008 7047     		bx	lr
 1472              	.LVL119:
 1473              	.L88:
1311:Drivers/STM32F4xx_FWLIB/src/stm32f4xx_usart.c ****   }
1312:Drivers/STM32F4xx_FWLIB/src/stm32f4xx_usart.c ****   else
1313:Drivers/STM32F4xx_FWLIB/src/stm32f4xx_usart.c ****   {
1314:Drivers/STM32F4xx_FWLIB/src/stm32f4xx_usart.c ****     bitstatus = RESET;
 1474              		.loc 1 1314 15 view .LVU409
 1475 000a 0020     		movs	r0, #0
 1476              	.LVL120:
1315:Drivers/STM32F4xx_FWLIB/src/stm32f4xx_usart.c ****   }
1316:Drivers/STM32F4xx_FWLIB/src/stm32f4xx_usart.c ****   return bitstatus;
 1477              		.loc 1 1316 3 is_stmt 1 view .LVU410
ARM GAS  /tmp/cc5XfcFW.s 			page 50


1317:Drivers/STM32F4xx_FWLIB/src/stm32f4xx_usart.c **** }
 1478              		.loc 1 1317 1 is_stmt 0 view .LVU411
 1479 000c 7047     		bx	lr
 1480              		.cfi_endproc
 1481              	.LFE155:
 1483              		.section	.text.USART_ClearFlag,"ax",%progbits
 1484              		.align	1
 1485              		.global	USART_ClearFlag
 1486              		.syntax unified
 1487              		.thumb
 1488              		.thumb_func
 1489              		.fpu fpv4-sp-d16
 1491              	USART_ClearFlag:
 1492              	.LVL121:
 1493              	.LFB156:
1318:Drivers/STM32F4xx_FWLIB/src/stm32f4xx_usart.c **** 
1319:Drivers/STM32F4xx_FWLIB/src/stm32f4xx_usart.c **** /**
1320:Drivers/STM32F4xx_FWLIB/src/stm32f4xx_usart.c ****   * @brief  Clears the USARTx's pending flags.
1321:Drivers/STM32F4xx_FWLIB/src/stm32f4xx_usart.c ****   * @param  USARTx: where x can be 1, 2, 3, 4, 5, 6, 7 or 8 to select the USART or 
1322:Drivers/STM32F4xx_FWLIB/src/stm32f4xx_usart.c ****   *         UART peripheral.
1323:Drivers/STM32F4xx_FWLIB/src/stm32f4xx_usart.c ****   * @param  USART_FLAG: specifies the flag to clear.
1324:Drivers/STM32F4xx_FWLIB/src/stm32f4xx_usart.c ****   *          This parameter can be any combination of the following values:
1325:Drivers/STM32F4xx_FWLIB/src/stm32f4xx_usart.c ****   *            @arg USART_FLAG_CTS:  CTS Change flag (not available for UART4 and UART5).
1326:Drivers/STM32F4xx_FWLIB/src/stm32f4xx_usart.c ****   *            @arg USART_FLAG_LBD:  LIN Break detection flag.
1327:Drivers/STM32F4xx_FWLIB/src/stm32f4xx_usart.c ****   *            @arg USART_FLAG_TC:   Transmission Complete flag.
1328:Drivers/STM32F4xx_FWLIB/src/stm32f4xx_usart.c ****   *            @arg USART_FLAG_RXNE: Receive data register not empty flag.
1329:Drivers/STM32F4xx_FWLIB/src/stm32f4xx_usart.c ****   *   
1330:Drivers/STM32F4xx_FWLIB/src/stm32f4xx_usart.c ****   * @note   PE (Parity error), FE (Framing error), NE (Noise error), ORE (OverRun 
1331:Drivers/STM32F4xx_FWLIB/src/stm32f4xx_usart.c ****   *          error) and IDLE (Idle line detected) flags are cleared by software 
1332:Drivers/STM32F4xx_FWLIB/src/stm32f4xx_usart.c ****   *          sequence: a read operation to USART_SR register (USART_GetFlagStatus()) 
1333:Drivers/STM32F4xx_FWLIB/src/stm32f4xx_usart.c ****   *          followed by a read operation to USART_DR register (USART_ReceiveData()).
1334:Drivers/STM32F4xx_FWLIB/src/stm32f4xx_usart.c ****   * @note   RXNE flag can be also cleared by a read to the USART_DR register 
1335:Drivers/STM32F4xx_FWLIB/src/stm32f4xx_usart.c ****   *          (USART_ReceiveData()).
1336:Drivers/STM32F4xx_FWLIB/src/stm32f4xx_usart.c ****   * @note   TC flag can be also cleared by software sequence: a read operation to 
1337:Drivers/STM32F4xx_FWLIB/src/stm32f4xx_usart.c ****   *          USART_SR register (USART_GetFlagStatus()) followed by a write operation
1338:Drivers/STM32F4xx_FWLIB/src/stm32f4xx_usart.c ****   *          to USART_DR register (USART_SendData()).
1339:Drivers/STM32F4xx_FWLIB/src/stm32f4xx_usart.c ****   * @note   TXE flag is cleared only by a write to the USART_DR register 
1340:Drivers/STM32F4xx_FWLIB/src/stm32f4xx_usart.c ****   *          (USART_SendData()).
1341:Drivers/STM32F4xx_FWLIB/src/stm32f4xx_usart.c ****   *   
1342:Drivers/STM32F4xx_FWLIB/src/stm32f4xx_usart.c ****   * @retval None
1343:Drivers/STM32F4xx_FWLIB/src/stm32f4xx_usart.c ****   */
1344:Drivers/STM32F4xx_FWLIB/src/stm32f4xx_usart.c **** void USART_ClearFlag(USART_TypeDef* USARTx, uint16_t USART_FLAG)
1345:Drivers/STM32F4xx_FWLIB/src/stm32f4xx_usart.c **** {
 1494              		.loc 1 1345 1 is_stmt 1 view -0
 1495              		.cfi_startproc
 1496              		@ args = 0, pretend = 0, frame = 0
 1497              		@ frame_needed = 0, uses_anonymous_args = 0
 1498              		@ link register save eliminated.
1346:Drivers/STM32F4xx_FWLIB/src/stm32f4xx_usart.c ****   /* Check the parameters */
1347:Drivers/STM32F4xx_FWLIB/src/stm32f4xx_usart.c ****   assert_param(IS_USART_ALL_PERIPH(USARTx));
 1499              		.loc 1 1347 3 view .LVU413
1348:Drivers/STM32F4xx_FWLIB/src/stm32f4xx_usart.c ****   assert_param(IS_USART_CLEAR_FLAG(USART_FLAG));
 1500              		.loc 1 1348 3 view .LVU414
1349:Drivers/STM32F4xx_FWLIB/src/stm32f4xx_usart.c **** 
1350:Drivers/STM32F4xx_FWLIB/src/stm32f4xx_usart.c ****   /* The CTS flag is not available for UART4 and UART5 */
1351:Drivers/STM32F4xx_FWLIB/src/stm32f4xx_usart.c ****   if ((USART_FLAG & USART_FLAG_CTS) == USART_FLAG_CTS)
 1501              		.loc 1 1351 3 view .LVU415
ARM GAS  /tmp/cc5XfcFW.s 			page 51


1352:Drivers/STM32F4xx_FWLIB/src/stm32f4xx_usart.c ****   {
1353:Drivers/STM32F4xx_FWLIB/src/stm32f4xx_usart.c ****     assert_param(IS_USART_1236_PERIPH(USARTx));
 1502              		.loc 1 1353 5 view .LVU416
1354:Drivers/STM32F4xx_FWLIB/src/stm32f4xx_usart.c ****   } 
1355:Drivers/STM32F4xx_FWLIB/src/stm32f4xx_usart.c ****        
1356:Drivers/STM32F4xx_FWLIB/src/stm32f4xx_usart.c ****   USARTx->SR = (uint16_t)~USART_FLAG;
 1503              		.loc 1 1356 3 view .LVU417
 1504              		.loc 1 1356 16 is_stmt 0 view .LVU418
 1505 0000 C943     		mvns	r1, r1
 1506              	.LVL122:
 1507              		.loc 1 1356 16 view .LVU419
 1508 0002 89B2     		uxth	r1, r1
 1509              		.loc 1 1356 14 view .LVU420
 1510 0004 0180     		strh	r1, [r0]	@ movhi
1357:Drivers/STM32F4xx_FWLIB/src/stm32f4xx_usart.c **** }
 1511              		.loc 1 1357 1 view .LVU421
 1512 0006 7047     		bx	lr
 1513              		.cfi_endproc
 1514              	.LFE156:
 1516              		.section	.text.USART_GetITStatus,"ax",%progbits
 1517              		.align	1
 1518              		.global	USART_GetITStatus
 1519              		.syntax unified
 1520              		.thumb
 1521              		.thumb_func
 1522              		.fpu fpv4-sp-d16
 1524              	USART_GetITStatus:
 1525              	.LVL123:
 1526              	.LFB157:
1358:Drivers/STM32F4xx_FWLIB/src/stm32f4xx_usart.c **** 
1359:Drivers/STM32F4xx_FWLIB/src/stm32f4xx_usart.c **** /**
1360:Drivers/STM32F4xx_FWLIB/src/stm32f4xx_usart.c ****   * @brief  Checks whether the specified USART interrupt has occurred or not.
1361:Drivers/STM32F4xx_FWLIB/src/stm32f4xx_usart.c ****   * @param  USARTx: where x can be 1, 2, 3, 4, 5, 6, 7 or 8 to select the USART or 
1362:Drivers/STM32F4xx_FWLIB/src/stm32f4xx_usart.c ****   *         UART peripheral.
1363:Drivers/STM32F4xx_FWLIB/src/stm32f4xx_usart.c ****   * @param  USART_IT: specifies the USART interrupt source to check.
1364:Drivers/STM32F4xx_FWLIB/src/stm32f4xx_usart.c ****   *          This parameter can be one of the following values:
1365:Drivers/STM32F4xx_FWLIB/src/stm32f4xx_usart.c ****   *            @arg USART_IT_CTS:  CTS change interrupt (not available for UART4 and UART5)
1366:Drivers/STM32F4xx_FWLIB/src/stm32f4xx_usart.c ****   *            @arg USART_IT_LBD:  LIN Break detection interrupt
1367:Drivers/STM32F4xx_FWLIB/src/stm32f4xx_usart.c ****   *            @arg USART_IT_TXE:  Transmit Data Register empty interrupt
1368:Drivers/STM32F4xx_FWLIB/src/stm32f4xx_usart.c ****   *            @arg USART_IT_TC:   Transmission complete interrupt
1369:Drivers/STM32F4xx_FWLIB/src/stm32f4xx_usart.c ****   *            @arg USART_IT_RXNE: Receive Data register not empty interrupt
1370:Drivers/STM32F4xx_FWLIB/src/stm32f4xx_usart.c ****   *            @arg USART_IT_IDLE: Idle line detection interrupt
1371:Drivers/STM32F4xx_FWLIB/src/stm32f4xx_usart.c ****   *            @arg USART_IT_ORE_RX : OverRun Error interrupt if the RXNEIE bit is set
1372:Drivers/STM32F4xx_FWLIB/src/stm32f4xx_usart.c ****   *            @arg USART_IT_ORE_ER : OverRun Error interrupt if the EIE bit is set  
1373:Drivers/STM32F4xx_FWLIB/src/stm32f4xx_usart.c ****   *            @arg USART_IT_NE:   Noise Error interrupt
1374:Drivers/STM32F4xx_FWLIB/src/stm32f4xx_usart.c ****   *            @arg USART_IT_FE:   Framing Error interrupt
1375:Drivers/STM32F4xx_FWLIB/src/stm32f4xx_usart.c ****   *            @arg USART_IT_PE:   Parity Error interrupt
1376:Drivers/STM32F4xx_FWLIB/src/stm32f4xx_usart.c ****   * @retval The new state of USART_IT (SET or RESET).
1377:Drivers/STM32F4xx_FWLIB/src/stm32f4xx_usart.c ****   */
1378:Drivers/STM32F4xx_FWLIB/src/stm32f4xx_usart.c **** ITStatus USART_GetITStatus(USART_TypeDef* USARTx, uint16_t USART_IT)
1379:Drivers/STM32F4xx_FWLIB/src/stm32f4xx_usart.c **** {
 1527              		.loc 1 1379 1 is_stmt 1 view -0
 1528              		.cfi_startproc
 1529              		@ args = 0, pretend = 0, frame = 0
 1530              		@ frame_needed = 0, uses_anonymous_args = 0
 1531              		@ link register save eliminated.
 1532              		.loc 1 1379 1 is_stmt 0 view .LVU423
ARM GAS  /tmp/cc5XfcFW.s 			page 52


 1533 0000 10B4     		push	{r4}
 1534              	.LCFI10:
 1535              		.cfi_def_cfa_offset 4
 1536              		.cfi_offset 4, -4
1380:Drivers/STM32F4xx_FWLIB/src/stm32f4xx_usart.c ****   uint32_t bitpos = 0x00, itmask = 0x00, usartreg = 0x00;
 1537              		.loc 1 1380 3 is_stmt 1 view .LVU424
 1538              	.LVL124:
1381:Drivers/STM32F4xx_FWLIB/src/stm32f4xx_usart.c ****   ITStatus bitstatus = RESET;
 1539              		.loc 1 1381 3 view .LVU425
1382:Drivers/STM32F4xx_FWLIB/src/stm32f4xx_usart.c ****   /* Check the parameters */
1383:Drivers/STM32F4xx_FWLIB/src/stm32f4xx_usart.c ****   assert_param(IS_USART_ALL_PERIPH(USARTx));
 1540              		.loc 1 1383 3 view .LVU426
1384:Drivers/STM32F4xx_FWLIB/src/stm32f4xx_usart.c ****   assert_param(IS_USART_GET_IT(USART_IT)); 
 1541              		.loc 1 1384 3 view .LVU427
1385:Drivers/STM32F4xx_FWLIB/src/stm32f4xx_usart.c **** 
1386:Drivers/STM32F4xx_FWLIB/src/stm32f4xx_usart.c ****   /* The CTS interrupt is not available for UART4 and UART5 */ 
1387:Drivers/STM32F4xx_FWLIB/src/stm32f4xx_usart.c ****   if (USART_IT == USART_IT_CTS)
 1542              		.loc 1 1387 3 view .LVU428
1388:Drivers/STM32F4xx_FWLIB/src/stm32f4xx_usart.c ****   {
1389:Drivers/STM32F4xx_FWLIB/src/stm32f4xx_usart.c ****     assert_param(IS_USART_1236_PERIPH(USARTx));
 1543              		.loc 1 1389 5 view .LVU429
1390:Drivers/STM32F4xx_FWLIB/src/stm32f4xx_usart.c ****   } 
1391:Drivers/STM32F4xx_FWLIB/src/stm32f4xx_usart.c ****     
1392:Drivers/STM32F4xx_FWLIB/src/stm32f4xx_usart.c ****   /* Get the USART register index */
1393:Drivers/STM32F4xx_FWLIB/src/stm32f4xx_usart.c ****   usartreg = (((uint8_t)USART_IT) >> 0x05);
 1544              		.loc 1 1393 3 view .LVU430
 1545              		.loc 1 1393 35 is_stmt 0 view .LVU431
 1546 0002 C1F34212 		ubfx	r2, r1, #5, #3
 1547              	.LVL125:
1394:Drivers/STM32F4xx_FWLIB/src/stm32f4xx_usart.c ****   /* Get the interrupt position */
1395:Drivers/STM32F4xx_FWLIB/src/stm32f4xx_usart.c ****   itmask = USART_IT & IT_MASK;
 1548              		.loc 1 1395 3 is_stmt 1 view .LVU432
 1549              		.loc 1 1395 10 is_stmt 0 view .LVU433
 1550 0006 01F01F04 		and	r4, r1, #31
 1551              	.LVL126:
1396:Drivers/STM32F4xx_FWLIB/src/stm32f4xx_usart.c ****   itmask = (uint32_t)0x01 << itmask;
 1552              		.loc 1 1396 3 is_stmt 1 view .LVU434
 1553              		.loc 1 1396 10 is_stmt 0 view .LVU435
 1554 000a 0123     		movs	r3, #1
 1555 000c A340     		lsls	r3, r3, r4
 1556              	.LVL127:
1397:Drivers/STM32F4xx_FWLIB/src/stm32f4xx_usart.c ****   
1398:Drivers/STM32F4xx_FWLIB/src/stm32f4xx_usart.c ****   if (usartreg == 0x01) /* The IT  is in CR1 register */
 1557              		.loc 1 1398 3 is_stmt 1 view .LVU436
 1558              		.loc 1 1398 6 is_stmt 0 view .LVU437
 1559 000e 012A     		cmp	r2, #1
 1560 0010 0FD0     		beq	.L98
1399:Drivers/STM32F4xx_FWLIB/src/stm32f4xx_usart.c ****   {
1400:Drivers/STM32F4xx_FWLIB/src/stm32f4xx_usart.c ****     itmask &= USARTx->CR1;
1401:Drivers/STM32F4xx_FWLIB/src/stm32f4xx_usart.c ****   }
1402:Drivers/STM32F4xx_FWLIB/src/stm32f4xx_usart.c ****   else if (usartreg == 0x02) /* The IT  is in CR2 register */
 1561              		.loc 1 1402 8 is_stmt 1 view .LVU438
 1562              		.loc 1 1402 11 is_stmt 0 view .LVU439
 1563 0012 022A     		cmp	r2, #2
 1564 0014 11D0     		beq	.L99
1403:Drivers/STM32F4xx_FWLIB/src/stm32f4xx_usart.c ****   {
1404:Drivers/STM32F4xx_FWLIB/src/stm32f4xx_usart.c ****     itmask &= USARTx->CR2;
ARM GAS  /tmp/cc5XfcFW.s 			page 53


1405:Drivers/STM32F4xx_FWLIB/src/stm32f4xx_usart.c ****   }
1406:Drivers/STM32F4xx_FWLIB/src/stm32f4xx_usart.c ****   else /* The IT  is in CR3 register */
1407:Drivers/STM32F4xx_FWLIB/src/stm32f4xx_usart.c ****   {
1408:Drivers/STM32F4xx_FWLIB/src/stm32f4xx_usart.c ****     itmask &= USARTx->CR3;
 1565              		.loc 1 1408 5 is_stmt 1 view .LVU440
 1566              		.loc 1 1408 21 is_stmt 0 view .LVU441
 1567 0016 828A     		ldrh	r2, [r0, #20]
 1568              	.LVL128:
 1569              		.loc 1 1408 21 view .LVU442
 1570 0018 92B2     		uxth	r2, r2
 1571              		.loc 1 1408 12 view .LVU443
 1572 001a 1340     		ands	r3, r3, r2
 1573              	.LVL129:
 1574              	.L92:
1409:Drivers/STM32F4xx_FWLIB/src/stm32f4xx_usart.c ****   }
1410:Drivers/STM32F4xx_FWLIB/src/stm32f4xx_usart.c ****   
1411:Drivers/STM32F4xx_FWLIB/src/stm32f4xx_usart.c ****   bitpos = USART_IT >> 0x08;
 1575              		.loc 1 1411 3 is_stmt 1 view .LVU444
 1576              		.loc 1 1411 21 is_stmt 0 view .LVU445
 1577 001c 090A     		lsrs	r1, r1, #8
 1578              	.LVL130:
1412:Drivers/STM32F4xx_FWLIB/src/stm32f4xx_usart.c ****   bitpos = (uint32_t)0x01 << bitpos;
 1579              		.loc 1 1412 3 is_stmt 1 view .LVU446
 1580              		.loc 1 1412 10 is_stmt 0 view .LVU447
 1581 001e 0122     		movs	r2, #1
 1582 0020 02FA01F1 		lsl	r1, r2, r1
 1583              	.LVL131:
1413:Drivers/STM32F4xx_FWLIB/src/stm32f4xx_usart.c ****   bitpos &= USARTx->SR;
 1584              		.loc 1 1413 3 is_stmt 1 view .LVU448
 1585              		.loc 1 1413 19 is_stmt 0 view .LVU449
 1586 0024 0288     		ldrh	r2, [r0]
 1587 0026 92B2     		uxth	r2, r2
 1588              		.loc 1 1413 10 view .LVU450
 1589 0028 0A40     		ands	r2, r2, r1
 1590              	.LVL132:
1414:Drivers/STM32F4xx_FWLIB/src/stm32f4xx_usart.c ****   if ((itmask != (uint16_t)RESET)&&(bitpos != (uint16_t)RESET))
 1591              		.loc 1 1414 3 is_stmt 1 view .LVU451
 1592              		.loc 1 1414 6 is_stmt 0 view .LVU452
 1593 002a 53B1     		cbz	r3, .L95
 1594              		.loc 1 1414 34 discriminator 1 view .LVU453
 1595 002c 6AB9     		cbnz	r2, .L96
1415:Drivers/STM32F4xx_FWLIB/src/stm32f4xx_usart.c ****   {
1416:Drivers/STM32F4xx_FWLIB/src/stm32f4xx_usart.c ****     bitstatus = SET;
1417:Drivers/STM32F4xx_FWLIB/src/stm32f4xx_usart.c ****   }
1418:Drivers/STM32F4xx_FWLIB/src/stm32f4xx_usart.c ****   else
1419:Drivers/STM32F4xx_FWLIB/src/stm32f4xx_usart.c ****   {
1420:Drivers/STM32F4xx_FWLIB/src/stm32f4xx_usart.c ****     bitstatus = RESET;
 1596              		.loc 1 1420 15 view .LVU454
 1597 002e 0020     		movs	r0, #0
 1598              	.LVL133:
 1599              		.loc 1 1420 15 view .LVU455
 1600 0030 08E0     		b	.L94
 1601              	.LVL134:
 1602              	.L98:
1400:Drivers/STM32F4xx_FWLIB/src/stm32f4xx_usart.c ****   }
 1603              		.loc 1 1400 5 is_stmt 1 view .LVU456
1400:Drivers/STM32F4xx_FWLIB/src/stm32f4xx_usart.c ****   }
ARM GAS  /tmp/cc5XfcFW.s 			page 54


 1604              		.loc 1 1400 21 is_stmt 0 view .LVU457
 1605 0032 8289     		ldrh	r2, [r0, #12]
 1606              	.LVL135:
1400:Drivers/STM32F4xx_FWLIB/src/stm32f4xx_usart.c ****   }
 1607              		.loc 1 1400 21 view .LVU458
 1608 0034 92B2     		uxth	r2, r2
1400:Drivers/STM32F4xx_FWLIB/src/stm32f4xx_usart.c ****   }
 1609              		.loc 1 1400 12 view .LVU459
 1610 0036 1340     		ands	r3, r3, r2
 1611              	.LVL136:
1400:Drivers/STM32F4xx_FWLIB/src/stm32f4xx_usart.c ****   }
 1612              		.loc 1 1400 12 view .LVU460
 1613 0038 F0E7     		b	.L92
 1614              	.LVL137:
 1615              	.L99:
1404:Drivers/STM32F4xx_FWLIB/src/stm32f4xx_usart.c ****   }
 1616              		.loc 1 1404 5 is_stmt 1 view .LVU461
1404:Drivers/STM32F4xx_FWLIB/src/stm32f4xx_usart.c ****   }
 1617              		.loc 1 1404 21 is_stmt 0 view .LVU462
 1618 003a 028A     		ldrh	r2, [r0, #16]
 1619              	.LVL138:
1404:Drivers/STM32F4xx_FWLIB/src/stm32f4xx_usart.c ****   }
 1620              		.loc 1 1404 21 view .LVU463
 1621 003c 92B2     		uxth	r2, r2
1404:Drivers/STM32F4xx_FWLIB/src/stm32f4xx_usart.c ****   }
 1622              		.loc 1 1404 12 view .LVU464
 1623 003e 1340     		ands	r3, r3, r2
 1624              	.LVL139:
1404:Drivers/STM32F4xx_FWLIB/src/stm32f4xx_usart.c ****   }
 1625              		.loc 1 1404 12 view .LVU465
 1626 0040 ECE7     		b	.L92
 1627              	.LVL140:
 1628              	.L95:
 1629              		.loc 1 1420 15 view .LVU466
 1630 0042 0020     		movs	r0, #0
 1631              	.LVL141:
 1632              	.L94:
1421:Drivers/STM32F4xx_FWLIB/src/stm32f4xx_usart.c ****   }
1422:Drivers/STM32F4xx_FWLIB/src/stm32f4xx_usart.c ****   
1423:Drivers/STM32F4xx_FWLIB/src/stm32f4xx_usart.c ****   return bitstatus;  
 1633              		.loc 1 1423 3 is_stmt 1 view .LVU467
1424:Drivers/STM32F4xx_FWLIB/src/stm32f4xx_usart.c **** }
 1634              		.loc 1 1424 1 is_stmt 0 view .LVU468
 1635 0044 5DF8044B 		ldr	r4, [sp], #4
 1636              	.LCFI11:
 1637              		.cfi_remember_state
 1638              		.cfi_restore 4
 1639              		.cfi_def_cfa_offset 0
 1640 0048 7047     		bx	lr
 1641              	.LVL142:
 1642              	.L96:
 1643              	.LCFI12:
 1644              		.cfi_restore_state
1416:Drivers/STM32F4xx_FWLIB/src/stm32f4xx_usart.c ****   }
 1645              		.loc 1 1416 15 view .LVU469
 1646 004a 0120     		movs	r0, #1
 1647              	.LVL143:
ARM GAS  /tmp/cc5XfcFW.s 			page 55


1416:Drivers/STM32F4xx_FWLIB/src/stm32f4xx_usart.c ****   }
 1648              		.loc 1 1416 15 view .LVU470
 1649 004c FAE7     		b	.L94
 1650              		.cfi_endproc
 1651              	.LFE157:
 1653              		.section	.text.USART_ClearITPendingBit,"ax",%progbits
 1654              		.align	1
 1655              		.global	USART_ClearITPendingBit
 1656              		.syntax unified
 1657              		.thumb
 1658              		.thumb_func
 1659              		.fpu fpv4-sp-d16
 1661              	USART_ClearITPendingBit:
 1662              	.LVL144:
 1663              	.LFB158:
1425:Drivers/STM32F4xx_FWLIB/src/stm32f4xx_usart.c **** 
1426:Drivers/STM32F4xx_FWLIB/src/stm32f4xx_usart.c **** /**
1427:Drivers/STM32F4xx_FWLIB/src/stm32f4xx_usart.c ****   * @brief  Clears the USARTx's interrupt pending bits.
1428:Drivers/STM32F4xx_FWLIB/src/stm32f4xx_usart.c ****   * @param  USARTx: where x can be 1, 2, 3, 4, 5, 6, 7 or 8 to select the USART or 
1429:Drivers/STM32F4xx_FWLIB/src/stm32f4xx_usart.c ****   *         UART peripheral.
1430:Drivers/STM32F4xx_FWLIB/src/stm32f4xx_usart.c ****   * @param  USART_IT: specifies the interrupt pending bit to clear.
1431:Drivers/STM32F4xx_FWLIB/src/stm32f4xx_usart.c ****   *          This parameter can be one of the following values:
1432:Drivers/STM32F4xx_FWLIB/src/stm32f4xx_usart.c ****   *            @arg USART_IT_CTS:  CTS change interrupt (not available for UART4 and UART5)
1433:Drivers/STM32F4xx_FWLIB/src/stm32f4xx_usart.c ****   *            @arg USART_IT_LBD:  LIN Break detection interrupt
1434:Drivers/STM32F4xx_FWLIB/src/stm32f4xx_usart.c ****   *            @arg USART_IT_TC:   Transmission complete interrupt. 
1435:Drivers/STM32F4xx_FWLIB/src/stm32f4xx_usart.c ****   *            @arg USART_IT_RXNE: Receive Data register not empty interrupt.
1436:Drivers/STM32F4xx_FWLIB/src/stm32f4xx_usart.c ****   *
1437:Drivers/STM32F4xx_FWLIB/src/stm32f4xx_usart.c ****   * @note   PE (Parity error), FE (Framing error), NE (Noise error), ORE (OverRun 
1438:Drivers/STM32F4xx_FWLIB/src/stm32f4xx_usart.c ****   *          error) and IDLE (Idle line detected) pending bits are cleared by 
1439:Drivers/STM32F4xx_FWLIB/src/stm32f4xx_usart.c ****   *          software sequence: a read operation to USART_SR register 
1440:Drivers/STM32F4xx_FWLIB/src/stm32f4xx_usart.c ****   *          (USART_GetITStatus()) followed by a read operation to USART_DR register 
1441:Drivers/STM32F4xx_FWLIB/src/stm32f4xx_usart.c ****   *          (USART_ReceiveData()).
1442:Drivers/STM32F4xx_FWLIB/src/stm32f4xx_usart.c ****   * @note   RXNE pending bit can be also cleared by a read to the USART_DR register 
1443:Drivers/STM32F4xx_FWLIB/src/stm32f4xx_usart.c ****   *          (USART_ReceiveData()).
1444:Drivers/STM32F4xx_FWLIB/src/stm32f4xx_usart.c ****   * @note   TC pending bit can be also cleared by software sequence: a read 
1445:Drivers/STM32F4xx_FWLIB/src/stm32f4xx_usart.c ****   *          operation to USART_SR register (USART_GetITStatus()) followed by a write 
1446:Drivers/STM32F4xx_FWLIB/src/stm32f4xx_usart.c ****   *          operation to USART_DR register (USART_SendData()).
1447:Drivers/STM32F4xx_FWLIB/src/stm32f4xx_usart.c ****   * @note   TXE pending bit is cleared only by a write to the USART_DR register 
1448:Drivers/STM32F4xx_FWLIB/src/stm32f4xx_usart.c ****   *          (USART_SendData()).
1449:Drivers/STM32F4xx_FWLIB/src/stm32f4xx_usart.c ****   *  
1450:Drivers/STM32F4xx_FWLIB/src/stm32f4xx_usart.c ****   * @retval None
1451:Drivers/STM32F4xx_FWLIB/src/stm32f4xx_usart.c ****   */
1452:Drivers/STM32F4xx_FWLIB/src/stm32f4xx_usart.c **** void USART_ClearITPendingBit(USART_TypeDef* USARTx, uint16_t USART_IT)
1453:Drivers/STM32F4xx_FWLIB/src/stm32f4xx_usart.c **** {
 1664              		.loc 1 1453 1 is_stmt 1 view -0
 1665              		.cfi_startproc
 1666              		@ args = 0, pretend = 0, frame = 0
 1667              		@ frame_needed = 0, uses_anonymous_args = 0
 1668              		@ link register save eliminated.
1454:Drivers/STM32F4xx_FWLIB/src/stm32f4xx_usart.c ****   uint16_t bitpos = 0x00, itmask = 0x00;
 1669              		.loc 1 1454 3 view .LVU472
1455:Drivers/STM32F4xx_FWLIB/src/stm32f4xx_usart.c ****   /* Check the parameters */
1456:Drivers/STM32F4xx_FWLIB/src/stm32f4xx_usart.c ****   assert_param(IS_USART_ALL_PERIPH(USARTx));
 1670              		.loc 1 1456 3 view .LVU473
1457:Drivers/STM32F4xx_FWLIB/src/stm32f4xx_usart.c ****   assert_param(IS_USART_CLEAR_IT(USART_IT)); 
 1671              		.loc 1 1457 3 view .LVU474
1458:Drivers/STM32F4xx_FWLIB/src/stm32f4xx_usart.c **** 
ARM GAS  /tmp/cc5XfcFW.s 			page 56


1459:Drivers/STM32F4xx_FWLIB/src/stm32f4xx_usart.c ****   /* The CTS interrupt is not available for UART4 and UART5 */
1460:Drivers/STM32F4xx_FWLIB/src/stm32f4xx_usart.c ****   if (USART_IT == USART_IT_CTS)
 1672              		.loc 1 1460 3 view .LVU475
1461:Drivers/STM32F4xx_FWLIB/src/stm32f4xx_usart.c ****   {
1462:Drivers/STM32F4xx_FWLIB/src/stm32f4xx_usart.c ****     assert_param(IS_USART_1236_PERIPH(USARTx));
 1673              		.loc 1 1462 5 view .LVU476
1463:Drivers/STM32F4xx_FWLIB/src/stm32f4xx_usart.c ****   } 
1464:Drivers/STM32F4xx_FWLIB/src/stm32f4xx_usart.c ****     
1465:Drivers/STM32F4xx_FWLIB/src/stm32f4xx_usart.c ****   bitpos = USART_IT >> 0x08;
 1674              		.loc 1 1465 3 view .LVU477
 1675              		.loc 1 1465 10 is_stmt 0 view .LVU478
 1676 0000 090A     		lsrs	r1, r1, #8
 1677              	.LVL145:
1466:Drivers/STM32F4xx_FWLIB/src/stm32f4xx_usart.c ****   itmask = ((uint16_t)0x01 << (uint16_t)bitpos);
 1678              		.loc 1 1466 3 is_stmt 1 view .LVU479
 1679              		.loc 1 1466 28 is_stmt 0 view .LVU480
 1680 0002 0123     		movs	r3, #1
 1681 0004 8B40     		lsls	r3, r3, r1
 1682              		.loc 1 1466 10 view .LVU481
 1683 0006 9BB2     		uxth	r3, r3
 1684              	.LVL146:
1467:Drivers/STM32F4xx_FWLIB/src/stm32f4xx_usart.c ****   USARTx->SR = (uint16_t)~itmask;
 1685              		.loc 1 1467 3 is_stmt 1 view .LVU482
 1686              		.loc 1 1467 16 is_stmt 0 view .LVU483
 1687 0008 DB43     		mvns	r3, r3
 1688              	.LVL147:
 1689              		.loc 1 1467 16 view .LVU484
 1690 000a 9BB2     		uxth	r3, r3
 1691              	.LVL148:
 1692              		.loc 1 1467 14 view .LVU485
 1693 000c 0380     		strh	r3, [r0]	@ movhi
1468:Drivers/STM32F4xx_FWLIB/src/stm32f4xx_usart.c **** }
 1694              		.loc 1 1468 1 view .LVU486
 1695 000e 7047     		bx	lr
 1696              		.cfi_endproc
 1697              	.LFE158:
 1699              		.text
 1700              	.Letext0:
 1701              		.file 2 "/usr/lib/gcc/arm-none-eabi/9.2.1/include/stdint.h"
 1702              		.file 3 "Drivers/CMSIS/Include/core_cm4.h"
 1703              		.file 4 "Core/Inc/system_stm32f4xx.h"
 1704              		.file 5 "Core/Inc/stm32f4xx.h"
 1705              		.file 6 "Drivers/STM32F4xx_FWLIB/inc/stm32f4xx_rcc.h"
 1706              		.file 7 "Drivers/STM32F4xx_FWLIB/inc/stm32f4xx_usart.h"
ARM GAS  /tmp/cc5XfcFW.s 			page 57

