Archive member included to satisfy reference by file (symbol)

/usr/lib/gcc/arm-none-eabi/9.2.1/../../../arm-none-eabi/lib/thumb/v7e-m+fp/hard/libc_nano.a(lib_a-atexit.o)
                              /usr/lib/gcc/arm-none-eabi/9.2.1/../../../arm-none-eabi/lib/thumb/v7e-m+fp/hard/crt0.o (atexit)
/usr/lib/gcc/arm-none-eabi/9.2.1/../../../arm-none-eabi/lib/thumb/v7e-m+fp/hard/libc_nano.a(lib_a-exit.o)
                              /usr/lib/gcc/arm-none-eabi/9.2.1/../../../arm-none-eabi/lib/thumb/v7e-m+fp/hard/crt0.o (exit)
/usr/lib/gcc/arm-none-eabi/9.2.1/../../../arm-none-eabi/lib/thumb/v7e-m+fp/hard/libc_nano.a(lib_a-fini.o)
                              /usr/lib/gcc/arm-none-eabi/9.2.1/../../../arm-none-eabi/lib/thumb/v7e-m+fp/hard/crt0.o (__libc_fini_array)
/usr/lib/gcc/arm-none-eabi/9.2.1/../../../arm-none-eabi/lib/thumb/v7e-m+fp/hard/libc_nano.a(lib_a-impure.o)
                              /usr/lib/gcc/arm-none-eabi/9.2.1/../../../arm-none-eabi/lib/thumb/v7e-m+fp/hard/libc_nano.a(lib_a-exit.o) (_global_impure_ptr)
/usr/lib/gcc/arm-none-eabi/9.2.1/../../../arm-none-eabi/lib/thumb/v7e-m+fp/hard/libc_nano.a(lib_a-init.o)
                              /usr/lib/gcc/arm-none-eabi/9.2.1/../../../arm-none-eabi/lib/thumb/v7e-m+fp/hard/crt0.o (__libc_init_array)
/usr/lib/gcc/arm-none-eabi/9.2.1/../../../arm-none-eabi/lib/thumb/v7e-m+fp/hard/libc_nano.a(lib_a-memset.o)
                              /usr/lib/gcc/arm-none-eabi/9.2.1/../../../arm-none-eabi/lib/thumb/v7e-m+fp/hard/crt0.o (memset)
/usr/lib/gcc/arm-none-eabi/9.2.1/../../../arm-none-eabi/lib/thumb/v7e-m+fp/hard/libc_nano.a(lib_a-printf.o)
                              build/main.o (printf)
/usr/lib/gcc/arm-none-eabi/9.2.1/../../../arm-none-eabi/lib/thumb/v7e-m+fp/hard/libc_nano.a(lib_a-puts.o)
                              build/lcd.o (puts)
/usr/lib/gcc/arm-none-eabi/9.2.1/../../../arm-none-eabi/lib/thumb/v7e-m+fp/hard/libc_nano.a(lib_a-strlen.o)
                              build/gui.o (strlen)
/usr/lib/gcc/arm-none-eabi/9.2.1/../../../arm-none-eabi/lib/thumb/v7e-m+fp/hard/libc_nano.a(lib_a-wbuf.o)
                              /usr/lib/gcc/arm-none-eabi/9.2.1/../../../arm-none-eabi/lib/thumb/v7e-m+fp/hard/libc_nano.a(lib_a-puts.o) (__swbuf_r)
/usr/lib/gcc/arm-none-eabi/9.2.1/../../../arm-none-eabi/lib/thumb/v7e-m+fp/hard/libc_nano.a(lib_a-wsetup.o)
                              /usr/lib/gcc/arm-none-eabi/9.2.1/../../../arm-none-eabi/lib/thumb/v7e-m+fp/hard/libc_nano.a(lib_a-puts.o) (__swsetup_r)
/usr/lib/gcc/arm-none-eabi/9.2.1/../../../arm-none-eabi/lib/thumb/v7e-m+fp/hard/libc_nano.a(lib_a-__atexit.o)
                              /usr/lib/gcc/arm-none-eabi/9.2.1/../../../arm-none-eabi/lib/thumb/v7e-m+fp/hard/libc_nano.a(lib_a-atexit.o) (__register_exitproc)
/usr/lib/gcc/arm-none-eabi/9.2.1/../../../arm-none-eabi/lib/thumb/v7e-m+fp/hard/libc_nano.a(lib_a-__call_atexit.o)
                              /usr/lib/gcc/arm-none-eabi/9.2.1/../../../arm-none-eabi/lib/thumb/v7e-m+fp/hard/libc_nano.a(lib_a-__atexit.o) (__call_exitprocs)
/usr/lib/gcc/arm-none-eabi/9.2.1/../../../arm-none-eabi/lib/thumb/v7e-m+fp/hard/libc_nano.a(lib_a-fflush.o)
                              /usr/lib/gcc/arm-none-eabi/9.2.1/../../../arm-none-eabi/lib/thumb/v7e-m+fp/hard/libc_nano.a(lib_a-wbuf.o) (_fflush_r)
/usr/lib/gcc/arm-none-eabi/9.2.1/../../../arm-none-eabi/lib/thumb/v7e-m+fp/hard/libc_nano.a(lib_a-findfp.o)
                              /usr/lib/gcc/arm-none-eabi/9.2.1/../../../arm-none-eabi/lib/thumb/v7e-m+fp/hard/libc_nano.a(lib_a-printf.o) (__sinit)
/usr/lib/gcc/arm-none-eabi/9.2.1/../../../arm-none-eabi/lib/thumb/v7e-m+fp/hard/libc_nano.a(lib_a-fwalk.o)
                              /usr/lib/gcc/arm-none-eabi/9.2.1/../../../arm-none-eabi/lib/thumb/v7e-m+fp/hard/libc_nano.a(lib_a-findfp.o) (_fwalk)
/usr/lib/gcc/arm-none-eabi/9.2.1/../../../arm-none-eabi/lib/thumb/v7e-m+fp/hard/libc_nano.a(lib_a-makebuf.o)
                              /usr/lib/gcc/arm-none-eabi/9.2.1/../../../arm-none-eabi/lib/thumb/v7e-m+fp/hard/libc_nano.a(lib_a-wsetup.o) (__smakebuf_r)
/usr/lib/gcc/arm-none-eabi/9.2.1/../../../arm-none-eabi/lib/thumb/v7e-m+fp/hard/libc_nano.a(lib_a-nano-freer.o)
                              /usr/lib/gcc/arm-none-eabi/9.2.1/../../../arm-none-eabi/lib/thumb/v7e-m+fp/hard/libc_nano.a(lib_a-wsetup.o) (_free_r)
/usr/lib/gcc/arm-none-eabi/9.2.1/../../../arm-none-eabi/lib/thumb/v7e-m+fp/hard/libc_nano.a(lib_a-nano-mallocr.o)
                              /usr/lib/gcc/arm-none-eabi/9.2.1/../../../arm-none-eabi/lib/thumb/v7e-m+fp/hard/libc_nano.a(lib_a-findfp.o) (_malloc_r)
/usr/lib/gcc/arm-none-eabi/9.2.1/../../../arm-none-eabi/lib/thumb/v7e-m+fp/hard/libc_nano.a(lib_a-nano-vfprintf.o)
                              /usr/lib/gcc/arm-none-eabi/9.2.1/../../../arm-none-eabi/lib/thumb/v7e-m+fp/hard/libc_nano.a(lib_a-printf.o) (_vfprintf_r)
/usr/lib/gcc/arm-none-eabi/9.2.1/../../../arm-none-eabi/lib/thumb/v7e-m+fp/hard/libc_nano.a(lib_a-nano-vfprintf_i.o)
                              /usr/lib/gcc/arm-none-eabi/9.2.1/../../../arm-none-eabi/lib/thumb/v7e-m+fp/hard/libc_nano.a(lib_a-nano-vfprintf.o) (_printf_i)
/usr/lib/gcc/arm-none-eabi/9.2.1/../../../arm-none-eabi/lib/thumb/v7e-m+fp/hard/libc_nano.a(lib_a-sbrkr.o)
                              /usr/lib/gcc/arm-none-eabi/9.2.1/../../../arm-none-eabi/lib/thumb/v7e-m+fp/hard/libc_nano.a(lib_a-nano-mallocr.o) (_sbrk_r)
/usr/lib/gcc/arm-none-eabi/9.2.1/../../../arm-none-eabi/lib/thumb/v7e-m+fp/hard/libc_nano.a(lib_a-stdio.o)
                              /usr/lib/gcc/arm-none-eabi/9.2.1/../../../arm-none-eabi/lib/thumb/v7e-m+fp/hard/libc_nano.a(lib_a-findfp.o) (__sread)
/usr/lib/gcc/arm-none-eabi/9.2.1/../../../arm-none-eabi/lib/thumb/v7e-m+fp/hard/libc_nano.a(lib_a-writer.o)
                              /usr/lib/gcc/arm-none-eabi/9.2.1/../../../arm-none-eabi/lib/thumb/v7e-m+fp/hard/libc_nano.a(lib_a-stdio.o) (_write_r)
/usr/lib/gcc/arm-none-eabi/9.2.1/../../../arm-none-eabi/lib/thumb/v7e-m+fp/hard/libc_nano.a(lib_a-closer.o)
                              /usr/lib/gcc/arm-none-eabi/9.2.1/../../../arm-none-eabi/lib/thumb/v7e-m+fp/hard/libc_nano.a(lib_a-stdio.o) (_close_r)
/usr/lib/gcc/arm-none-eabi/9.2.1/../../../arm-none-eabi/lib/thumb/v7e-m+fp/hard/libc_nano.a(lib_a-fstatr.o)
                              /usr/lib/gcc/arm-none-eabi/9.2.1/../../../arm-none-eabi/lib/thumb/v7e-m+fp/hard/libc_nano.a(lib_a-makebuf.o) (_fstat_r)
/usr/lib/gcc/arm-none-eabi/9.2.1/../../../arm-none-eabi/lib/thumb/v7e-m+fp/hard/libc_nano.a(lib_a-fvwrite.o)
                              /usr/lib/gcc/arm-none-eabi/9.2.1/../../../arm-none-eabi/lib/thumb/v7e-m+fp/hard/libc_nano.a(lib_a-nano-vfprintf.o) (__sfvwrite_r)
/usr/lib/gcc/arm-none-eabi/9.2.1/../../../arm-none-eabi/lib/thumb/v7e-m+fp/hard/libc_nano.a(lib_a-isattyr.o)
                              /usr/lib/gcc/arm-none-eabi/9.2.1/../../../arm-none-eabi/lib/thumb/v7e-m+fp/hard/libc_nano.a(lib_a-makebuf.o) (_isatty_r)
/usr/lib/gcc/arm-none-eabi/9.2.1/../../../arm-none-eabi/lib/thumb/v7e-m+fp/hard/libc_nano.a(lib_a-lseekr.o)
                              /usr/lib/gcc/arm-none-eabi/9.2.1/../../../arm-none-eabi/lib/thumb/v7e-m+fp/hard/libc_nano.a(lib_a-stdio.o) (_lseek_r)
/usr/lib/gcc/arm-none-eabi/9.2.1/../../../arm-none-eabi/lib/thumb/v7e-m+fp/hard/libc_nano.a(lib_a-memchr.o)
                              /usr/lib/gcc/arm-none-eabi/9.2.1/../../../arm-none-eabi/lib/thumb/v7e-m+fp/hard/libc_nano.a(lib_a-nano-vfprintf.o) (memchr)
/usr/lib/gcc/arm-none-eabi/9.2.1/../../../arm-none-eabi/lib/thumb/v7e-m+fp/hard/libc_nano.a(lib_a-memcpy.o)
                              /usr/lib/gcc/arm-none-eabi/9.2.1/../../../arm-none-eabi/lib/thumb/v7e-m+fp/hard/libc_nano.a(lib_a-fvwrite.o) (memcpy)
/usr/lib/gcc/arm-none-eabi/9.2.1/../../../arm-none-eabi/lib/thumb/v7e-m+fp/hard/libc_nano.a(lib_a-memmove.o)
                              /usr/lib/gcc/arm-none-eabi/9.2.1/../../../arm-none-eabi/lib/thumb/v7e-m+fp/hard/libc_nano.a(lib_a-fvwrite.o) (memmove)
/usr/lib/gcc/arm-none-eabi/9.2.1/../../../arm-none-eabi/lib/thumb/v7e-m+fp/hard/libc_nano.a(lib_a-mlock.o)
                              /usr/lib/gcc/arm-none-eabi/9.2.1/../../../arm-none-eabi/lib/thumb/v7e-m+fp/hard/libc_nano.a(lib_a-nano-freer.o) (__malloc_lock)
/usr/lib/gcc/arm-none-eabi/9.2.1/../../../arm-none-eabi/lib/thumb/v7e-m+fp/hard/libc_nano.a(lib_a-nano-reallocr.o)
                              /usr/lib/gcc/arm-none-eabi/9.2.1/../../../arm-none-eabi/lib/thumb/v7e-m+fp/hard/libc_nano.a(lib_a-fvwrite.o) (_realloc_r)
/usr/lib/gcc/arm-none-eabi/9.2.1/../../../arm-none-eabi/lib/thumb/v7e-m+fp/hard/libc_nano.a(lib_a-readr.o)
                              /usr/lib/gcc/arm-none-eabi/9.2.1/../../../arm-none-eabi/lib/thumb/v7e-m+fp/hard/libc_nano.a(lib_a-stdio.o) (_read_r)
/usr/lib/gcc/arm-none-eabi/9.2.1/../../../arm-none-eabi/lib/thumb/v7e-m+fp/hard/libc_nano.a(lib_a-reent.o)
                              /usr/lib/gcc/arm-none-eabi/9.2.1/../../../arm-none-eabi/lib/thumb/v7e-m+fp/hard/libc_nano.a(lib_a-sbrkr.o) (errno)
/usr/lib/gcc/arm-none-eabi/9.2.1/../../../arm-none-eabi/lib/thumb/v7e-m+fp/hard/libc_nano.a(lib_a-nano-msizer.o)
                              /usr/lib/gcc/arm-none-eabi/9.2.1/../../../arm-none-eabi/lib/thumb/v7e-m+fp/hard/libc_nano.a(lib_a-nano-reallocr.o) (_malloc_usable_size_r)
/usr/lib/gcc/arm-none-eabi/9.2.1/../../../arm-none-eabi/lib/thumb/v7e-m+fp/hard/libm.a(lib_a-w_sqrt.o)
                              build/rtp.o (sqrt)
/usr/lib/gcc/arm-none-eabi/9.2.1/../../../arm-none-eabi/lib/thumb/v7e-m+fp/hard/libm.a(lib_a-e_sqrt.o)
                              /usr/lib/gcc/arm-none-eabi/9.2.1/../../../arm-none-eabi/lib/thumb/v7e-m+fp/hard/libm.a(lib_a-w_sqrt.o) (__ieee754_sqrt)
/usr/lib/gcc/arm-none-eabi/9.2.1/../../../arm-none-eabi/lib/thumb/v7e-m+fp/hard/libm.a(lib_a-s_lib_ver.o)
                              /usr/lib/gcc/arm-none-eabi/9.2.1/../../../arm-none-eabi/lib/thumb/v7e-m+fp/hard/libm.a(lib_a-w_sqrt.o) (__fdlib_version)
/usr/lib/gcc/arm-none-eabi/9.2.1/../../../arm-none-eabi/lib/thumb/v7e-m+fp/hard/libnosys.a(close.o)
                              /usr/lib/gcc/arm-none-eabi/9.2.1/../../../arm-none-eabi/lib/thumb/v7e-m+fp/hard/libc_nano.a(lib_a-closer.o) (_close)
/usr/lib/gcc/arm-none-eabi/9.2.1/../../../arm-none-eabi/lib/thumb/v7e-m+fp/hard/libnosys.a(fstat.o)
                              /usr/lib/gcc/arm-none-eabi/9.2.1/../../../arm-none-eabi/lib/thumb/v7e-m+fp/hard/libc_nano.a(lib_a-fstatr.o) (_fstat)
/usr/lib/gcc/arm-none-eabi/9.2.1/../../../arm-none-eabi/lib/thumb/v7e-m+fp/hard/libnosys.a(isatty.o)
                              /usr/lib/gcc/arm-none-eabi/9.2.1/../../../arm-none-eabi/lib/thumb/v7e-m+fp/hard/libc_nano.a(lib_a-isattyr.o) (_isatty)
/usr/lib/gcc/arm-none-eabi/9.2.1/../../../arm-none-eabi/lib/thumb/v7e-m+fp/hard/libnosys.a(lseek.o)
                              /usr/lib/gcc/arm-none-eabi/9.2.1/../../../arm-none-eabi/lib/thumb/v7e-m+fp/hard/libc_nano.a(lib_a-lseekr.o) (_lseek)
/usr/lib/gcc/arm-none-eabi/9.2.1/../../../arm-none-eabi/lib/thumb/v7e-m+fp/hard/libnosys.a(read.o)
                              /usr/lib/gcc/arm-none-eabi/9.2.1/../../../arm-none-eabi/lib/thumb/v7e-m+fp/hard/libc_nano.a(lib_a-readr.o) (_read)
/usr/lib/gcc/arm-none-eabi/9.2.1/../../../arm-none-eabi/lib/thumb/v7e-m+fp/hard/libnosys.a(sbrk.o)
                              /usr/lib/gcc/arm-none-eabi/9.2.1/../../../arm-none-eabi/lib/thumb/v7e-m+fp/hard/libc_nano.a(lib_a-sbrkr.o) (_sbrk)
/usr/lib/gcc/arm-none-eabi/9.2.1/../../../arm-none-eabi/lib/thumb/v7e-m+fp/hard/libnosys.a(write.o)
                              /usr/lib/gcc/arm-none-eabi/9.2.1/../../../arm-none-eabi/lib/thumb/v7e-m+fp/hard/libc_nano.a(lib_a-writer.o) (_write)
/usr/lib/gcc/arm-none-eabi/9.2.1/../../../arm-none-eabi/lib/thumb/v7e-m+fp/hard/libnosys.a(_exit.o)
                              /usr/lib/gcc/arm-none-eabi/9.2.1/../../../arm-none-eabi/lib/thumb/v7e-m+fp/hard/libc_nano.a(lib_a-exit.o) (_exit)
/usr/lib/gcc/arm-none-eabi/9.2.1/thumb/v7e-m+fp/hard/libgcc.a(_arm_muldf3.o)
                              build/lcd.o (__aeabi_dmul)
/usr/lib/gcc/arm-none-eabi/9.2.1/thumb/v7e-m+fp/hard/libgcc.a(_arm_addsubdf3.o)
                              /usr/lib/gcc/arm-none-eabi/9.2.1/../../../arm-none-eabi/lib/thumb/v7e-m+fp/hard/libm.a(lib_a-e_sqrt.o) (__aeabi_dsub)
/usr/lib/gcc/arm-none-eabi/9.2.1/thumb/v7e-m+fp/hard/libgcc.a(_arm_muldivdf3.o)
                              /usr/lib/gcc/arm-none-eabi/9.2.1/../../../arm-none-eabi/lib/thumb/v7e-m+fp/hard/libm.a(lib_a-w_sqrt.o) (__aeabi_ddiv)
/usr/lib/gcc/arm-none-eabi/9.2.1/thumb/v7e-m+fp/hard/libgcc.a(_arm_cmpdf2.o)
                              build/rtp.o (__aeabi_dcmplt)
/usr/lib/gcc/arm-none-eabi/9.2.1/thumb/v7e-m+fp/hard/libgcc.a(_arm_unorddf2.o)
                              /usr/lib/gcc/arm-none-eabi/9.2.1/../../../arm-none-eabi/lib/thumb/v7e-m+fp/hard/libm.a(lib_a-w_sqrt.o) (__aeabi_dcmpun)
/usr/lib/gcc/arm-none-eabi/9.2.1/thumb/v7e-m+fp/hard/libgcc.a(_arm_fixunsdfsi.o)
                              build/lcd.o (__aeabi_d2uiz)
/usr/lib/gcc/arm-none-eabi/9.2.1/../../../arm-none-eabi/lib/thumb/v7e-m+fp/hard/libc_nano.a(lib_a-errno.o)
                              /usr/lib/gcc/arm-none-eabi/9.2.1/../../../arm-none-eabi/lib/thumb/v7e-m+fp/hard/libm.a(lib_a-w_sqrt.o) (__errno)

Allocating common symbols
Common symbol       size              file

errno               0x4               /usr/lib/gcc/arm-none-eabi/9.2.1/../../../arm-none-eabi/lib/thumb/v7e-m+fp/hard/libc_nano.a(lib_a-reent.o)
lcddev              0x16              build/lcd.o
USART_RX_BUF        0x100             build/usart.o
__stdout            0x68              build/usart.o
DeviceCode          0x2               build/lcd.o

Discarded input sections

 .text          0x0000000000000000        0x0 /usr/lib/gcc/arm-none-eabi/9.2.1/thumb/v7e-m+fp/hard/crti.o
 .data          0x0000000000000000        0x0 /usr/lib/gcc/arm-none-eabi/9.2.1/thumb/v7e-m+fp/hard/crti.o
 .bss           0x0000000000000000        0x0 /usr/lib/gcc/arm-none-eabi/9.2.1/thumb/v7e-m+fp/hard/crti.o
 .data          0x0000000000000000        0x4 /usr/lib/gcc/arm-none-eabi/9.2.1/thumb/v7e-m+fp/hard/crtbegin.o
 .text          0x0000000000000000       0x70 /usr/lib/gcc/arm-none-eabi/9.2.1/../../../arm-none-eabi/lib/thumb/v7e-m+fp/hard/crt0.o
 .data          0x0000000000000000        0x0 /usr/lib/gcc/arm-none-eabi/9.2.1/../../../arm-none-eabi/lib/thumb/v7e-m+fp/hard/crt0.o
 .bss           0x0000000000000000        0x0 /usr/lib/gcc/arm-none-eabi/9.2.1/../../../arm-none-eabi/lib/thumb/v7e-m+fp/hard/crt0.o
 .ARM.extab     0x0000000000000000        0x0 /usr/lib/gcc/arm-none-eabi/9.2.1/../../../arm-none-eabi/lib/thumb/v7e-m+fp/hard/crt0.o
 .ARM.exidx     0x0000000000000000       0x10 /usr/lib/gcc/arm-none-eabi/9.2.1/../../../arm-none-eabi/lib/thumb/v7e-m+fp/hard/crt0.o
 .debug_line    0x0000000000000000       0x87 /usr/lib/gcc/arm-none-eabi/9.2.1/../../../arm-none-eabi/lib/thumb/v7e-m+fp/hard/crt0.o
 .debug_info    0x0000000000000000       0x26 /usr/lib/gcc/arm-none-eabi/9.2.1/../../../arm-none-eabi/lib/thumb/v7e-m+fp/hard/crt0.o
 .debug_abbrev  0x0000000000000000       0x14 /usr/lib/gcc/arm-none-eabi/9.2.1/../../../arm-none-eabi/lib/thumb/v7e-m+fp/hard/crt0.o
 .debug_aranges
                0x0000000000000000       0x20 /usr/lib/gcc/arm-none-eabi/9.2.1/../../../arm-none-eabi/lib/thumb/v7e-m+fp/hard/crt0.o
 .debug_str     0x0000000000000000       0x98 /usr/lib/gcc/arm-none-eabi/9.2.1/../../../arm-none-eabi/lib/thumb/v7e-m+fp/hard/crt0.o
 .ARM.attributes
                0x0000000000000000       0x1c /usr/lib/gcc/arm-none-eabi/9.2.1/../../../arm-none-eabi/lib/thumb/v7e-m+fp/hard/crt0.o
 .text          0x0000000000000000        0x0 build/main.o
 .data          0x0000000000000000        0x0 build/main.o
 .bss           0x0000000000000000        0x0 build/main.o
 .text          0x0000000000000000        0x0 build/delay.o
 .data          0x0000000000000000        0x0 build/delay.o
 .bss           0x0000000000000000        0x0 build/delay.o
 .text          0x0000000000000000        0x0 build/24c02.o
 .data          0x0000000000000000        0x0 build/24c02.o
 .bss           0x0000000000000000        0x0 build/24c02.o
 .text.AT24C02_Check
                0x0000000000000000       0x2a build/24c02.o
 .text.AT24C02_Read
                0x0000000000000000       0x1e build/24c02.o
 .text.AT24C02_Write
                0x0000000000000000       0x20 build/24c02.o
 .text          0x0000000000000000        0x0 build/ctpiic.o
 .data          0x0000000000000000        0x0 build/ctpiic.o
 .bss           0x0000000000000000        0x0 build/ctpiic.o
 .text          0x0000000000000000        0x0 build/exti.o
 .data          0x0000000000000000        0x0 build/exti.o
 .bss           0x0000000000000000        0x0 build/exti.o
 .text.Touch_EXTI_Init
                0x0000000000000000       0x58 build/exti.o
 .text          0x0000000000000000        0x0 build/ft5426.o
 .data          0x0000000000000000        0x0 build/ft5426.o
 .bss           0x0000000000000000        0x0 build/ft5426.o
 .text          0x0000000000000000        0x0 build/GT911.o
 .data          0x0000000000000000        0x0 build/GT911.o
 .bss           0x0000000000000000        0x0 build/GT911.o
 .text.Touch_Get_Count
                0x0000000000000000       0x24 build/GT911.o
 .rodata.TPX    0x0000000000000000        0xa build/GT911.o
 .text          0x0000000000000000        0x0 build/gui.o
 .data          0x0000000000000000        0x0 build/gui.o
 .bss           0x0000000000000000        0x0 build/gui.o
 .text._swap    0x0000000000000000        0xa build/gui.o
 .text.LCD_DrawRectangle
                0x0000000000000000       0x36 build/gui.o
 .text.LCD_DrawFillRectangle
                0x0000000000000000       0x18 build/gui.o
 .text.Draw_Triangel
                0x0000000000000000       0x34 build/gui.o
 .text.Fill_Triangel
                0x0000000000000000      0x1e0 build/gui.o
 .text.Gui_Drawbmp16
                0x0000000000000000       0x58 build/gui.o
 .text.LCD_Draw9Point
                0x0000000000000000       0xb0 build/gui.o
 .text.Draw_TextBox
                0x0000000000000000       0xd0 build/gui.o
 .text.EscButton
                0x0000000000000000       0xb0 build/gui.o
 .text.Draw_Button
                0x0000000000000000       0x30 build/gui.o
 .text.SetButton
                0x0000000000000000       0xb0 build/gui.o
 .text.Draw_DirectButton
                0x0000000000000000       0x8c build/gui.o
 .text.Draw_Window
                0x0000000000000000       0x80 build/gui.o
 .text          0x0000000000000000        0x0 build/iic.o
 .data          0x0000000000000000        0x0 build/iic.o
 .bss           0x0000000000000000        0x0 build/iic.o
 .text          0x0000000000000000        0x0 build/key.o
 .data          0x0000000000000000        0x0 build/key.o
 .bss           0x0000000000000000        0x0 build/key.o
 .text          0x0000000000000000        0x0 build/lcd.o
 .data          0x0000000000000000        0x0 build/lcd.o
 .bss           0x0000000000000000        0x0 build/lcd.o
 .text.LCD_ReadRAM_Prepare
                0x0000000000000000       0x10 build/lcd.o
 .text.Color_To_565
                0x0000000000000000       0x18 build/lcd.o
 .text.Lcd_ReadData_16Bit
                0x0000000000000000       0x90 build/lcd.o
 .text.LCD_ReadPoint
                0x0000000000000000       0x2c build/lcd.o
 .text          0x0000000000000000        0x0 build/led.o
 .data          0x0000000000000000        0x0 build/led.o
 .bss           0x0000000000000000        0x0 build/led.o
 .text          0x0000000000000000        0x0 build/rtp.o
 .data          0x0000000000000000        0x0 build/rtp.o
 .bss           0x0000000000000000        0x0 build/rtp.o
 .text.RTP_Init
                0x0000000000000000       0x8c build/rtp.o
 .text          0x0000000000000000        0x0 build/test.o
 .data          0x0000000000000000        0x0 build/test.o
 .bss           0x0000000000000000        0x0 build/test.o
 .data.ColornTab
                0x0000000000000000       0x10 build/test.o
 .rodata.gImage_qq
                0x0000000000000000      0xc80 build/test.o
 .text          0x0000000000000000        0x0 build/touch.o
 .data          0x0000000000000000        0x0 build/touch.o
 .bss           0x0000000000000000        0x0 build/touch.o
 .text          0x0000000000000000        0x0 build/usart.o
 .data          0x0000000000000000        0x0 build/usart.o
 .bss           0x0000000000000000        0x0 build/usart.o
 .text._sys_exit
                0x0000000000000000        0x2 build/usart.o
 .text.fputc    0x0000000000000000       0x20 build/usart.o
 .text.USART1_Init
                0x0000000000000000       0xb8 build/usart.o
 .text          0x0000000000000000        0x0 build/stm32f4xx_it.o
 .data          0x0000000000000000        0x0 build/stm32f4xx_it.o
 .bss           0x0000000000000000        0x0 build/stm32f4xx_it.o
 .text          0x0000000000000000        0x0 build/misc.o
 .data          0x0000000000000000        0x0 build/misc.o
 .bss           0x0000000000000000        0x0 build/misc.o
 .text.NVIC_SetVectorTable
                0x0000000000000000       0x14 build/misc.o
 .text.NVIC_SystemLPConfig
                0x0000000000000000       0x1c build/misc.o
 .text          0x0000000000000000        0x0 build/stm32f4xx_dma.o
 .data          0x0000000000000000        0x0 build/stm32f4xx_dma.o
 .bss           0x0000000000000000        0x0 build/stm32f4xx_dma.o
 .text.DMA_DeInit
                0x0000000000000000      0x158 build/stm32f4xx_dma.o
 .text.DMA_Init
                0x0000000000000000       0x58 build/stm32f4xx_dma.o
 .text.DMA_StructInit
                0x0000000000000000       0x22 build/stm32f4xx_dma.o
 .text.DMA_Cmd  0x0000000000000000       0x16 build/stm32f4xx_dma.o
 .text.DMA_PeriphIncOffsetSizeConfig
                0x0000000000000000       0x16 build/stm32f4xx_dma.o
 .text.DMA_FlowControllerConfig
                0x0000000000000000       0x16 build/stm32f4xx_dma.o
 .text.DMA_SetCurrDataCounter
                0x0000000000000000        0x4 build/stm32f4xx_dma.o
 .text.DMA_GetCurrDataCounter
                0x0000000000000000        0x6 build/stm32f4xx_dma.o
 .text.DMA_DoubleBufferModeConfig
                0x0000000000000000       0x18 build/stm32f4xx_dma.o
 .text.DMA_DoubleBufferModeCmd
                0x0000000000000000       0x16 build/stm32f4xx_dma.o
 .text.DMA_MemoryTargetConfig
                0x0000000000000000        0xa build/stm32f4xx_dma.o
 .text.DMA_GetCurrentMemoryTarget
                0x0000000000000000        0xc build/stm32f4xx_dma.o
 .text.DMA_GetCmdStatus
                0x0000000000000000       0x10 build/stm32f4xx_dma.o
 .text.DMA_GetFIFOStatus
                0x0000000000000000        0x8 build/stm32f4xx_dma.o
 .text.DMA_GetFlagStatus
                0x0000000000000000       0x38 build/stm32f4xx_dma.o
 .text.DMA_ClearFlag
                0x0000000000000000       0x34 build/stm32f4xx_dma.o
 .text.DMA_ITConfig
                0x0000000000000000       0x3a build/stm32f4xx_dma.o
 .text.DMA_GetITStatus
                0x0000000000000000       0x60 build/stm32f4xx_dma.o
 .text.DMA_ClearITPendingBit
                0x0000000000000000       0x34 build/stm32f4xx_dma.o
 .debug_info    0x0000000000000000      0x86e build/stm32f4xx_dma.o
 .debug_abbrev  0x0000000000000000      0x1e2 build/stm32f4xx_dma.o
 .debug_loc     0x0000000000000000      0x527 build/stm32f4xx_dma.o
 .debug_aranges
                0x0000000000000000       0xb0 build/stm32f4xx_dma.o
 .debug_ranges  0x0000000000000000       0xa0 build/stm32f4xx_dma.o
 .debug_line    0x0000000000000000      0x787 build/stm32f4xx_dma.o
 .debug_str     0x0000000000000000      0x582 build/stm32f4xx_dma.o
 .comment       0x0000000000000000       0x5a build/stm32f4xx_dma.o
 .debug_frame   0x0000000000000000      0x158 build/stm32f4xx_dma.o
 .ARM.attributes
                0x0000000000000000       0x34 build/stm32f4xx_dma.o
 .text          0x0000000000000000        0x0 build/stm32f4xx_exti.o
 .data          0x0000000000000000        0x0 build/stm32f4xx_exti.o
 .bss           0x0000000000000000        0x0 build/stm32f4xx_exti.o
 .text.EXTI_DeInit
                0x0000000000000000       0x1c build/stm32f4xx_exti.o
 .text.EXTI_Init
                0x0000000000000000       0x90 build/stm32f4xx_exti.o
 .text.EXTI_StructInit
                0x0000000000000000        0xe build/stm32f4xx_exti.o
 .text.EXTI_GenerateSWInterrupt
                0x0000000000000000       0x10 build/stm32f4xx_exti.o
 .text.EXTI_GetFlagStatus
                0x0000000000000000       0x14 build/stm32f4xx_exti.o
 .text.EXTI_ClearFlag
                0x0000000000000000        0xc build/stm32f4xx_exti.o
 .text.EXTI_GetITStatus
                0x0000000000000000       0x14 build/stm32f4xx_exti.o
 .text          0x0000000000000000        0x0 build/stm32f4xx_fsmc.o
 .data          0x0000000000000000        0x0 build/stm32f4xx_fsmc.o
 .bss           0x0000000000000000        0x0 build/stm32f4xx_fsmc.o
 .text.FSMC_NORSRAMDeInit
                0x0000000000000000       0x36 build/stm32f4xx_fsmc.o
 .text.FSMC_NORSRAMStructInit
                0x0000000000000000       0x34 build/stm32f4xx_fsmc.o
 .text.FSMC_NANDDeInit
                0x0000000000000000       0x34 build/stm32f4xx_fsmc.o
 .text.FSMC_NANDInit
                0x0000000000000000       0x70 build/stm32f4xx_fsmc.o
 .text.FSMC_NANDStructInit
                0x0000000000000000       0x36 build/stm32f4xx_fsmc.o
 .text.FSMC_NANDCmd
                0x0000000000000000       0x48 build/stm32f4xx_fsmc.o
 .text.FSMC_NANDECCCmd
                0x0000000000000000       0x48 build/stm32f4xx_fsmc.o
 .text.FSMC_GetECC
                0x0000000000000000       0x18 build/stm32f4xx_fsmc.o
 .text.FSMC_PCCARDDeInit
                0x0000000000000000       0x1c build/stm32f4xx_fsmc.o
 .text.FSMC_PCCARDInit
                0x0000000000000000       0x6c build/stm32f4xx_fsmc.o
 .text.FSMC_PCCARDStructInit
                0x0000000000000000       0x3c build/stm32f4xx_fsmc.o
 .text.FSMC_PCCARDCmd
                0x0000000000000000       0x24 build/stm32f4xx_fsmc.o
 .text.FSMC_ITConfig
                0x0000000000000000       0x64 build/stm32f4xx_fsmc.o
 .text.FSMC_GetFlagStatus
                0x0000000000000000       0x34 build/stm32f4xx_fsmc.o
 .text.FSMC_ClearFlag
                0x0000000000000000       0x3c build/stm32f4xx_fsmc.o
 .text.FSMC_GetITStatus
                0x0000000000000000       0x3c build/stm32f4xx_fsmc.o
 .text.FSMC_ClearITPendingBit
                0x0000000000000000       0x3c build/stm32f4xx_fsmc.o
 .rodata.FSMC_DefaultTimingStruct
                0x0000000000000000       0x1c build/stm32f4xx_fsmc.o
 .text          0x0000000000000000        0x0 build/stm32f4xx_gpio.o
 .data          0x0000000000000000        0x0 build/stm32f4xx_gpio.o
 .bss           0x0000000000000000        0x0 build/stm32f4xx_gpio.o
 .text.GPIO_DeInit
                0x0000000000000000      0x144 build/stm32f4xx_gpio.o
 .text.GPIO_StructInit
                0x0000000000000000       0x12 build/stm32f4xx_gpio.o
 .text.GPIO_PinLockConfig
                0x0000000000000000       0x24 build/stm32f4xx_gpio.o
 .text.GPIO_ReadInputDataBit
                0x0000000000000000        0xe build/stm32f4xx_gpio.o
 .text.GPIO_ReadInputData
                0x0000000000000000        0x6 build/stm32f4xx_gpio.o
 .text.GPIO_ReadOutputDataBit
                0x0000000000000000        0xe build/stm32f4xx_gpio.o
 .text.GPIO_ReadOutputData
                0x0000000000000000        0x6 build/stm32f4xx_gpio.o
 .text.GPIO_ResetBits
                0x0000000000000000        0x4 build/stm32f4xx_gpio.o
 .text.GPIO_WriteBit
                0x0000000000000000        0xa build/stm32f4xx_gpio.o
 .text.GPIO_Write
                0x0000000000000000        0x4 build/stm32f4xx_gpio.o
 .text.GPIO_ToggleBits
                0x0000000000000000        0x8 build/stm32f4xx_gpio.o
 .text          0x0000000000000000        0x0 build/stm32f4xx_i2c.o
 .data          0x0000000000000000        0x0 build/stm32f4xx_i2c.o
 .bss           0x0000000000000000        0x0 build/stm32f4xx_i2c.o
 .text.I2C_DeInit
                0x0000000000000000       0x64 build/stm32f4xx_i2c.o
 .text.I2C_Init
                0x0000000000000000       0xd8 build/stm32f4xx_i2c.o
 .text.I2C_StructInit
                0x0000000000000000       0x1c build/stm32f4xx_i2c.o
 .text.I2C_Cmd  0x0000000000000000       0x1c build/stm32f4xx_i2c.o
 .text.I2C_AnalogFilterCmd
                0x0000000000000000       0x1c build/stm32f4xx_i2c.o
 .text.I2C_DigitalFilterConfig
                0x0000000000000000       0x12 build/stm32f4xx_i2c.o
 .text.I2C_GenerateSTART
                0x0000000000000000       0x1c build/stm32f4xx_i2c.o
 .text.I2C_GenerateSTOP
                0x0000000000000000       0x1c build/stm32f4xx_i2c.o
 .text.I2C_Send7bitAddress
                0x0000000000000000       0x12 build/stm32f4xx_i2c.o
 .text.I2C_AcknowledgeConfig
                0x0000000000000000       0x1c build/stm32f4xx_i2c.o
 .text.I2C_OwnAddress2Config
                0x0000000000000000       0x12 build/stm32f4xx_i2c.o
 .text.I2C_DualAddressCmd
                0x0000000000000000       0x1c build/stm32f4xx_i2c.o
 .text.I2C_GeneralCallCmd
                0x0000000000000000       0x1c build/stm32f4xx_i2c.o
 .text.I2C_SoftwareResetCmd
                0x0000000000000000       0x1c build/stm32f4xx_i2c.o
 .text.I2C_StretchClockCmd
                0x0000000000000000       0x1c build/stm32f4xx_i2c.o
 .text.I2C_FastModeDutyCycleConfig
                0x0000000000000000       0x20 build/stm32f4xx_i2c.o
 .text.I2C_NACKPositionConfig
                0x0000000000000000       0x20 build/stm32f4xx_i2c.o
 .text.I2C_SMBusAlertConfig
                0x0000000000000000       0x20 build/stm32f4xx_i2c.o
 .text.I2C_ARPCmd
                0x0000000000000000       0x1c build/stm32f4xx_i2c.o
 .text.I2C_SendData
                0x0000000000000000        0x4 build/stm32f4xx_i2c.o
 .text.I2C_ReceiveData
                0x0000000000000000        0x6 build/stm32f4xx_i2c.o
 .text.I2C_TransmitPEC
                0x0000000000000000       0x1c build/stm32f4xx_i2c.o
 .text.I2C_PECPositionConfig
                0x0000000000000000       0x20 build/stm32f4xx_i2c.o
 .text.I2C_CalculatePEC
                0x0000000000000000       0x1c build/stm32f4xx_i2c.o
 .text.I2C_GetPEC
                0x0000000000000000        0x8 build/stm32f4xx_i2c.o
 .text.I2C_DMACmd
                0x0000000000000000       0x1c build/stm32f4xx_i2c.o
 .text.I2C_DMALastTransferCmd
                0x0000000000000000       0x1c build/stm32f4xx_i2c.o
 .text.I2C_ReadRegister
                0x0000000000000000       0x18 build/stm32f4xx_i2c.o
 .text.I2C_ITConfig
                0x0000000000000000       0x18 build/stm32f4xx_i2c.o
 .text.I2C_CheckEvent
                0x0000000000000000       0x1c build/stm32f4xx_i2c.o
 .text.I2C_GetLastEvent
                0x0000000000000000       0x10 build/stm32f4xx_i2c.o
 .text.I2C_GetFlagStatus
                0x0000000000000000       0x38 build/stm32f4xx_i2c.o
 .text.I2C_ClearFlag
                0x0000000000000000        0xc build/stm32f4xx_i2c.o
 .text.I2C_GetITStatus
                0x0000000000000000       0x20 build/stm32f4xx_i2c.o
 .text.I2C_ClearITPendingBit
                0x0000000000000000        0xc build/stm32f4xx_i2c.o
 .debug_info    0x0000000000000000      0xe42 build/stm32f4xx_i2c.o
 .debug_abbrev  0x0000000000000000      0x236 build/stm32f4xx_i2c.o
 .debug_loc     0x0000000000000000      0x8bd build/stm32f4xx_i2c.o
 .debug_aranges
                0x0000000000000000      0x130 build/stm32f4xx_i2c.o
 .debug_ranges  0x0000000000000000      0x120 build/stm32f4xx_i2c.o
 .debug_line    0x0000000000000000      0x936 build/stm32f4xx_i2c.o
 .debug_str     0x0000000000000000      0x711 build/stm32f4xx_i2c.o
 .comment       0x0000000000000000       0x5a build/stm32f4xx_i2c.o
 .debug_frame   0x0000000000000000      0x274 build/stm32f4xx_i2c.o
 .ARM.attributes
                0x0000000000000000       0x34 build/stm32f4xx_i2c.o
 .text          0x0000000000000000        0x0 build/stm32f4xx_iwdg.o
 .data          0x0000000000000000        0x0 build/stm32f4xx_iwdg.o
 .bss           0x0000000000000000        0x0 build/stm32f4xx_iwdg.o
 .text.IWDG_WriteAccessCmd
                0x0000000000000000        0xc build/stm32f4xx_iwdg.o
 .text.IWDG_SetPrescaler
                0x0000000000000000        0xc build/stm32f4xx_iwdg.o
 .text.IWDG_SetReload
                0x0000000000000000        0xc build/stm32f4xx_iwdg.o
 .text.IWDG_ReloadCounter
                0x0000000000000000       0x10 build/stm32f4xx_iwdg.o
 .text.IWDG_Enable
                0x0000000000000000       0x10 build/stm32f4xx_iwdg.o
 .text.IWDG_GetFlagStatus
                0x0000000000000000       0x14 build/stm32f4xx_iwdg.o
 .debug_info    0x0000000000000000      0x22f build/stm32f4xx_iwdg.o
 .debug_abbrev  0x0000000000000000      0x163 build/stm32f4xx_iwdg.o
 .debug_loc     0x0000000000000000       0x65 build/stm32f4xx_iwdg.o
 .debug_aranges
                0x0000000000000000       0x48 build/stm32f4xx_iwdg.o
 .debug_ranges  0x0000000000000000       0x38 build/stm32f4xx_iwdg.o
 .debug_line    0x0000000000000000      0x18e build/stm32f4xx_iwdg.o
 .debug_str     0x0000000000000000      0x2a2 build/stm32f4xx_iwdg.o
 .comment       0x0000000000000000       0x5a build/stm32f4xx_iwdg.o
 .debug_frame   0x0000000000000000       0x70 build/stm32f4xx_iwdg.o
 .ARM.attributes
                0x0000000000000000       0x34 build/stm32f4xx_iwdg.o
 .text          0x0000000000000000        0x0 build/stm32f4xx_pwr.o
 .data          0x0000000000000000        0x0 build/stm32f4xx_pwr.o
 .bss           0x0000000000000000        0x0 build/stm32f4xx_pwr.o
 .text.PWR_DeInit
                0x0000000000000000       0x18 build/stm32f4xx_pwr.o
 .text.PWR_BackupAccessCmd
                0x0000000000000000        0xc build/stm32f4xx_pwr.o
 .text.PWR_PVDLevelConfig
                0x0000000000000000       0x14 build/stm32f4xx_pwr.o
 .text.PWR_PVDCmd
                0x0000000000000000        0xc build/stm32f4xx_pwr.o
 .text.PWR_WakeUpPinCmd
                0x0000000000000000        0xc build/stm32f4xx_pwr.o
 .text.PWR_BackupRegulatorCmd
                0x0000000000000000        0xc build/stm32f4xx_pwr.o
 .text.PWR_MainRegulatorModeConfig
                0x0000000000000000       0x14 build/stm32f4xx_pwr.o
 .text.PWR_OverDriveCmd
                0x0000000000000000        0xc build/stm32f4xx_pwr.o
 .text.PWR_OverDriveSWCmd
                0x0000000000000000        0xc build/stm32f4xx_pwr.o
 .text.PWR_UnderDriveCmd
                0x0000000000000000       0x20 build/stm32f4xx_pwr.o
 .text.PWR_MainRegulatorLowVoltageCmd
                0x0000000000000000       0x18 build/stm32f4xx_pwr.o
 .text.PWR_LowRegulatorLowVoltageCmd
                0x0000000000000000       0x18 build/stm32f4xx_pwr.o
 .text.PWR_FlashPowerDownCmd
                0x0000000000000000        0xc build/stm32f4xx_pwr.o
 .text.PWR_EnterSTOPMode
                0x0000000000000000       0x38 build/stm32f4xx_pwr.o
 .text.PWR_EnterUnderDriveSTOPMode
                0x0000000000000000       0x38 build/stm32f4xx_pwr.o
 .text.PWR_EnterSTANDBYMode
                0x0000000000000000       0x20 build/stm32f4xx_pwr.o
 .text.PWR_GetFlagStatus
                0x0000000000000000       0x14 build/stm32f4xx_pwr.o
 .text.PWR_ClearFlag
                0x0000000000000000       0x10 build/stm32f4xx_pwr.o
 .debug_info    0x0000000000000000      0x6d6 build/stm32f4xx_pwr.o
 .debug_abbrev  0x0000000000000000      0x208 build/stm32f4xx_pwr.o
 .debug_loc     0x0000000000000000      0x14d build/stm32f4xx_pwr.o
 .debug_aranges
                0x0000000000000000       0xa8 build/stm32f4xx_pwr.o
 .debug_ranges  0x0000000000000000       0x98 build/stm32f4xx_pwr.o
 .debug_line    0x0000000000000000      0x3fd build/stm32f4xx_pwr.o
 .debug_str     0x0000000000000000      0x458 build/stm32f4xx_pwr.o
 .comment       0x0000000000000000       0x5a build/stm32f4xx_pwr.o
 .debug_frame   0x0000000000000000      0x138 build/stm32f4xx_pwr.o
 .ARM.attributes
                0x0000000000000000       0x34 build/stm32f4xx_pwr.o
 .text          0x0000000000000000        0x0 build/stm32f4xx_rcc.o
 .data          0x0000000000000000        0x0 build/stm32f4xx_rcc.o
 .bss           0x0000000000000000        0x0 build/stm32f4xx_rcc.o
 .text.RCC_DeInit
                0x0000000000000000       0x48 build/stm32f4xx_rcc.o
 .text.RCC_HSEConfig
                0x0000000000000000       0x10 build/stm32f4xx_rcc.o
 .text.RCC_AdjustHSICalibrationValue
                0x0000000000000000       0x14 build/stm32f4xx_rcc.o
 .text.RCC_HSICmd
                0x0000000000000000        0xc build/stm32f4xx_rcc.o
 .text.RCC_LSEConfig
                0x0000000000000000       0x28 build/stm32f4xx_rcc.o
 .text.RCC_LSICmd
                0x0000000000000000        0xc build/stm32f4xx_rcc.o
 .text.RCC_PLLConfig
                0x0000000000000000       0x20 build/stm32f4xx_rcc.o
 .text.RCC_PLLCmd
                0x0000000000000000        0xc build/stm32f4xx_rcc.o
 .text.RCC_PLLI2SConfig
                0x0000000000000000       0x14 build/stm32f4xx_rcc.o
 .text.RCC_PLLI2SCmd
                0x0000000000000000        0xc build/stm32f4xx_rcc.o
 .text.RCC_PLLSAIConfig
                0x0000000000000000       0x18 build/stm32f4xx_rcc.o
 .text.RCC_PLLSAICmd
                0x0000000000000000        0xc build/stm32f4xx_rcc.o
 .text.RCC_ClockSecuritySystemCmd
                0x0000000000000000        0xc build/stm32f4xx_rcc.o
 .text.RCC_MCO1Config
                0x0000000000000000       0x14 build/stm32f4xx_rcc.o
 .text.RCC_MCO2Config
                0x0000000000000000       0x14 build/stm32f4xx_rcc.o
 .text.RCC_SYSCLKConfig
                0x0000000000000000       0x14 build/stm32f4xx_rcc.o
 .text.RCC_GetSYSCLKSource
                0x0000000000000000       0x10 build/stm32f4xx_rcc.o
 .text.RCC_HCLKConfig
                0x0000000000000000       0x14 build/stm32f4xx_rcc.o
 .text.RCC_PCLK1Config
                0x0000000000000000       0x14 build/stm32f4xx_rcc.o
 .text.RCC_PCLK2Config
                0x0000000000000000       0x14 build/stm32f4xx_rcc.o
 .text.RCC_RTCCLKConfig
                0x0000000000000000       0x34 build/stm32f4xx_rcc.o
 .text.RCC_RTCCLKCmd
                0x0000000000000000        0xc build/stm32f4xx_rcc.o
 .text.RCC_BackupResetCmd
                0x0000000000000000        0xc build/stm32f4xx_rcc.o
 .text.RCC_I2SCLKConfig
                0x0000000000000000        0xc build/stm32f4xx_rcc.o
 .text.RCC_SAIPLLI2SClkDivConfig
                0x0000000000000000       0x18 build/stm32f4xx_rcc.o
 .text.RCC_SAIPLLSAIClkDivConfig
                0x0000000000000000       0x1c build/stm32f4xx_rcc.o
 .text.RCC_SAIBlockACLKConfig
                0x0000000000000000       0x18 build/stm32f4xx_rcc.o
 .text.RCC_SAIBlockBCLKConfig
                0x0000000000000000       0x18 build/stm32f4xx_rcc.o
 .text.RCC_LTDCCLKDivConfig
                0x0000000000000000       0x18 build/stm32f4xx_rcc.o
 .text.RCC_TIMCLKPresConfig
                0x0000000000000000        0xc build/stm32f4xx_rcc.o
 .text.RCC_AHB2PeriphClockCmd
                0x0000000000000000       0x1c build/stm32f4xx_rcc.o
 .text.RCC_APB1PeriphClockCmd
                0x0000000000000000       0x1c build/stm32f4xx_rcc.o
 .text.RCC_AHB1PeriphResetCmd
                0x0000000000000000       0x1c build/stm32f4xx_rcc.o
 .text.RCC_AHB2PeriphResetCmd
                0x0000000000000000       0x1c build/stm32f4xx_rcc.o
 .text.RCC_AHB3PeriphResetCmd
                0x0000000000000000       0x1c build/stm32f4xx_rcc.o
 .text.RCC_APB1PeriphResetCmd
                0x0000000000000000       0x1c build/stm32f4xx_rcc.o
 .text.RCC_APB2PeriphResetCmd
                0x0000000000000000       0x1c build/stm32f4xx_rcc.o
 .text.RCC_AHB1PeriphClockLPModeCmd
                0x0000000000000000       0x1c build/stm32f4xx_rcc.o
 .text.RCC_AHB2PeriphClockLPModeCmd
                0x0000000000000000       0x1c build/stm32f4xx_rcc.o
 .text.RCC_AHB3PeriphClockLPModeCmd
                0x0000000000000000       0x1c build/stm32f4xx_rcc.o
 .text.RCC_APB1PeriphClockLPModeCmd
                0x0000000000000000       0x1c build/stm32f4xx_rcc.o
 .text.RCC_APB2PeriphClockLPModeCmd
                0x0000000000000000       0x1c build/stm32f4xx_rcc.o
 .text.RCC_LSEModeConfig
                0x0000000000000000       0x20 build/stm32f4xx_rcc.o
 .text.RCC_ITConfig
                0x0000000000000000       0x1c build/stm32f4xx_rcc.o
 .text.RCC_GetFlagStatus
                0x0000000000000000       0x34 build/stm32f4xx_rcc.o
 .text.RCC_WaitForHSEStartUp
                0x0000000000000000       0x30 build/stm32f4xx_rcc.o
 .text.RCC_ClearFlag
                0x0000000000000000       0x10 build/stm32f4xx_rcc.o
 .text.RCC_GetITStatus
                0x0000000000000000       0x14 build/stm32f4xx_rcc.o
 .text.RCC_ClearITPendingBit
                0x0000000000000000        0xc build/stm32f4xx_rcc.o
 .text          0x0000000000000000        0x0 build/stm32f4xx_rtc.o
 .data          0x0000000000000000        0x0 build/stm32f4xx_rtc.o
 .bss           0x0000000000000000        0x0 build/stm32f4xx_rtc.o
 .text.RTC_ByteToBcd2
                0x0000000000000000       0x18 build/stm32f4xx_rtc.o
 .text.RTC_Bcd2ToByte
                0x0000000000000000       0x12 build/stm32f4xx_rtc.o
 .text.RTC_StructInit
                0x0000000000000000        0xe build/stm32f4xx_rtc.o
 .text.RTC_WriteProtectionCmd
                0x0000000000000000       0x1c build/stm32f4xx_rtc.o
 .text.RTC_EnterInitMode
                0x0000000000000000       0x50 build/stm32f4xx_rtc.o
 .text.RTC_ExitInitMode
                0x0000000000000000       0x10 build/stm32f4xx_rtc.o
 .text.RTC_Init
                0x0000000000000000       0x48 build/stm32f4xx_rtc.o
 .text.RTC_WaitForSynchro
                0x0000000000000000       0x50 build/stm32f4xx_rtc.o
 .text.RTC_DeInit
                0x0000000000000000       0x98 build/stm32f4xx_rtc.o
 .text.RTC_RefClockCmd
                0x0000000000000000       0x40 build/stm32f4xx_rtc.o
 .text.RTC_BypassShadowCmd
                0x0000000000000000       0x30 build/stm32f4xx_rtc.o
 .text.RTC_SetTime
                0x0000000000000000       0xa4 build/stm32f4xx_rtc.o
 .text.RTC_TimeStructInit
                0x0000000000000000        0xc build/stm32f4xx_rtc.o
 .text.RTC_GetTime
                0x0000000000000000       0x44 build/stm32f4xx_rtc.o
 .text.RTC_GetSubSecond
                0x0000000000000000        0xc build/stm32f4xx_rtc.o
 .text.RTC_SetDate
                0x0000000000000000       0x94 build/stm32f4xx_rtc.o
 .text.RTC_DateStructInit
                0x0000000000000000        0xe build/stm32f4xx_rtc.o
 .text.RTC_GetDate
                0x0000000000000000       0x40 build/stm32f4xx_rtc.o
 .text.RTC_SetAlarm
                0x0000000000000000       0xa4 build/stm32f4xx_rtc.o
 .text.RTC_AlarmStructInit
                0x0000000000000000       0x14 build/stm32f4xx_rtc.o
 .text.RTC_GetAlarm
                0x0000000000000000       0x70 build/stm32f4xx_rtc.o
 .text.RTC_AlarmCmd
                0x0000000000000000       0x68 build/stm32f4xx_rtc.o
 .text.RTC_AlarmSubSecondConfig
                0x0000000000000000       0x2c build/stm32f4xx_rtc.o
 .text.RTC_GetAlarmSubSecond
                0x0000000000000000       0x20 build/stm32f4xx_rtc.o
 .text.RTC_WakeUpClockConfig
                0x0000000000000000       0x24 build/stm32f4xx_rtc.o
 .text.RTC_SetWakeUpCounter
                0x0000000000000000       0x18 build/stm32f4xx_rtc.o
 .text.RTC_GetWakeUpCounter
                0x0000000000000000        0xc build/stm32f4xx_rtc.o
 .text.RTC_WakeUpCmd
                0x0000000000000000       0x64 build/stm32f4xx_rtc.o
 .text.RTC_DayLightSavingConfig
                0x0000000000000000       0x2c build/stm32f4xx_rtc.o
 .text.RTC_GetStoreOperation
                0x0000000000000000       0x10 build/stm32f4xx_rtc.o
 .text.RTC_OutputConfig
                0x0000000000000000       0x2c build/stm32f4xx_rtc.o
 .text.RTC_CoarseCalibConfig
                0x0000000000000000       0x30 build/stm32f4xx_rtc.o
 .text.RTC_CoarseCalibCmd
                0x0000000000000000       0x40 build/stm32f4xx_rtc.o
 .text.RTC_CalibOutputCmd
                0x0000000000000000       0x30 build/stm32f4xx_rtc.o
 .text.RTC_CalibOutputConfig
                0x0000000000000000       0x24 build/stm32f4xx_rtc.o
 .text.RTC_SmoothCalibConfig
                0x0000000000000000       0x54 build/stm32f4xx_rtc.o
 .text.RTC_TimeStampCmd
                0x0000000000000000       0x30 build/stm32f4xx_rtc.o
 .text.RTC_GetTimeStamp
                0x0000000000000000       0x78 build/stm32f4xx_rtc.o
 .text.RTC_GetTimeStampSubSecond
                0x0000000000000000        0xc build/stm32f4xx_rtc.o
 .text.RTC_TamperTriggerConfig
                0x0000000000000000       0x20 build/stm32f4xx_rtc.o
 .text.RTC_TamperCmd
                0x0000000000000000       0x1c build/stm32f4xx_rtc.o
 .text.RTC_TamperFilterConfig
                0x0000000000000000       0x18 build/stm32f4xx_rtc.o
 .text.RTC_TamperSamplingFreqConfig
                0x0000000000000000       0x18 build/stm32f4xx_rtc.o
 .text.RTC_TamperPinsPrechargeDuration
                0x0000000000000000       0x18 build/stm32f4xx_rtc.o
 .text.RTC_TimeStampOnTamperDetectionCmd
                0x0000000000000000       0x20 build/stm32f4xx_rtc.o
 .text.RTC_TamperPullUpCmd
                0x0000000000000000       0x20 build/stm32f4xx_rtc.o
 .text.RTC_WriteBackupRegister
                0x0000000000000000       0x20 build/stm32f4xx_rtc.o
 .text.RTC_ReadBackupRegister
                0x0000000000000000       0x20 build/stm32f4xx_rtc.o
 .text.RTC_TamperPinSelection
                0x0000000000000000       0x18 build/stm32f4xx_rtc.o
 .text.RTC_TimeStampPinSelection
                0x0000000000000000       0x18 build/stm32f4xx_rtc.o
 .text.RTC_OutputTypeConfig
                0x0000000000000000       0x18 build/stm32f4xx_rtc.o
 .text.RTC_SynchroShiftConfig
                0x0000000000000000       0x60 build/stm32f4xx_rtc.o
 .text.RTC_ITConfig
                0x0000000000000000       0x48 build/stm32f4xx_rtc.o
 .text.RTC_GetFlagStatus
                0x0000000000000000       0x24 build/stm32f4xx_rtc.o
 .text.RTC_ClearFlag
                0x0000000000000000       0x1c build/stm32f4xx_rtc.o
 .text.RTC_GetITStatus
                0x0000000000000000       0x2c build/stm32f4xx_rtc.o
 .text.RTC_ClearITPendingBit
                0x0000000000000000       0x1c build/stm32f4xx_rtc.o
 .debug_info    0x0000000000000000     0x169d build/stm32f4xx_rtc.o
 .debug_abbrev  0x0000000000000000      0x276 build/stm32f4xx_rtc.o
 .debug_loc     0x0000000000000000     0x1600 build/stm32f4xx_rtc.o
 .debug_aranges
                0x0000000000000000      0x1e0 build/stm32f4xx_rtc.o
 .debug_ranges  0x0000000000000000      0x1d0 build/stm32f4xx_rtc.o
 .debug_line    0x0000000000000000     0x1549 build/stm32f4xx_rtc.o
 .debug_str     0x0000000000000000      0xb89 build/stm32f4xx_rtc.o
 .comment       0x0000000000000000       0x5a build/stm32f4xx_rtc.o
 .debug_frame   0x0000000000000000      0x4ac build/stm32f4xx_rtc.o
 .ARM.attributes
                0x0000000000000000       0x34 build/stm32f4xx_rtc.o
 .text          0x0000000000000000        0x0 build/stm32f4xx_sdio.o
 .data          0x0000000000000000        0x0 build/stm32f4xx_sdio.o
 .bss           0x0000000000000000        0x0 build/stm32f4xx_sdio.o
 .text.SDIO_DeInit
                0x0000000000000000       0x18 build/stm32f4xx_sdio.o
 .text.SDIO_Init
                0x0000000000000000       0x34 build/stm32f4xx_sdio.o
 .text.SDIO_StructInit
                0x0000000000000000       0x10 build/stm32f4xx_sdio.o
 .text.SDIO_ClockCmd
                0x0000000000000000        0xc build/stm32f4xx_sdio.o
 .text.SDIO_SetPowerState
                0x0000000000000000        0xc build/stm32f4xx_sdio.o
 .text.SDIO_GetPowerState
                0x0000000000000000       0x10 build/stm32f4xx_sdio.o
 .text.SDIO_SendCommand
                0x0000000000000000       0x30 build/stm32f4xx_sdio.o
 .text.SDIO_CmdStructInit
                0x0000000000000000        0xe build/stm32f4xx_sdio.o
 .text.SDIO_GetCommandResponse
                0x0000000000000000        0xc build/stm32f4xx_sdio.o
 .text.SDIO_GetResponse
                0x0000000000000000       0x18 build/stm32f4xx_sdio.o
 .text.SDIO_DataConfig
                0x0000000000000000       0x30 build/stm32f4xx_sdio.o
 .text.SDIO_DataStructInit
                0x0000000000000000       0x14 build/stm32f4xx_sdio.o
 .text.SDIO_GetDataCounter
                0x0000000000000000        0xc build/stm32f4xx_sdio.o
 .text.SDIO_ReadData
                0x0000000000000000        0xc build/stm32f4xx_sdio.o
 .text.SDIO_WriteData
                0x0000000000000000        0xc build/stm32f4xx_sdio.o
 .text.SDIO_GetFIFOCount
                0x0000000000000000        0xc build/stm32f4xx_sdio.o
 .text.SDIO_StartSDIOReadWait
                0x0000000000000000        0xc build/stm32f4xx_sdio.o
 .text.SDIO_StopSDIOReadWait
                0x0000000000000000        0xc build/stm32f4xx_sdio.o
 .text.SDIO_SetSDIOReadWaitMode
                0x0000000000000000        0xc build/stm32f4xx_sdio.o
 .text.SDIO_SetSDIOOperation
                0x0000000000000000        0xc build/stm32f4xx_sdio.o
 .text.SDIO_SendSDIOSuspendCmd
                0x0000000000000000        0xc build/stm32f4xx_sdio.o
 .text.SDIO_CommandCompletionCmd
                0x0000000000000000        0xc build/stm32f4xx_sdio.o
 .text.SDIO_CEATAITCmd
                0x0000000000000000       0x14 build/stm32f4xx_sdio.o
 .text.SDIO_SendCEATACmd
                0x0000000000000000        0xc build/stm32f4xx_sdio.o
 .text.SDIO_DMACmd
                0x0000000000000000        0xc build/stm32f4xx_sdio.o
 .text.SDIO_ITConfig
                0x0000000000000000       0x1c build/stm32f4xx_sdio.o
 .text.SDIO_GetFlagStatus
                0x0000000000000000       0x14 build/stm32f4xx_sdio.o
 .text.SDIO_ClearFlag
                0x0000000000000000        0xc build/stm32f4xx_sdio.o
 .text.SDIO_GetITStatus
                0x0000000000000000       0x14 build/stm32f4xx_sdio.o
 .text.SDIO_ClearITPendingBit
                0x0000000000000000        0xc build/stm32f4xx_sdio.o
 .debug_info    0x0000000000000000      0x99e build/stm32f4xx_sdio.o
 .debug_abbrev  0x0000000000000000      0x221 build/stm32f4xx_sdio.o
 .debug_loc     0x0000000000000000      0x33f build/stm32f4xx_sdio.o
 .debug_aranges
                0x0000000000000000      0x108 build/stm32f4xx_sdio.o
 .debug_ranges  0x0000000000000000       0xf8 build/stm32f4xx_sdio.o
 .debug_line    0x0000000000000000      0x5fa build/stm32f4xx_sdio.o
 .debug_str     0x0000000000000000      0x698 build/stm32f4xx_sdio.o
 .comment       0x0000000000000000       0x5a build/stm32f4xx_sdio.o
 .debug_frame   0x0000000000000000      0x224 build/stm32f4xx_sdio.o
 .ARM.attributes
                0x0000000000000000       0x34 build/stm32f4xx_sdio.o
 .text          0x0000000000000000        0x0 build/stm32f4xx_spi.o
 .data          0x0000000000000000        0x0 build/stm32f4xx_spi.o
 .bss           0x0000000000000000        0x0 build/stm32f4xx_spi.o
 .text.SPI_I2S_DeInit
                0x0000000000000000       0xc4 build/stm32f4xx_spi.o
 .text.SPI_Init
                0x0000000000000000       0x4c build/stm32f4xx_spi.o
 .text.I2S_Init
                0x0000000000000000      0x108 build/stm32f4xx_spi.o
 .text.SPI_StructInit
                0x0000000000000000       0x18 build/stm32f4xx_spi.o
 .text.I2S_StructInit
                0x0000000000000000       0x12 build/stm32f4xx_spi.o
 .text.SPI_Cmd  0x0000000000000000       0x1c build/stm32f4xx_spi.o
 .text.I2S_Cmd  0x0000000000000000       0x1c build/stm32f4xx_spi.o
 .text.SPI_DataSizeConfig
                0x0000000000000000       0x16 build/stm32f4xx_spi.o
 .text.SPI_BiDirectionalLineConfig
                0x0000000000000000       0x20 build/stm32f4xx_spi.o
 .text.SPI_NSSInternalSoftwareConfig
                0x0000000000000000       0x22 build/stm32f4xx_spi.o
 .text.SPI_SSOutputCmd
                0x0000000000000000       0x1c build/stm32f4xx_spi.o
 .text.SPI_TIModeCmd
                0x0000000000000000       0x1c build/stm32f4xx_spi.o
 .text.I2S_FullDuplexConfig
                0x0000000000000000       0x4a build/stm32f4xx_spi.o
 .text.SPI_I2S_ReceiveData
                0x0000000000000000        0x6 build/stm32f4xx_spi.o
 .text.SPI_I2S_SendData
                0x0000000000000000        0x4 build/stm32f4xx_spi.o
 .text.SPI_CalculateCRC
                0x0000000000000000       0x1c build/stm32f4xx_spi.o
 .text.SPI_TransmitCRC
                0x0000000000000000        0xc build/stm32f4xx_spi.o
 .text.SPI_GetCRC
                0x0000000000000000       0x10 build/stm32f4xx_spi.o
 .text.SPI_GetCRCPolynomial
                0x0000000000000000        0x6 build/stm32f4xx_spi.o
 .text.SPI_I2S_DMACmd
                0x0000000000000000       0x18 build/stm32f4xx_spi.o
 .text.SPI_I2S_ITConfig
                0x0000000000000000       0x20 build/stm32f4xx_spi.o
 .text.SPI_I2S_GetFlagStatus
                0x0000000000000000        0xe build/stm32f4xx_spi.o
 .text.SPI_I2S_ClearFlag
                0x0000000000000000        0x8 build/stm32f4xx_spi.o
 .text.SPI_I2S_GetITStatus
                0x0000000000000000       0x2c build/stm32f4xx_spi.o
 .text.SPI_I2S_ClearITPendingBit
                0x0000000000000000       0x12 build/stm32f4xx_spi.o
 .debug_info    0x0000000000000000      0xe88 build/stm32f4xx_spi.o
 .debug_abbrev  0x0000000000000000      0x213 build/stm32f4xx_spi.o
 .debug_loc     0x0000000000000000      0x8e5 build/stm32f4xx_spi.o
 .debug_aranges
                0x0000000000000000       0xe0 build/stm32f4xx_spi.o
 .debug_ranges  0x0000000000000000       0xd0 build/stm32f4xx_spi.o
 .debug_line    0x0000000000000000      0x7e0 build/stm32f4xx_spi.o
 .debug_str     0x0000000000000000      0x701 build/stm32f4xx_spi.o
 .comment       0x0000000000000000       0x5a build/stm32f4xx_spi.o
 .debug_frame   0x0000000000000000      0x1e0 build/stm32f4xx_spi.o
 .ARM.attributes
                0x0000000000000000       0x34 build/stm32f4xx_spi.o
 .text          0x0000000000000000        0x0 build/stm32f4xx_syscfg.o
 .data          0x0000000000000000        0x0 build/stm32f4xx_syscfg.o
 .bss           0x0000000000000000        0x0 build/stm32f4xx_syscfg.o
 .text.SYSCFG_DeInit
                0x0000000000000000       0x18 build/stm32f4xx_syscfg.o
 .text.SYSCFG_MemoryRemapConfig
                0x0000000000000000        0xc build/stm32f4xx_syscfg.o
 .text.SYSCFG_MemorySwappingBank
                0x0000000000000000        0xc build/stm32f4xx_syscfg.o
 .text.SYSCFG_EXTILineConfig
                0x0000000000000000       0x38 build/stm32f4xx_syscfg.o
 .text.SYSCFG_ETH_MediaInterfaceConfig
                0x0000000000000000        0xc build/stm32f4xx_syscfg.o
 .text.SYSCFG_CompensationCellCmd
                0x0000000000000000        0xc build/stm32f4xx_syscfg.o
 .text.SYSCFG_GetCompensationCellStatus
                0x0000000000000000       0x18 build/stm32f4xx_syscfg.o
 .debug_info    0x0000000000000000      0x31e build/stm32f4xx_syscfg.o
 .debug_abbrev  0x0000000000000000      0x1ba build/stm32f4xx_syscfg.o
 .debug_loc     0x0000000000000000       0xb7 build/stm32f4xx_syscfg.o
 .debug_aranges
                0x0000000000000000       0x50 build/stm32f4xx_syscfg.o
 .debug_ranges  0x0000000000000000       0x40 build/stm32f4xx_syscfg.o
 .debug_line    0x0000000000000000      0x1fc build/stm32f4xx_syscfg.o
 .debug_str     0x0000000000000000      0x366 build/stm32f4xx_syscfg.o
 .comment       0x0000000000000000       0x5a build/stm32f4xx_syscfg.o
 .debug_frame   0x0000000000000000       0x94 build/stm32f4xx_syscfg.o
 .ARM.attributes
                0x0000000000000000       0x34 build/stm32f4xx_syscfg.o
 .text          0x0000000000000000        0x0 build/stm32f4xx_tim.o
 .data          0x0000000000000000        0x0 build/stm32f4xx_tim.o
 .bss           0x0000000000000000        0x0 build/stm32f4xx_tim.o
 .text.TI1_Config
                0x0000000000000000       0x34 build/stm32f4xx_tim.o
 .text.TI2_Config
                0x0000000000000000       0x3e build/stm32f4xx_tim.o
 .text.TI3_Config
                0x0000000000000000       0x38 build/stm32f4xx_tim.o
 .text.TI4_Config
                0x0000000000000000       0x40 build/stm32f4xx_tim.o
 .text.TIM_DeInit
                0x0000000000000000      0x198 build/stm32f4xx_tim.o
 .text.TIM_TimeBaseInit
                0x0000000000000000       0x7c build/stm32f4xx_tim.o
 .text.TIM_TimeBaseStructInit
                0x0000000000000000       0x12 build/stm32f4xx_tim.o
 .text.TIM_PrescalerConfig
                0x0000000000000000        0x6 build/stm32f4xx_tim.o
 .text.TIM_CounterModeConfig
                0x0000000000000000        0xe build/stm32f4xx_tim.o
 .text.TIM_SetCounter
                0x0000000000000000        0x4 build/stm32f4xx_tim.o
 .text.TIM_SetAutoreload
                0x0000000000000000        0x4 build/stm32f4xx_tim.o
 .text.TIM_GetCounter
                0x0000000000000000        0x4 build/stm32f4xx_tim.o
 .text.TIM_GetPrescaler
                0x0000000000000000        0x6 build/stm32f4xx_tim.o
 .text.TIM_UpdateDisableConfig
                0x0000000000000000       0x1c build/stm32f4xx_tim.o
 .text.TIM_UpdateRequestConfig
                0x0000000000000000       0x1c build/stm32f4xx_tim.o
 .text.TIM_ARRPreloadConfig
                0x0000000000000000       0x1c build/stm32f4xx_tim.o
 .text.TIM_SelectOnePulseMode
                0x0000000000000000       0x16 build/stm32f4xx_tim.o
 .text.TIM_SetClockDivision
                0x0000000000000000       0x16 build/stm32f4xx_tim.o
 .text.TIM_Cmd  0x0000000000000000       0x1c build/stm32f4xx_tim.o
 .text.TIM_OC1Init
                0x0000000000000000       0x6c build/stm32f4xx_tim.o
 .text.TIM_OC2Init
                0x0000000000000000       0x88 build/stm32f4xx_tim.o
 .text.TIM_OC3Init
                0x0000000000000000       0x84 build/stm32f4xx_tim.o
 .text.TIM_OC4Init
                0x0000000000000000       0x68 build/stm32f4xx_tim.o
 .text.TIM_OCStructInit
                0x0000000000000000       0x14 build/stm32f4xx_tim.o
 .text.TIM_SelectOCxM
                0x0000000000000000       0x52 build/stm32f4xx_tim.o
 .text.TIM_SetCompare1
                0x0000000000000000        0x4 build/stm32f4xx_tim.o
 .text.TIM_SetCompare2
                0x0000000000000000        0x4 build/stm32f4xx_tim.o
 .text.TIM_SetCompare3
                0x0000000000000000        0x4 build/stm32f4xx_tim.o
 .text.TIM_SetCompare4
                0x0000000000000000        0x4 build/stm32f4xx_tim.o
 .text.TIM_ForcedOC1Config
                0x0000000000000000        0xe build/stm32f4xx_tim.o
 .text.TIM_ForcedOC2Config
                0x0000000000000000       0x12 build/stm32f4xx_tim.o
 .text.TIM_ForcedOC3Config
                0x0000000000000000        0xe build/stm32f4xx_tim.o
 .text.TIM_ForcedOC4Config
                0x0000000000000000       0x12 build/stm32f4xx_tim.o
 .text.TIM_OC1PreloadConfig
                0x0000000000000000        0xe build/stm32f4xx_tim.o
 .text.TIM_OC2PreloadConfig
                0x0000000000000000       0x12 build/stm32f4xx_tim.o
 .text.TIM_OC3PreloadConfig
                0x0000000000000000        0xe build/stm32f4xx_tim.o
 .text.TIM_OC4PreloadConfig
                0x0000000000000000       0x12 build/stm32f4xx_tim.o
 .text.TIM_OC1FastConfig
                0x0000000000000000        0xe build/stm32f4xx_tim.o
 .text.TIM_OC2FastConfig
                0x0000000000000000       0x12 build/stm32f4xx_tim.o
 .text.TIM_OC3FastConfig
                0x0000000000000000        0xe build/stm32f4xx_tim.o
 .text.TIM_OC4FastConfig
                0x0000000000000000       0x12 build/stm32f4xx_tim.o
 .text.TIM_ClearOC1Ref
                0x0000000000000000        0xe build/stm32f4xx_tim.o
 .text.TIM_ClearOC2Ref
                0x0000000000000000       0x10 build/stm32f4xx_tim.o
 .text.TIM_ClearOC3Ref
                0x0000000000000000        0xe build/stm32f4xx_tim.o
 .text.TIM_ClearOC4Ref
                0x0000000000000000       0x10 build/stm32f4xx_tim.o
 .text.TIM_OC1PolarityConfig
                0x0000000000000000        0xe build/stm32f4xx_tim.o
 .text.TIM_OC1NPolarityConfig
                0x0000000000000000        0xe build/stm32f4xx_tim.o
 .text.TIM_OC2PolarityConfig
                0x0000000000000000       0x12 build/stm32f4xx_tim.o
 .text.TIM_OC2NPolarityConfig
                0x0000000000000000       0x12 build/stm32f4xx_tim.o
 .text.TIM_OC3PolarityConfig
                0x0000000000000000       0x12 build/stm32f4xx_tim.o
 .text.TIM_OC3NPolarityConfig
                0x0000000000000000       0x12 build/stm32f4xx_tim.o
 .text.TIM_OC4PolarityConfig
                0x0000000000000000       0x12 build/stm32f4xx_tim.o
 .text.TIM_CCxCmd
                0x0000000000000000       0x24 build/stm32f4xx_tim.o
 .text.TIM_CCxNCmd
                0x0000000000000000       0x24 build/stm32f4xx_tim.o
 .text.TIM_ICStructInit
                0x0000000000000000       0x10 build/stm32f4xx_tim.o
 .text.TIM_GetCapture1
                0x0000000000000000        0x4 build/stm32f4xx_tim.o
 .text.TIM_GetCapture2
                0x0000000000000000        0x4 build/stm32f4xx_tim.o
 .text.TIM_GetCapture3
                0x0000000000000000        0x4 build/stm32f4xx_tim.o
 .text.TIM_GetCapture4
                0x0000000000000000        0x4 build/stm32f4xx_tim.o
 .text.TIM_SetIC1Prescaler
                0x0000000000000000       0x16 build/stm32f4xx_tim.o
 .text.TIM_SetIC2Prescaler
                0x0000000000000000       0x1a build/stm32f4xx_tim.o
 .text.TIM_PWMIConfig
                0x0000000000000000       0x6c build/stm32f4xx_tim.o
 .text.TIM_SetIC3Prescaler
                0x0000000000000000       0x16 build/stm32f4xx_tim.o
 .text.TIM_SetIC4Prescaler
                0x0000000000000000       0x1a build/stm32f4xx_tim.o
 .text.TIM_ICInit
                0x0000000000000000       0x62 build/stm32f4xx_tim.o
 .text.TIM_BDTRConfig
                0x0000000000000000       0x28 build/stm32f4xx_tim.o
 .text.TIM_BDTRStructInit
                0x0000000000000000       0x12 build/stm32f4xx_tim.o
 .text.TIM_CtrlPWMOutputs
                0x0000000000000000       0x24 build/stm32f4xx_tim.o
 .text.TIM_SelectCOM
                0x0000000000000000       0x1c build/stm32f4xx_tim.o
 .text.TIM_CCPreloadControl
                0x0000000000000000       0x1c build/stm32f4xx_tim.o
 .text.TIM_ITConfig
                0x0000000000000000       0x18 build/stm32f4xx_tim.o
 .text.TIM_GenerateEvent
                0x0000000000000000        0x4 build/stm32f4xx_tim.o
 .text.TIM_GetFlagStatus
                0x0000000000000000        0xe build/stm32f4xx_tim.o
 .text.TIM_ClearFlag
                0x0000000000000000        0x8 build/stm32f4xx_tim.o
 .text.TIM_GetITStatus
                0x0000000000000000       0x18 build/stm32f4xx_tim.o
 .text.TIM_ClearITPendingBit
                0x0000000000000000        0x8 build/stm32f4xx_tim.o
 .text.TIM_DMAConfig
                0x0000000000000000        0x8 build/stm32f4xx_tim.o
 .text.TIM_DMACmd
                0x0000000000000000       0x18 build/stm32f4xx_tim.o
 .text.TIM_SelectCCDMA
                0x0000000000000000       0x1c build/stm32f4xx_tim.o
 .text.TIM_InternalClockConfig
                0x0000000000000000        0xe build/stm32f4xx_tim.o
 .text.TIM_SelectInputTrigger
                0x0000000000000000        0xe build/stm32f4xx_tim.o
 .text.TIM_ITRxExternalClockConfig
                0x0000000000000000       0x14 build/stm32f4xx_tim.o
 .text.TIM_TIxExternalClockConfig
                0x0000000000000000       0x2e build/stm32f4xx_tim.o
 .text.TIM_SelectOutputTrigger
                0x0000000000000000       0x16 build/stm32f4xx_tim.o
 .text.TIM_SelectSlaveMode
                0x0000000000000000       0x16 build/stm32f4xx_tim.o
 .text.TIM_SelectMasterSlaveMode
                0x0000000000000000       0x16 build/stm32f4xx_tim.o
 .text.TIM_ETRConfig
                0x0000000000000000       0x18 build/stm32f4xx_tim.o
 .text.TIM_ETRClockMode1Config
                0x0000000000000000       0x14 build/stm32f4xx_tim.o
 .text.TIM_ETRClockMode2Config
                0x0000000000000000       0x14 build/stm32f4xx_tim.o
 .text.TIM_EncoderInterfaceConfig
                0x0000000000000000       0x3a build/stm32f4xx_tim.o
 .text.TIM_SelectHallSensor
                0x0000000000000000       0x1c build/stm32f4xx_tim.o
 .text.TIM_RemapConfig
                0x0000000000000000        0x6 build/stm32f4xx_tim.o
 .debug_info    0x0000000000000000     0x2669 build/stm32f4xx_tim.o
 .debug_abbrev  0x0000000000000000      0x226 build/stm32f4xx_tim.o
 .debug_loc     0x0000000000000000     0x1c86 build/stm32f4xx_tim.o
 .debug_aranges
                0x0000000000000000      0x2f8 build/stm32f4xx_tim.o
 .debug_ranges  0x0000000000000000      0x2e8 build/stm32f4xx_tim.o
 .debug_line    0x0000000000000000     0x1898 build/stm32f4xx_tim.o
 .debug_str     0x0000000000000000      0xe34 build/stm32f4xx_tim.o
 .comment       0x0000000000000000       0x5a build/stm32f4xx_tim.o
 .debug_frame   0x0000000000000000      0x6d0 build/stm32f4xx_tim.o
 .ARM.attributes
                0x0000000000000000       0x34 build/stm32f4xx_tim.o
 .text          0x0000000000000000        0x0 build/stm32f4xx_usart.o
 .data          0x0000000000000000        0x0 build/stm32f4xx_usart.o
 .bss           0x0000000000000000        0x0 build/stm32f4xx_usart.o
 .text.USART_DeInit
                0x0000000000000000       0xfc build/stm32f4xx_usart.o
 .text.USART_StructInit
                0x0000000000000000       0x16 build/stm32f4xx_usart.o
 .text.USART_ClockInit
                0x0000000000000000       0x22 build/stm32f4xx_usart.o
 .text.USART_ClockStructInit
                0x0000000000000000        0xc build/stm32f4xx_usart.o
 .text.USART_SetPrescaler
                0x0000000000000000       0x12 build/stm32f4xx_usart.o
 .text.USART_OverSampling8Cmd
                0x0000000000000000       0x1c build/stm32f4xx_usart.o
 .text.USART_OneBitMethodCmd
                0x0000000000000000       0x1c build/stm32f4xx_usart.o
 .text.USART_SendData
                0x0000000000000000        0x8 build/stm32f4xx_usart.o
 .text.USART_SetAddress
                0x0000000000000000       0x16 build/stm32f4xx_usart.o
 .text.USART_ReceiverWakeUpCmd
                0x0000000000000000       0x1c build/stm32f4xx_usart.o
 .text.USART_WakeUpConfig
                0x0000000000000000       0x16 build/stm32f4xx_usart.o
 .text.USART_LINBreakDetectLengthConfig
                0x0000000000000000       0x16 build/stm32f4xx_usart.o
 .text.USART_LINCmd
                0x0000000000000000       0x1c build/stm32f4xx_usart.o
 .text.USART_SendBreak
                0x0000000000000000        0xc build/stm32f4xx_usart.o
 .text.USART_HalfDuplexCmd
                0x0000000000000000       0x1c build/stm32f4xx_usart.o
 .text.USART_SetGuardTime
                0x0000000000000000       0x12 build/stm32f4xx_usart.o
 .text.USART_SmartCardCmd
                0x0000000000000000       0x1c build/stm32f4xx_usart.o
 .text.USART_SmartCardNACKCmd
                0x0000000000000000       0x1c build/stm32f4xx_usart.o
 .text.USART_IrDAConfig
                0x0000000000000000       0x16 build/stm32f4xx_usart.o
 .text.USART_IrDACmd
                0x0000000000000000       0x1c build/stm32f4xx_usart.o
 .text.USART_DMACmd
                0x0000000000000000       0x18 build/stm32f4xx_usart.o
 .text.USART_GetFlagStatus
                0x0000000000000000        0xe build/stm32f4xx_usart.o
 .text.USART_ClearITPendingBit
                0x0000000000000000       0x10 build/stm32f4xx_usart.o
 .text          0x0000000000000000        0x0 build/system_stm32f4xx.o
 .data          0x0000000000000000        0x0 build/system_stm32f4xx.o
 .bss           0x0000000000000000        0x0 build/system_stm32f4xx.o
 .text.SystemCoreClockUpdate
                0x0000000000000000       0xa0 build/system_stm32f4xx.o
 .data.AHBPrescTable
                0x0000000000000000       0x10 build/system_stm32f4xx.o
 .data.SystemCoreClock
                0x0000000000000000        0x4 build/system_stm32f4xx.o
 .text          0x0000000000000000       0x14 build/startup_stm32f407xx.o
 .data          0x0000000000000000        0x0 build/startup_stm32f407xx.o
 .bss           0x0000000000000000        0x0 build/startup_stm32f407xx.o
 .text          0x0000000000000000        0xc /usr/lib/gcc/arm-none-eabi/9.2.1/../../../arm-none-eabi/lib/thumb/v7e-m+fp/hard/libc_nano.a(lib_a-atexit.o)
 .data          0x0000000000000000        0x0 /usr/lib/gcc/arm-none-eabi/9.2.1/../../../arm-none-eabi/lib/thumb/v7e-m+fp/hard/libc_nano.a(lib_a-atexit.o)
 .bss           0x0000000000000000        0x0 /usr/lib/gcc/arm-none-eabi/9.2.1/../../../arm-none-eabi/lib/thumb/v7e-m+fp/hard/libc_nano.a(lib_a-atexit.o)
 .debug_info    0x0000000000000000      0x995 /usr/lib/gcc/arm-none-eabi/9.2.1/../../../arm-none-eabi/lib/thumb/v7e-m+fp/hard/libc_nano.a(lib_a-atexit.o)
 .debug_abbrev  0x0000000000000000      0x1f4 /usr/lib/gcc/arm-none-eabi/9.2.1/../../../arm-none-eabi/lib/thumb/v7e-m+fp/hard/libc_nano.a(lib_a-atexit.o)
 .debug_loc     0x0000000000000000       0x32 /usr/lib/gcc/arm-none-eabi/9.2.1/../../../arm-none-eabi/lib/thumb/v7e-m+fp/hard/libc_nano.a(lib_a-atexit.o)
 .debug_aranges
                0x0000000000000000       0x20 /usr/lib/gcc/arm-none-eabi/9.2.1/../../../arm-none-eabi/lib/thumb/v7e-m+fp/hard/libc_nano.a(lib_a-atexit.o)
 .debug_line    0x0000000000000000      0x14a /usr/lib/gcc/arm-none-eabi/9.2.1/../../../arm-none-eabi/lib/thumb/v7e-m+fp/hard/libc_nano.a(lib_a-atexit.o)
 .debug_str     0x0000000000000000      0x62d /usr/lib/gcc/arm-none-eabi/9.2.1/../../../arm-none-eabi/lib/thumb/v7e-m+fp/hard/libc_nano.a(lib_a-atexit.o)
 .comment       0x0000000000000000       0x4f /usr/lib/gcc/arm-none-eabi/9.2.1/../../../arm-none-eabi/lib/thumb/v7e-m+fp/hard/libc_nano.a(lib_a-atexit.o)
 .debug_frame   0x0000000000000000       0x20 /usr/lib/gcc/arm-none-eabi/9.2.1/../../../arm-none-eabi/lib/thumb/v7e-m+fp/hard/libc_nano.a(lib_a-atexit.o)
 .ARM.attributes
                0x0000000000000000       0x34 /usr/lib/gcc/arm-none-eabi/9.2.1/../../../arm-none-eabi/lib/thumb/v7e-m+fp/hard/libc_nano.a(lib_a-atexit.o)
 .text          0x0000000000000000       0x28 /usr/lib/gcc/arm-none-eabi/9.2.1/../../../arm-none-eabi/lib/thumb/v7e-m+fp/hard/libc_nano.a(lib_a-exit.o)
 .data          0x0000000000000000        0x0 /usr/lib/gcc/arm-none-eabi/9.2.1/../../../arm-none-eabi/lib/thumb/v7e-m+fp/hard/libc_nano.a(lib_a-exit.o)
 .bss           0x0000000000000000        0x0 /usr/lib/gcc/arm-none-eabi/9.2.1/../../../arm-none-eabi/lib/thumb/v7e-m+fp/hard/libc_nano.a(lib_a-exit.o)
 .debug_info    0x0000000000000000      0x9e7 /usr/lib/gcc/arm-none-eabi/9.2.1/../../../arm-none-eabi/lib/thumb/v7e-m+fp/hard/libc_nano.a(lib_a-exit.o)
 .debug_abbrev  0x0000000000000000      0x1f6 /usr/lib/gcc/arm-none-eabi/9.2.1/../../../arm-none-eabi/lib/thumb/v7e-m+fp/hard/libc_nano.a(lib_a-exit.o)
 .debug_loc     0x0000000000000000       0x22 /usr/lib/gcc/arm-none-eabi/9.2.1/../../../arm-none-eabi/lib/thumb/v7e-m+fp/hard/libc_nano.a(lib_a-exit.o)
 .debug_aranges
                0x0000000000000000       0x20 /usr/lib/gcc/arm-none-eabi/9.2.1/../../../arm-none-eabi/lib/thumb/v7e-m+fp/hard/libc_nano.a(lib_a-exit.o)
 .debug_line    0x0000000000000000      0x16c /usr/lib/gcc/arm-none-eabi/9.2.1/../../../arm-none-eabi/lib/thumb/v7e-m+fp/hard/libc_nano.a(lib_a-exit.o)
 .debug_str     0x0000000000000000      0x62e /usr/lib/gcc/arm-none-eabi/9.2.1/../../../arm-none-eabi/lib/thumb/v7e-m+fp/hard/libc_nano.a(lib_a-exit.o)
 .comment       0x0000000000000000       0x4f /usr/lib/gcc/arm-none-eabi/9.2.1/../../../arm-none-eabi/lib/thumb/v7e-m+fp/hard/libc_nano.a(lib_a-exit.o)
 .debug_frame   0x0000000000000000       0x28 /usr/lib/gcc/arm-none-eabi/9.2.1/../../../arm-none-eabi/lib/thumb/v7e-m+fp/hard/libc_nano.a(lib_a-exit.o)
 .ARM.attributes
                0x0000000000000000       0x34 /usr/lib/gcc/arm-none-eabi/9.2.1/../../../arm-none-eabi/lib/thumb/v7e-m+fp/hard/libc_nano.a(lib_a-exit.o)
 .text          0x0000000000000000       0x34 /usr/lib/gcc/arm-none-eabi/9.2.1/../../../arm-none-eabi/lib/thumb/v7e-m+fp/hard/libc_nano.a(lib_a-fini.o)
 .data          0x0000000000000000        0x0 /usr/lib/gcc/arm-none-eabi/9.2.1/../../../arm-none-eabi/lib/thumb/v7e-m+fp/hard/libc_nano.a(lib_a-fini.o)
 .bss           0x0000000000000000        0x0 /usr/lib/gcc/arm-none-eabi/9.2.1/../../../arm-none-eabi/lib/thumb/v7e-m+fp/hard/libc_nano.a(lib_a-fini.o)
 .debug_info    0x0000000000000000      0x102 /usr/lib/gcc/arm-none-eabi/9.2.1/../../../arm-none-eabi/lib/thumb/v7e-m+fp/hard/libc_nano.a(lib_a-fini.o)
 .debug_abbrev  0x0000000000000000       0xcf /usr/lib/gcc/arm-none-eabi/9.2.1/../../../arm-none-eabi/lib/thumb/v7e-m+fp/hard/libc_nano.a(lib_a-fini.o)
 .debug_loc     0x0000000000000000       0x68 /usr/lib/gcc/arm-none-eabi/9.2.1/../../../arm-none-eabi/lib/thumb/v7e-m+fp/hard/libc_nano.a(lib_a-fini.o)
 .debug_aranges
                0x0000000000000000       0x20 /usr/lib/gcc/arm-none-eabi/9.2.1/../../../arm-none-eabi/lib/thumb/v7e-m+fp/hard/libc_nano.a(lib_a-fini.o)
 .debug_line    0x0000000000000000       0xd7 /usr/lib/gcc/arm-none-eabi/9.2.1/../../../arm-none-eabi/lib/thumb/v7e-m+fp/hard/libc_nano.a(lib_a-fini.o)
 .debug_str     0x0000000000000000      0x1ff /usr/lib/gcc/arm-none-eabi/9.2.1/../../../arm-none-eabi/lib/thumb/v7e-m+fp/hard/libc_nano.a(lib_a-fini.o)
 .comment       0x0000000000000000       0x4f /usr/lib/gcc/arm-none-eabi/9.2.1/../../../arm-none-eabi/lib/thumb/v7e-m+fp/hard/libc_nano.a(lib_a-fini.o)
 .debug_frame   0x0000000000000000       0x34 /usr/lib/gcc/arm-none-eabi/9.2.1/../../../arm-none-eabi/lib/thumb/v7e-m+fp/hard/libc_nano.a(lib_a-fini.o)
 .ARM.attributes
                0x0000000000000000       0x34 /usr/lib/gcc/arm-none-eabi/9.2.1/../../../arm-none-eabi/lib/thumb/v7e-m+fp/hard/libc_nano.a(lib_a-fini.o)
 .text          0x0000000000000000        0x0 /usr/lib/gcc/arm-none-eabi/9.2.1/../../../arm-none-eabi/lib/thumb/v7e-m+fp/hard/libc_nano.a(lib_a-impure.o)
 .bss           0x0000000000000000        0x0 /usr/lib/gcc/arm-none-eabi/9.2.1/../../../arm-none-eabi/lib/thumb/v7e-m+fp/hard/libc_nano.a(lib_a-impure.o)
 .data          0x0000000000000000        0x0 /usr/lib/gcc/arm-none-eabi/9.2.1/../../../arm-none-eabi/lib/thumb/v7e-m+fp/hard/libc_nano.a(lib_a-init.o)
 .bss           0x0000000000000000        0x0 /usr/lib/gcc/arm-none-eabi/9.2.1/../../../arm-none-eabi/lib/thumb/v7e-m+fp/hard/libc_nano.a(lib_a-init.o)
 .data          0x0000000000000000        0x0 /usr/lib/gcc/arm-none-eabi/9.2.1/../../../arm-none-eabi/lib/thumb/v7e-m+fp/hard/libc_nano.a(lib_a-memset.o)
 .bss           0x0000000000000000        0x0 /usr/lib/gcc/arm-none-eabi/9.2.1/../../../arm-none-eabi/lib/thumb/v7e-m+fp/hard/libc_nano.a(lib_a-memset.o)
 .data          0x0000000000000000        0x0 /usr/lib/gcc/arm-none-eabi/9.2.1/../../../arm-none-eabi/lib/thumb/v7e-m+fp/hard/libc_nano.a(lib_a-printf.o)
 .bss           0x0000000000000000        0x0 /usr/lib/gcc/arm-none-eabi/9.2.1/../../../arm-none-eabi/lib/thumb/v7e-m+fp/hard/libc_nano.a(lib_a-printf.o)
 .data          0x0000000000000000        0x0 /usr/lib/gcc/arm-none-eabi/9.2.1/../../../arm-none-eabi/lib/thumb/v7e-m+fp/hard/libc_nano.a(lib_a-puts.o)
 .bss           0x0000000000000000        0x0 /usr/lib/gcc/arm-none-eabi/9.2.1/../../../arm-none-eabi/lib/thumb/v7e-m+fp/hard/libc_nano.a(lib_a-puts.o)
 .data          0x0000000000000000        0x0 /usr/lib/gcc/arm-none-eabi/9.2.1/../../../arm-none-eabi/lib/thumb/v7e-m+fp/hard/libc_nano.a(lib_a-strlen.o)
 .bss           0x0000000000000000        0x0 /usr/lib/gcc/arm-none-eabi/9.2.1/../../../arm-none-eabi/lib/thumb/v7e-m+fp/hard/libc_nano.a(lib_a-strlen.o)
 .data          0x0000000000000000        0x0 /usr/lib/gcc/arm-none-eabi/9.2.1/../../../arm-none-eabi/lib/thumb/v7e-m+fp/hard/libc_nano.a(lib_a-wbuf.o)
 .bss           0x0000000000000000        0x0 /usr/lib/gcc/arm-none-eabi/9.2.1/../../../arm-none-eabi/lib/thumb/v7e-m+fp/hard/libc_nano.a(lib_a-wbuf.o)
 .data          0x0000000000000000        0x0 /usr/lib/gcc/arm-none-eabi/9.2.1/../../../arm-none-eabi/lib/thumb/v7e-m+fp/hard/libc_nano.a(lib_a-wsetup.o)
 .bss           0x0000000000000000        0x0 /usr/lib/gcc/arm-none-eabi/9.2.1/../../../arm-none-eabi/lib/thumb/v7e-m+fp/hard/libc_nano.a(lib_a-wsetup.o)
 .text          0x0000000000000000       0xa0 /usr/lib/gcc/arm-none-eabi/9.2.1/../../../arm-none-eabi/lib/thumb/v7e-m+fp/hard/libc_nano.a(lib_a-__atexit.o)
 .data          0x0000000000000000        0x4 /usr/lib/gcc/arm-none-eabi/9.2.1/../../../arm-none-eabi/lib/thumb/v7e-m+fp/hard/libc_nano.a(lib_a-__atexit.o)
 .bss           0x0000000000000000       0x8c /usr/lib/gcc/arm-none-eabi/9.2.1/../../../arm-none-eabi/lib/thumb/v7e-m+fp/hard/libc_nano.a(lib_a-__atexit.o)
 .debug_info    0x0000000000000000      0xa3c /usr/lib/gcc/arm-none-eabi/9.2.1/../../../arm-none-eabi/lib/thumb/v7e-m+fp/hard/libc_nano.a(lib_a-__atexit.o)
 .debug_abbrev  0x0000000000000000      0x261 /usr/lib/gcc/arm-none-eabi/9.2.1/../../../arm-none-eabi/lib/thumb/v7e-m+fp/hard/libc_nano.a(lib_a-__atexit.o)
 .debug_loc     0x0000000000000000      0x230 /usr/lib/gcc/arm-none-eabi/9.2.1/../../../arm-none-eabi/lib/thumb/v7e-m+fp/hard/libc_nano.a(lib_a-__atexit.o)
 .debug_aranges
                0x0000000000000000       0x20 /usr/lib/gcc/arm-none-eabi/9.2.1/../../../arm-none-eabi/lib/thumb/v7e-m+fp/hard/libc_nano.a(lib_a-__atexit.o)
 .debug_line    0x0000000000000000      0x228 /usr/lib/gcc/arm-none-eabi/9.2.1/../../../arm-none-eabi/lib/thumb/v7e-m+fp/hard/libc_nano.a(lib_a-__atexit.o)
 .debug_str     0x0000000000000000      0x680 /usr/lib/gcc/arm-none-eabi/9.2.1/../../../arm-none-eabi/lib/thumb/v7e-m+fp/hard/libc_nano.a(lib_a-__atexit.o)
 .comment       0x0000000000000000       0x4f /usr/lib/gcc/arm-none-eabi/9.2.1/../../../arm-none-eabi/lib/thumb/v7e-m+fp/hard/libc_nano.a(lib_a-__atexit.o)
 .debug_frame   0x0000000000000000       0x34 /usr/lib/gcc/arm-none-eabi/9.2.1/../../../arm-none-eabi/lib/thumb/v7e-m+fp/hard/libc_nano.a(lib_a-__atexit.o)
 .ARM.attributes
                0x0000000000000000       0x34 /usr/lib/gcc/arm-none-eabi/9.2.1/../../../arm-none-eabi/lib/thumb/v7e-m+fp/hard/libc_nano.a(lib_a-__atexit.o)
 .text          0x0000000000000000       0x9c /usr/lib/gcc/arm-none-eabi/9.2.1/../../../arm-none-eabi/lib/thumb/v7e-m+fp/hard/libc_nano.a(lib_a-__call_atexit.o)
 .data          0x0000000000000000        0x0 /usr/lib/gcc/arm-none-eabi/9.2.1/../../../arm-none-eabi/lib/thumb/v7e-m+fp/hard/libc_nano.a(lib_a-__call_atexit.o)
 .bss           0x0000000000000000        0x4 /usr/lib/gcc/arm-none-eabi/9.2.1/../../../arm-none-eabi/lib/thumb/v7e-m+fp/hard/libc_nano.a(lib_a-__call_atexit.o)
 .debug_info    0x0000000000000000      0xa10 /usr/lib/gcc/arm-none-eabi/9.2.1/../../../arm-none-eabi/lib/thumb/v7e-m+fp/hard/libc_nano.a(lib_a-__call_atexit.o)
 .debug_abbrev  0x0000000000000000      0x237 /usr/lib/gcc/arm-none-eabi/9.2.1/../../../arm-none-eabi/lib/thumb/v7e-m+fp/hard/libc_nano.a(lib_a-__call_atexit.o)
 .debug_loc     0x0000000000000000      0x13f /usr/lib/gcc/arm-none-eabi/9.2.1/../../../arm-none-eabi/lib/thumb/v7e-m+fp/hard/libc_nano.a(lib_a-__call_atexit.o)
 .debug_aranges
                0x0000000000000000       0x20 /usr/lib/gcc/arm-none-eabi/9.2.1/../../../arm-none-eabi/lib/thumb/v7e-m+fp/hard/libc_nano.a(lib_a-__call_atexit.o)
 .debug_ranges  0x0000000000000000       0x28 /usr/lib/gcc/arm-none-eabi/9.2.1/../../../arm-none-eabi/lib/thumb/v7e-m+fp/hard/libc_nano.a(lib_a-__call_atexit.o)
 .debug_line    0x0000000000000000      0x22a /usr/lib/gcc/arm-none-eabi/9.2.1/../../../arm-none-eabi/lib/thumb/v7e-m+fp/hard/libc_nano.a(lib_a-__call_atexit.o)
 .debug_str     0x0000000000000000      0x62b /usr/lib/gcc/arm-none-eabi/9.2.1/../../../arm-none-eabi/lib/thumb/v7e-m+fp/hard/libc_nano.a(lib_a-__call_atexit.o)
 .comment       0x0000000000000000       0x4f /usr/lib/gcc/arm-none-eabi/9.2.1/../../../arm-none-eabi/lib/thumb/v7e-m+fp/hard/libc_nano.a(lib_a-__call_atexit.o)
 .debug_frame   0x0000000000000000       0x40 /usr/lib/gcc/arm-none-eabi/9.2.1/../../../arm-none-eabi/lib/thumb/v7e-m+fp/hard/libc_nano.a(lib_a-__call_atexit.o)
 .ARM.attributes
                0x0000000000000000       0x34 /usr/lib/gcc/arm-none-eabi/9.2.1/../../../arm-none-eabi/lib/thumb/v7e-m+fp/hard/libc_nano.a(lib_a-__call_atexit.o)
 .data          0x0000000000000000        0x0 /usr/lib/gcc/arm-none-eabi/9.2.1/../../../arm-none-eabi/lib/thumb/v7e-m+fp/hard/libc_nano.a(lib_a-fflush.o)
 .bss           0x0000000000000000        0x0 /usr/lib/gcc/arm-none-eabi/9.2.1/../../../arm-none-eabi/lib/thumb/v7e-m+fp/hard/libc_nano.a(lib_a-fflush.o)
 .data          0x0000000000000000        0x0 /usr/lib/gcc/arm-none-eabi/9.2.1/../../../arm-none-eabi/lib/thumb/v7e-m+fp/hard/libc_nano.a(lib_a-findfp.o)
 .bss           0x0000000000000000        0x0 /usr/lib/gcc/arm-none-eabi/9.2.1/../../../arm-none-eabi/lib/thumb/v7e-m+fp/hard/libc_nano.a(lib_a-findfp.o)
 .data          0x0000000000000000        0x0 /usr/lib/gcc/arm-none-eabi/9.2.1/../../../arm-none-eabi/lib/thumb/v7e-m+fp/hard/libc_nano.a(lib_a-fwalk.o)
 .bss           0x0000000000000000        0x0 /usr/lib/gcc/arm-none-eabi/9.2.1/../../../arm-none-eabi/lib/thumb/v7e-m+fp/hard/libc_nano.a(lib_a-fwalk.o)
 .data          0x0000000000000000        0x0 /usr/lib/gcc/arm-none-eabi/9.2.1/../../../arm-none-eabi/lib/thumb/v7e-m+fp/hard/libc_nano.a(lib_a-makebuf.o)
 .bss           0x0000000000000000        0x0 /usr/lib/gcc/arm-none-eabi/9.2.1/../../../arm-none-eabi/lib/thumb/v7e-m+fp/hard/libc_nano.a(lib_a-makebuf.o)
 .data          0x0000000000000000        0x0 /usr/lib/gcc/arm-none-eabi/9.2.1/../../../arm-none-eabi/lib/thumb/v7e-m+fp/hard/libc_nano.a(lib_a-nano-freer.o)
 .bss           0x0000000000000000        0x0 /usr/lib/gcc/arm-none-eabi/9.2.1/../../../arm-none-eabi/lib/thumb/v7e-m+fp/hard/libc_nano.a(lib_a-nano-freer.o)
 .data          0x0000000000000000        0x0 /usr/lib/gcc/arm-none-eabi/9.2.1/../../../arm-none-eabi/lib/thumb/v7e-m+fp/hard/libc_nano.a(lib_a-nano-mallocr.o)
 .data          0x0000000000000000        0x0 /usr/lib/gcc/arm-none-eabi/9.2.1/../../../arm-none-eabi/lib/thumb/v7e-m+fp/hard/libc_nano.a(lib_a-nano-vfprintf.o)
 .bss           0x0000000000000000        0x0 /usr/lib/gcc/arm-none-eabi/9.2.1/../../../arm-none-eabi/lib/thumb/v7e-m+fp/hard/libc_nano.a(lib_a-nano-vfprintf.o)
 .data          0x0000000000000000        0x0 /usr/lib/gcc/arm-none-eabi/9.2.1/../../../arm-none-eabi/lib/thumb/v7e-m+fp/hard/libc_nano.a(lib_a-nano-vfprintf_i.o)
 .bss           0x0000000000000000        0x0 /usr/lib/gcc/arm-none-eabi/9.2.1/../../../arm-none-eabi/lib/thumb/v7e-m+fp/hard/libc_nano.a(lib_a-nano-vfprintf_i.o)
 .data          0x0000000000000000        0x0 /usr/lib/gcc/arm-none-eabi/9.2.1/../../../arm-none-eabi/lib/thumb/v7e-m+fp/hard/libc_nano.a(lib_a-sbrkr.o)
 .bss           0x0000000000000000        0x0 /usr/lib/gcc/arm-none-eabi/9.2.1/../../../arm-none-eabi/lib/thumb/v7e-m+fp/hard/libc_nano.a(lib_a-sbrkr.o)
 .data          0x0000000000000000        0x0 /usr/lib/gcc/arm-none-eabi/9.2.1/../../../arm-none-eabi/lib/thumb/v7e-m+fp/hard/libc_nano.a(lib_a-stdio.o)
 .bss           0x0000000000000000        0x0 /usr/lib/gcc/arm-none-eabi/9.2.1/../../../arm-none-eabi/lib/thumb/v7e-m+fp/hard/libc_nano.a(lib_a-stdio.o)
 .data          0x0000000000000000        0x0 /usr/lib/gcc/arm-none-eabi/9.2.1/../../../arm-none-eabi/lib/thumb/v7e-m+fp/hard/libc_nano.a(lib_a-writer.o)
 .bss           0x0000000000000000        0x0 /usr/lib/gcc/arm-none-eabi/9.2.1/../../../arm-none-eabi/lib/thumb/v7e-m+fp/hard/libc_nano.a(lib_a-writer.o)
 .data          0x0000000000000000        0x0 /usr/lib/gcc/arm-none-eabi/9.2.1/../../../arm-none-eabi/lib/thumb/v7e-m+fp/hard/libc_nano.a(lib_a-closer.o)
 .bss           0x0000000000000000        0x0 /usr/lib/gcc/arm-none-eabi/9.2.1/../../../arm-none-eabi/lib/thumb/v7e-m+fp/hard/libc_nano.a(lib_a-closer.o)
 .data          0x0000000000000000        0x0 /usr/lib/gcc/arm-none-eabi/9.2.1/../../../arm-none-eabi/lib/thumb/v7e-m+fp/hard/libc_nano.a(lib_a-fstatr.o)
 .bss           0x0000000000000000        0x0 /usr/lib/gcc/arm-none-eabi/9.2.1/../../../arm-none-eabi/lib/thumb/v7e-m+fp/hard/libc_nano.a(lib_a-fstatr.o)
 .data          0x0000000000000000        0x0 /usr/lib/gcc/arm-none-eabi/9.2.1/../../../arm-none-eabi/lib/thumb/v7e-m+fp/hard/libc_nano.a(lib_a-fvwrite.o)
 .bss           0x0000000000000000        0x0 /usr/lib/gcc/arm-none-eabi/9.2.1/../../../arm-none-eabi/lib/thumb/v7e-m+fp/hard/libc_nano.a(lib_a-fvwrite.o)
 .data          0x0000000000000000        0x0 /usr/lib/gcc/arm-none-eabi/9.2.1/../../../arm-none-eabi/lib/thumb/v7e-m+fp/hard/libc_nano.a(lib_a-isattyr.o)
 .bss           0x0000000000000000        0x0 /usr/lib/gcc/arm-none-eabi/9.2.1/../../../arm-none-eabi/lib/thumb/v7e-m+fp/hard/libc_nano.a(lib_a-isattyr.o)
 .data          0x0000000000000000        0x0 /usr/lib/gcc/arm-none-eabi/9.2.1/../../../arm-none-eabi/lib/thumb/v7e-m+fp/hard/libc_nano.a(lib_a-lseekr.o)
 .bss           0x0000000000000000        0x0 /usr/lib/gcc/arm-none-eabi/9.2.1/../../../arm-none-eabi/lib/thumb/v7e-m+fp/hard/libc_nano.a(lib_a-lseekr.o)
 .data          0x0000000000000000        0x0 /usr/lib/gcc/arm-none-eabi/9.2.1/../../../arm-none-eabi/lib/thumb/v7e-m+fp/hard/libc_nano.a(lib_a-memchr.o)
 .bss           0x0000000000000000        0x0 /usr/lib/gcc/arm-none-eabi/9.2.1/../../../arm-none-eabi/lib/thumb/v7e-m+fp/hard/libc_nano.a(lib_a-memchr.o)
 .data          0x0000000000000000        0x0 /usr/lib/gcc/arm-none-eabi/9.2.1/../../../arm-none-eabi/lib/thumb/v7e-m+fp/hard/libc_nano.a(lib_a-memcpy.o)
 .bss           0x0000000000000000        0x0 /usr/lib/gcc/arm-none-eabi/9.2.1/../../../arm-none-eabi/lib/thumb/v7e-m+fp/hard/libc_nano.a(lib_a-memcpy.o)
 .data          0x0000000000000000        0x0 /usr/lib/gcc/arm-none-eabi/9.2.1/../../../arm-none-eabi/lib/thumb/v7e-m+fp/hard/libc_nano.a(lib_a-memmove.o)
 .bss           0x0000000000000000        0x0 /usr/lib/gcc/arm-none-eabi/9.2.1/../../../arm-none-eabi/lib/thumb/v7e-m+fp/hard/libc_nano.a(lib_a-memmove.o)
 .data          0x0000000000000000        0x0 /usr/lib/gcc/arm-none-eabi/9.2.1/../../../arm-none-eabi/lib/thumb/v7e-m+fp/hard/libc_nano.a(lib_a-mlock.o)
 .bss           0x0000000000000000        0x0 /usr/lib/gcc/arm-none-eabi/9.2.1/../../../arm-none-eabi/lib/thumb/v7e-m+fp/hard/libc_nano.a(lib_a-mlock.o)
 .data          0x0000000000000000        0x0 /usr/lib/gcc/arm-none-eabi/9.2.1/../../../arm-none-eabi/lib/thumb/v7e-m+fp/hard/libc_nano.a(lib_a-nano-reallocr.o)
 .bss           0x0000000000000000        0x0 /usr/lib/gcc/arm-none-eabi/9.2.1/../../../arm-none-eabi/lib/thumb/v7e-m+fp/hard/libc_nano.a(lib_a-nano-reallocr.o)
 .data          0x0000000000000000        0x0 /usr/lib/gcc/arm-none-eabi/9.2.1/../../../arm-none-eabi/lib/thumb/v7e-m+fp/hard/libc_nano.a(lib_a-readr.o)
 .bss           0x0000000000000000        0x0 /usr/lib/gcc/arm-none-eabi/9.2.1/../../../arm-none-eabi/lib/thumb/v7e-m+fp/hard/libc_nano.a(lib_a-readr.o)
 .text          0x0000000000000000       0xe8 /usr/lib/gcc/arm-none-eabi/9.2.1/../../../arm-none-eabi/lib/thumb/v7e-m+fp/hard/libc_nano.a(lib_a-reent.o)
 .data          0x0000000000000000        0x0 /usr/lib/gcc/arm-none-eabi/9.2.1/../../../arm-none-eabi/lib/thumb/v7e-m+fp/hard/libc_nano.a(lib_a-reent.o)
 .bss           0x0000000000000000        0x0 /usr/lib/gcc/arm-none-eabi/9.2.1/../../../arm-none-eabi/lib/thumb/v7e-m+fp/hard/libc_nano.a(lib_a-reent.o)
 .data          0x0000000000000000        0x0 /usr/lib/gcc/arm-none-eabi/9.2.1/../../../arm-none-eabi/lib/thumb/v7e-m+fp/hard/libc_nano.a(lib_a-nano-msizer.o)
 .bss           0x0000000000000000        0x0 /usr/lib/gcc/arm-none-eabi/9.2.1/../../../arm-none-eabi/lib/thumb/v7e-m+fp/hard/libc_nano.a(lib_a-nano-msizer.o)
 .data          0x0000000000000000        0x0 /usr/lib/gcc/arm-none-eabi/9.2.1/../../../arm-none-eabi/lib/thumb/v7e-m+fp/hard/libm.a(lib_a-w_sqrt.o)
 .bss           0x0000000000000000        0x0 /usr/lib/gcc/arm-none-eabi/9.2.1/../../../arm-none-eabi/lib/thumb/v7e-m+fp/hard/libm.a(lib_a-w_sqrt.o)
 .data          0x0000000000000000        0x0 /usr/lib/gcc/arm-none-eabi/9.2.1/../../../arm-none-eabi/lib/thumb/v7e-m+fp/hard/libm.a(lib_a-e_sqrt.o)
 .bss           0x0000000000000000        0x0 /usr/lib/gcc/arm-none-eabi/9.2.1/../../../arm-none-eabi/lib/thumb/v7e-m+fp/hard/libm.a(lib_a-e_sqrt.o)
 .text          0x0000000000000000        0x0 /usr/lib/gcc/arm-none-eabi/9.2.1/../../../arm-none-eabi/lib/thumb/v7e-m+fp/hard/libm.a(lib_a-s_lib_ver.o)
 .bss           0x0000000000000000        0x0 /usr/lib/gcc/arm-none-eabi/9.2.1/../../../arm-none-eabi/lib/thumb/v7e-m+fp/hard/libm.a(lib_a-s_lib_ver.o)
 .data          0x0000000000000000        0x0 /usr/lib/gcc/arm-none-eabi/9.2.1/../../../arm-none-eabi/lib/thumb/v7e-m+fp/hard/libnosys.a(close.o)
 .bss           0x0000000000000000        0x0 /usr/lib/gcc/arm-none-eabi/9.2.1/../../../arm-none-eabi/lib/thumb/v7e-m+fp/hard/libnosys.a(close.o)
 .data          0x0000000000000000        0x0 /usr/lib/gcc/arm-none-eabi/9.2.1/../../../arm-none-eabi/lib/thumb/v7e-m+fp/hard/libnosys.a(fstat.o)
 .bss           0x0000000000000000        0x0 /usr/lib/gcc/arm-none-eabi/9.2.1/../../../arm-none-eabi/lib/thumb/v7e-m+fp/hard/libnosys.a(fstat.o)
 .data          0x0000000000000000        0x0 /usr/lib/gcc/arm-none-eabi/9.2.1/../../../arm-none-eabi/lib/thumb/v7e-m+fp/hard/libnosys.a(isatty.o)
 .bss           0x0000000000000000        0x0 /usr/lib/gcc/arm-none-eabi/9.2.1/../../../arm-none-eabi/lib/thumb/v7e-m+fp/hard/libnosys.a(isatty.o)
 .data          0x0000000000000000        0x0 /usr/lib/gcc/arm-none-eabi/9.2.1/../../../arm-none-eabi/lib/thumb/v7e-m+fp/hard/libnosys.a(lseek.o)
 .bss           0x0000000000000000        0x0 /usr/lib/gcc/arm-none-eabi/9.2.1/../../../arm-none-eabi/lib/thumb/v7e-m+fp/hard/libnosys.a(lseek.o)
 .data          0x0000000000000000        0x0 /usr/lib/gcc/arm-none-eabi/9.2.1/../../../arm-none-eabi/lib/thumb/v7e-m+fp/hard/libnosys.a(read.o)
 .bss           0x0000000000000000        0x0 /usr/lib/gcc/arm-none-eabi/9.2.1/../../../arm-none-eabi/lib/thumb/v7e-m+fp/hard/libnosys.a(read.o)
 .data          0x0000000000000000        0x0 /usr/lib/gcc/arm-none-eabi/9.2.1/../../../arm-none-eabi/lib/thumb/v7e-m+fp/hard/libnosys.a(sbrk.o)
 .data          0x0000000000000000        0x0 /usr/lib/gcc/arm-none-eabi/9.2.1/../../../arm-none-eabi/lib/thumb/v7e-m+fp/hard/libnosys.a(write.o)
 .bss           0x0000000000000000        0x0 /usr/lib/gcc/arm-none-eabi/9.2.1/../../../arm-none-eabi/lib/thumb/v7e-m+fp/hard/libnosys.a(write.o)
 .text          0x0000000000000000        0x4 /usr/lib/gcc/arm-none-eabi/9.2.1/../../../arm-none-eabi/lib/thumb/v7e-m+fp/hard/libnosys.a(_exit.o)
 .data          0x0000000000000000        0x0 /usr/lib/gcc/arm-none-eabi/9.2.1/../../../arm-none-eabi/lib/thumb/v7e-m+fp/hard/libnosys.a(_exit.o)
 .bss           0x0000000000000000        0x0 /usr/lib/gcc/arm-none-eabi/9.2.1/../../../arm-none-eabi/lib/thumb/v7e-m+fp/hard/libnosys.a(_exit.o)
 .debug_info    0x0000000000000000       0xa3 /usr/lib/gcc/arm-none-eabi/9.2.1/../../../arm-none-eabi/lib/thumb/v7e-m+fp/hard/libnosys.a(_exit.o)
 .debug_abbrev  0x0000000000000000       0x6a /usr/lib/gcc/arm-none-eabi/9.2.1/../../../arm-none-eabi/lib/thumb/v7e-m+fp/hard/libnosys.a(_exit.o)
 .debug_loc     0x0000000000000000       0x15 /usr/lib/gcc/arm-none-eabi/9.2.1/../../../arm-none-eabi/lib/thumb/v7e-m+fp/hard/libnosys.a(_exit.o)
 .debug_aranges
                0x0000000000000000       0x20 /usr/lib/gcc/arm-none-eabi/9.2.1/../../../arm-none-eabi/lib/thumb/v7e-m+fp/hard/libnosys.a(_exit.o)
 .debug_line    0x0000000000000000       0x6e /usr/lib/gcc/arm-none-eabi/9.2.1/../../../arm-none-eabi/lib/thumb/v7e-m+fp/hard/libnosys.a(_exit.o)
 .debug_str     0x0000000000000000      0x19f /usr/lib/gcc/arm-none-eabi/9.2.1/../../../arm-none-eabi/lib/thumb/v7e-m+fp/hard/libnosys.a(_exit.o)
 .comment       0x0000000000000000       0x4f /usr/lib/gcc/arm-none-eabi/9.2.1/../../../arm-none-eabi/lib/thumb/v7e-m+fp/hard/libnosys.a(_exit.o)
 .debug_frame   0x0000000000000000       0x20 /usr/lib/gcc/arm-none-eabi/9.2.1/../../../arm-none-eabi/lib/thumb/v7e-m+fp/hard/libnosys.a(_exit.o)
 .ARM.attributes
                0x0000000000000000       0x34 /usr/lib/gcc/arm-none-eabi/9.2.1/../../../arm-none-eabi/lib/thumb/v7e-m+fp/hard/libnosys.a(_exit.o)
 .text          0x0000000000000000      0x254 /usr/lib/gcc/arm-none-eabi/9.2.1/thumb/v7e-m+fp/hard/libgcc.a(_arm_muldf3.o)
 .data          0x0000000000000000        0x0 /usr/lib/gcc/arm-none-eabi/9.2.1/thumb/v7e-m+fp/hard/libgcc.a(_arm_muldf3.o)
 .bss           0x0000000000000000        0x0 /usr/lib/gcc/arm-none-eabi/9.2.1/thumb/v7e-m+fp/hard/libgcc.a(_arm_muldf3.o)
 .debug_line    0x0000000000000000      0x10c /usr/lib/gcc/arm-none-eabi/9.2.1/thumb/v7e-m+fp/hard/libgcc.a(_arm_muldf3.o)
 .debug_info    0x0000000000000000       0x26 /usr/lib/gcc/arm-none-eabi/9.2.1/thumb/v7e-m+fp/hard/libgcc.a(_arm_muldf3.o)
 .debug_abbrev  0x0000000000000000       0x14 /usr/lib/gcc/arm-none-eabi/9.2.1/thumb/v7e-m+fp/hard/libgcc.a(_arm_muldf3.o)
 .debug_aranges
                0x0000000000000000       0x20 /usr/lib/gcc/arm-none-eabi/9.2.1/thumb/v7e-m+fp/hard/libgcc.a(_arm_muldf3.o)
 .debug_str     0x0000000000000000       0xa8 /usr/lib/gcc/arm-none-eabi/9.2.1/thumb/v7e-m+fp/hard/libgcc.a(_arm_muldf3.o)
 .debug_frame   0x0000000000000000       0x30 /usr/lib/gcc/arm-none-eabi/9.2.1/thumb/v7e-m+fp/hard/libgcc.a(_arm_muldf3.o)
 .ARM.attributes
                0x0000000000000000       0x1e /usr/lib/gcc/arm-none-eabi/9.2.1/thumb/v7e-m+fp/hard/libgcc.a(_arm_muldf3.o)
 .data          0x0000000000000000        0x0 /usr/lib/gcc/arm-none-eabi/9.2.1/thumb/v7e-m+fp/hard/libgcc.a(_arm_addsubdf3.o)
 .bss           0x0000000000000000        0x0 /usr/lib/gcc/arm-none-eabi/9.2.1/thumb/v7e-m+fp/hard/libgcc.a(_arm_addsubdf3.o)
 .data          0x0000000000000000        0x0 /usr/lib/gcc/arm-none-eabi/9.2.1/thumb/v7e-m+fp/hard/libgcc.a(_arm_muldivdf3.o)
 .bss           0x0000000000000000        0x0 /usr/lib/gcc/arm-none-eabi/9.2.1/thumb/v7e-m+fp/hard/libgcc.a(_arm_muldivdf3.o)
 .data          0x0000000000000000        0x0 /usr/lib/gcc/arm-none-eabi/9.2.1/thumb/v7e-m+fp/hard/libgcc.a(_arm_cmpdf2.o)
 .bss           0x0000000000000000        0x0 /usr/lib/gcc/arm-none-eabi/9.2.1/thumb/v7e-m+fp/hard/libgcc.a(_arm_cmpdf2.o)
 .data          0x0000000000000000        0x0 /usr/lib/gcc/arm-none-eabi/9.2.1/thumb/v7e-m+fp/hard/libgcc.a(_arm_unorddf2.o)
 .bss           0x0000000000000000        0x0 /usr/lib/gcc/arm-none-eabi/9.2.1/thumb/v7e-m+fp/hard/libgcc.a(_arm_unorddf2.o)
 .data          0x0000000000000000        0x0 /usr/lib/gcc/arm-none-eabi/9.2.1/thumb/v7e-m+fp/hard/libgcc.a(_arm_fixunsdfsi.o)
 .bss           0x0000000000000000        0x0 /usr/lib/gcc/arm-none-eabi/9.2.1/thumb/v7e-m+fp/hard/libgcc.a(_arm_fixunsdfsi.o)
 .data          0x0000000000000000        0x0 /usr/lib/gcc/arm-none-eabi/9.2.1/../../../arm-none-eabi/lib/thumb/v7e-m+fp/hard/libc_nano.a(lib_a-errno.o)
 .bss           0x0000000000000000        0x0 /usr/lib/gcc/arm-none-eabi/9.2.1/../../../arm-none-eabi/lib/thumb/v7e-m+fp/hard/libc_nano.a(lib_a-errno.o)
 .text          0x0000000000000000        0x0 /usr/lib/gcc/arm-none-eabi/9.2.1/thumb/v7e-m+fp/hard/crtend.o
 .data          0x0000000000000000        0x0 /usr/lib/gcc/arm-none-eabi/9.2.1/thumb/v7e-m+fp/hard/crtend.o
 .bss           0x0000000000000000        0x0 /usr/lib/gcc/arm-none-eabi/9.2.1/thumb/v7e-m+fp/hard/crtend.o
 .eh_frame      0x0000000000000000        0x4 /usr/lib/gcc/arm-none-eabi/9.2.1/thumb/v7e-m+fp/hard/crtend.o
 .text          0x0000000000000000        0x0 /usr/lib/gcc/arm-none-eabi/9.2.1/thumb/v7e-m+fp/hard/crtn.o
 .data          0x0000000000000000        0x0 /usr/lib/gcc/arm-none-eabi/9.2.1/thumb/v7e-m+fp/hard/crtn.o
 .bss           0x0000000000000000        0x0 /usr/lib/gcc/arm-none-eabi/9.2.1/thumb/v7e-m+fp/hard/crtn.o

Memory Configuration

Name             Origin             Length             Attributes
RAM              0x0000000020000000 0x0000000000020000 xrw
CCMRAM           0x0000000010000000 0x0000000000010000 xrw
FLASH            0x0000000008000000 0x0000000000100000 xr
*default*        0x0000000000000000 0xffffffffffffffff

Linker script and memory map

LOAD /usr/lib/gcc/arm-none-eabi/9.2.1/thumb/v7e-m+fp/hard/crti.o
LOAD /usr/lib/gcc/arm-none-eabi/9.2.1/thumb/v7e-m+fp/hard/crtbegin.o
LOAD /usr/lib/gcc/arm-none-eabi/9.2.1/../../../arm-none-eabi/lib/thumb/v7e-m+fp/hard/crt0.o
LOAD build/main.o
LOAD build/delay.o
LOAD build/24c02.o
LOAD build/ctpiic.o
LOAD build/exti.o
LOAD build/ft5426.o
LOAD build/GT911.o
LOAD build/gui.o
LOAD build/iic.o
LOAD build/key.o
LOAD build/lcd.o
LOAD build/led.o
LOAD build/rtp.o
LOAD build/test.o
LOAD build/touch.o
LOAD build/usart.o
LOAD build/stm32f4xx_it.o
LOAD build/misc.o
LOAD build/stm32f4xx_dma.o
LOAD build/stm32f4xx_exti.o
LOAD build/stm32f4xx_fsmc.o
LOAD build/stm32f4xx_gpio.o
LOAD build/stm32f4xx_i2c.o
LOAD build/stm32f4xx_iwdg.o
LOAD build/stm32f4xx_pwr.o
LOAD build/stm32f4xx_rcc.o
LOAD build/stm32f4xx_rtc.o
LOAD build/stm32f4xx_sdio.o
LOAD build/stm32f4xx_spi.o
LOAD build/stm32f4xx_syscfg.o
LOAD build/stm32f4xx_tim.o
LOAD build/stm32f4xx_usart.o
LOAD build/system_stm32f4xx.o
LOAD build/startup_stm32f407xx.o
LOAD /usr/lib/gcc/arm-none-eabi/9.2.1/../../../arm-none-eabi/lib/thumb/v7e-m+fp/hard/libc_nano.a
LOAD /usr/lib/gcc/arm-none-eabi/9.2.1/../../../arm-none-eabi/lib/thumb/v7e-m+fp/hard/libm.a
LOAD /usr/lib/gcc/arm-none-eabi/9.2.1/../../../arm-none-eabi/lib/thumb/v7e-m+fp/hard/libnosys.a
START GROUP
LOAD /usr/lib/gcc/arm-none-eabi/9.2.1/thumb/v7e-m+fp/hard/libgcc.a
LOAD /usr/lib/gcc/arm-none-eabi/9.2.1/../../../arm-none-eabi/lib/thumb/v7e-m+fp/hard/libc_nano.a
END GROUP
START GROUP
LOAD /usr/lib/gcc/arm-none-eabi/9.2.1/thumb/v7e-m+fp/hard/libgcc.a
LOAD /usr/lib/gcc/arm-none-eabi/9.2.1/../../../arm-none-eabi/lib/thumb/v7e-m+fp/hard/libc_nano.a
END GROUP
LOAD /usr/lib/gcc/arm-none-eabi/9.2.1/thumb/v7e-m+fp/hard/crtend.o
LOAD /usr/lib/gcc/arm-none-eabi/9.2.1/thumb/v7e-m+fp/hard/crtn.o
                0x0000000020020000                _estack = 0x20020000
                0x0000000000000200                _Min_Heap_Size = 0x200
                0x0000000000000400                _Min_Stack_Size = 0x400

.isr_vector     0x0000000008000000      0x188
                0x0000000008000000                . = ALIGN (0x4)
 *(.isr_vector)
 .isr_vector    0x0000000008000000      0x188 build/startup_stm32f407xx.o
                0x0000000008000000                g_pfnVectors
                0x0000000008000188                . = ALIGN (0x4)

.text           0x00000000080001c0     0x9374
                0x00000000080001c0                . = ALIGN (0x4)
 *(.text)
 .text          0x00000000080001c0       0x88 /usr/lib/gcc/arm-none-eabi/9.2.1/thumb/v7e-m+fp/hard/crtbegin.o
 .text          0x0000000008000248       0x48 /usr/lib/gcc/arm-none-eabi/9.2.1/../../../arm-none-eabi/lib/thumb/v7e-m+fp/hard/libc_nano.a(lib_a-init.o)
                0x0000000008000248                __libc_init_array
 .text          0x0000000008000290       0xa0 /usr/lib/gcc/arm-none-eabi/9.2.1/../../../arm-none-eabi/lib/thumb/v7e-m+fp/hard/libc_nano.a(lib_a-memset.o)
                0x0000000008000290                memset
 .text          0x0000000008000330       0x68 /usr/lib/gcc/arm-none-eabi/9.2.1/../../../arm-none-eabi/lib/thumb/v7e-m+fp/hard/libc_nano.a(lib_a-printf.o)
                0x0000000008000330                _printf_r
                0x0000000008000330                _iprintf_r
                0x0000000008000360                printf
                0x0000000008000360                iprintf
 .text          0x0000000008000398       0xe8 /usr/lib/gcc/arm-none-eabi/9.2.1/../../../arm-none-eabi/lib/thumb/v7e-m+fp/hard/libc_nano.a(lib_a-puts.o)
                0x0000000008000398                _puts_r
                0x0000000008000470                puts
 .text          0x0000000008000480       0xdc /usr/lib/gcc/arm-none-eabi/9.2.1/../../../arm-none-eabi/lib/thumb/v7e-m+fp/hard/libc_nano.a(lib_a-strlen.o)
                0x0000000008000480                strlen
 .text          0x000000000800055c       0xc0 /usr/lib/gcc/arm-none-eabi/9.2.1/../../../arm-none-eabi/lib/thumb/v7e-m+fp/hard/libc_nano.a(lib_a-wbuf.o)
                0x000000000800055c                __swbuf_r
                0x000000000800060c                __swbuf
 .text          0x000000000800061c      0x100 /usr/lib/gcc/arm-none-eabi/9.2.1/../../../arm-none-eabi/lib/thumb/v7e-m+fp/hard/libc_nano.a(lib_a-wsetup.o)
                0x000000000800061c                __swsetup_r
 .text          0x000000000800071c      0x1b0 /usr/lib/gcc/arm-none-eabi/9.2.1/../../../arm-none-eabi/lib/thumb/v7e-m+fp/hard/libc_nano.a(lib_a-fflush.o)
                0x000000000800071c                __sflush_r
                0x0000000008000848                _fflush_r
                0x00000000080008a8                fflush
 .text          0x00000000080008cc      0x210 /usr/lib/gcc/arm-none-eabi/9.2.1/../../../arm-none-eabi/lib/thumb/v7e-m+fp/hard/libc_nano.a(lib_a-findfp.o)
                0x00000000080008d0                _cleanup_r
                0x00000000080008e0                __sfmoreglue
                0x0000000008000910                __sfp
                0x0000000008000a88                _cleanup
                0x0000000008000a9c                __sinit
                0x0000000008000aa4                __sfp_lock_acquire
                0x0000000008000aa8                __sfp_lock_release
                0x0000000008000aac                __sinit_lock_acquire
                0x0000000008000ab0                __sinit_lock_release
                0x0000000008000ab4                __fp_lock_all
                0x0000000008000ac8                __fp_unlock_all
 .text          0x0000000008000adc       0xa0 /usr/lib/gcc/arm-none-eabi/9.2.1/../../../arm-none-eabi/lib/thumb/v7e-m+fp/hard/libc_nano.a(lib_a-fwalk.o)
                0x0000000008000adc                _fwalk
                0x0000000008000b28                _fwalk_reent
 .text          0x0000000008000b7c       0xf0 /usr/lib/gcc/arm-none-eabi/9.2.1/../../../arm-none-eabi/lib/thumb/v7e-m+fp/hard/libc_nano.a(lib_a-makebuf.o)
                0x0000000008000b7c                __swhatbuf_r
                0x0000000008000bd8                __smakebuf_r
 .text          0x0000000008000c6c       0xac /usr/lib/gcc/arm-none-eabi/9.2.1/../../../arm-none-eabi/lib/thumb/v7e-m+fp/hard/libc_nano.a(lib_a-nano-freer.o)
                0x0000000008000c6c                _free_r
 .text          0x0000000008000d18       0xc8 /usr/lib/gcc/arm-none-eabi/9.2.1/../../../arm-none-eabi/lib/thumb/v7e-m+fp/hard/libc_nano.a(lib_a-nano-mallocr.o)
                0x0000000008000d18                _malloc_r
 .text          0x0000000008000de0      0x364 /usr/lib/gcc/arm-none-eabi/9.2.1/../../../arm-none-eabi/lib/thumb/v7e-m+fp/hard/libc_nano.a(lib_a-nano-vfprintf.o)
                0x0000000008000e1c                __sfputs_r
                0x0000000008000e4c                __sprint_r
                0x0000000008000e68                _vfiprintf_r
                0x0000000008000e68                _vfprintf_r
                0x000000000800112c                vfiprintf
                0x000000000800112c                vfprintf
 .text          0x0000000008001144      0x3c4 /usr/lib/gcc/arm-none-eabi/9.2.1/../../../arm-none-eabi/lib/thumb/v7e-m+fp/hard/libc_nano.a(lib_a-nano-vfprintf_i.o)
                0x0000000008001144                _printf_common
                0x0000000008001270                _printf_i
 .text          0x0000000008001508       0x24 /usr/lib/gcc/arm-none-eabi/9.2.1/../../../arm-none-eabi/lib/thumb/v7e-m+fp/hard/libc_nano.a(lib_a-sbrkr.o)
                0x0000000008001508                _sbrk_r
 .text          0x000000000800152c       0x90 /usr/lib/gcc/arm-none-eabi/9.2.1/../../../arm-none-eabi/lib/thumb/v7e-m+fp/hard/libc_nano.a(lib_a-stdio.o)
                0x000000000800152c                __sread
                0x0000000008001550                __seofread
                0x0000000008001554                __swrite
                0x0000000008001594                __sseek
                0x00000000080015b4                __sclose
 .text          0x00000000080015bc       0x2c /usr/lib/gcc/arm-none-eabi/9.2.1/../../../arm-none-eabi/lib/thumb/v7e-m+fp/hard/libc_nano.a(lib_a-writer.o)
                0x00000000080015bc                _write_r
 .text          0x00000000080015e8       0x24 /usr/lib/gcc/arm-none-eabi/9.2.1/../../../arm-none-eabi/lib/thumb/v7e-m+fp/hard/libc_nano.a(lib_a-closer.o)
                0x00000000080015e8                _close_r
 .text          0x000000000800160c       0x28 /usr/lib/gcc/arm-none-eabi/9.2.1/../../../arm-none-eabi/lib/thumb/v7e-m+fp/hard/libc_nano.a(lib_a-fstatr.o)
                0x000000000800160c                _fstat_r
 .text          0x0000000008001634      0x308 /usr/lib/gcc/arm-none-eabi/9.2.1/../../../arm-none-eabi/lib/thumb/v7e-m+fp/hard/libc_nano.a(lib_a-fvwrite.o)
                0x0000000008001634                __sfvwrite_r
 .text          0x000000000800193c       0x24 /usr/lib/gcc/arm-none-eabi/9.2.1/../../../arm-none-eabi/lib/thumb/v7e-m+fp/hard/libc_nano.a(lib_a-isattyr.o)
                0x000000000800193c                _isatty_r
 .text          0x0000000008001960       0x2c /usr/lib/gcc/arm-none-eabi/9.2.1/../../../arm-none-eabi/lib/thumb/v7e-m+fp/hard/libc_nano.a(lib_a-lseekr.o)
                0x0000000008001960                _lseek_r
 *fill*         0x000000000800198c        0x4 
 .text          0x0000000008001990       0xa0 /usr/lib/gcc/arm-none-eabi/9.2.1/../../../arm-none-eabi/lib/thumb/v7e-m+fp/hard/libc_nano.a(lib_a-memchr.o)
                0x0000000008001990                memchr
 .text          0x0000000008001a30      0x134 /usr/lib/gcc/arm-none-eabi/9.2.1/../../../arm-none-eabi/lib/thumb/v7e-m+fp/hard/libc_nano.a(lib_a-memcpy.o)
                0x0000000008001a30                memcpy
 .text          0x0000000008001b64       0xd0 /usr/lib/gcc/arm-none-eabi/9.2.1/../../../arm-none-eabi/lib/thumb/v7e-m+fp/hard/libc_nano.a(lib_a-memmove.o)
                0x0000000008001b64                memmove
 .text          0x0000000008001c34        0x8 /usr/lib/gcc/arm-none-eabi/9.2.1/../../../arm-none-eabi/lib/thumb/v7e-m+fp/hard/libc_nano.a(lib_a-mlock.o)
                0x0000000008001c34                __malloc_lock
                0x0000000008001c38                __malloc_unlock
 .text          0x0000000008001c3c       0x4c /usr/lib/gcc/arm-none-eabi/9.2.1/../../../arm-none-eabi/lib/thumb/v7e-m+fp/hard/libc_nano.a(lib_a-nano-reallocr.o)
                0x0000000008001c3c                _realloc_r
 .text          0x0000000008001c88       0x2c /usr/lib/gcc/arm-none-eabi/9.2.1/../../../arm-none-eabi/lib/thumb/v7e-m+fp/hard/libc_nano.a(lib_a-readr.o)
                0x0000000008001c88                _read_r
 .text          0x0000000008001cb4       0x10 /usr/lib/gcc/arm-none-eabi/9.2.1/../../../arm-none-eabi/lib/thumb/v7e-m+fp/hard/libc_nano.a(lib_a-nano-msizer.o)
                0x0000000008001cb4                _malloc_usable_size_r
 .text          0x0000000008001cc4       0x74 /usr/lib/gcc/arm-none-eabi/9.2.1/../../../arm-none-eabi/lib/thumb/v7e-m+fp/hard/libm.a(lib_a-w_sqrt.o)
                0x0000000008001cc4                sqrt
 .text          0x0000000008001d38      0x198 /usr/lib/gcc/arm-none-eabi/9.2.1/../../../arm-none-eabi/lib/thumb/v7e-m+fp/hard/libm.a(lib_a-e_sqrt.o)
                0x0000000008001d38                __ieee754_sqrt
 .text          0x0000000008001ed0       0x10 /usr/lib/gcc/arm-none-eabi/9.2.1/../../../arm-none-eabi/lib/thumb/v7e-m+fp/hard/libnosys.a(close.o)
                0x0000000008001ed0                _close
 .text          0x0000000008001ee0       0x10 /usr/lib/gcc/arm-none-eabi/9.2.1/../../../arm-none-eabi/lib/thumb/v7e-m+fp/hard/libnosys.a(fstat.o)
                0x0000000008001ee0                _fstat
 .text          0x0000000008001ef0       0x10 /usr/lib/gcc/arm-none-eabi/9.2.1/../../../arm-none-eabi/lib/thumb/v7e-m+fp/hard/libnosys.a(isatty.o)
                0x0000000008001ef0                _isatty
 .text          0x0000000008001f00       0x10 /usr/lib/gcc/arm-none-eabi/9.2.1/../../../arm-none-eabi/lib/thumb/v7e-m+fp/hard/libnosys.a(lseek.o)
                0x0000000008001f00                _lseek
 .text          0x0000000008001f10       0x10 /usr/lib/gcc/arm-none-eabi/9.2.1/../../../arm-none-eabi/lib/thumb/v7e-m+fp/hard/libnosys.a(read.o)
                0x0000000008001f10                _read
 .text          0x0000000008001f20       0x1c /usr/lib/gcc/arm-none-eabi/9.2.1/../../../arm-none-eabi/lib/thumb/v7e-m+fp/hard/libnosys.a(sbrk.o)
                0x0000000008001f20                _sbrk
 .text          0x0000000008001f3c       0x10 /usr/lib/gcc/arm-none-eabi/9.2.1/../../../arm-none-eabi/lib/thumb/v7e-m+fp/hard/libnosys.a(write.o)
                0x0000000008001f3c                _write
 .text          0x0000000008001f4c      0x378 /usr/lib/gcc/arm-none-eabi/9.2.1/thumb/v7e-m+fp/hard/libgcc.a(_arm_addsubdf3.o)
                0x0000000008001f4c                __aeabi_drsub
                0x0000000008001f54                __aeabi_dsub
                0x0000000008001f54                __subdf3
                0x0000000008001f58                __adddf3
                0x0000000008001f58                __aeabi_dadd
                0x00000000080021d0                __aeabi_ui2d
                0x00000000080021d0                __floatunsidf
                0x00000000080021f0                __floatsidf
                0x00000000080021f0                __aeabi_i2d
                0x0000000008002214                __extendsfdf2
                0x0000000008002214                __aeabi_f2d
                0x0000000008002258                __aeabi_ul2d
                0x0000000008002258                __floatundidf
                0x0000000008002268                __floatdidf
                0x0000000008002268                __aeabi_l2d
 .text          0x00000000080022c4      0x424 /usr/lib/gcc/arm-none-eabi/9.2.1/thumb/v7e-m+fp/hard/libgcc.a(_arm_muldivdf3.o)
                0x00000000080022c4                __aeabi_dmul
                0x00000000080022c4                __muldf3
                0x0000000008002518                __aeabi_ddiv
                0x0000000008002518                __divdf3
 .text          0x00000000080026e8      0x110 /usr/lib/gcc/arm-none-eabi/9.2.1/thumb/v7e-m+fp/hard/libgcc.a(_arm_cmpdf2.o)
                0x00000000080026e8                __gtdf2
                0x00000000080026e8                __gedf2
                0x00000000080026f0                __ltdf2
                0x00000000080026f0                __ledf2
                0x00000000080026f8                __cmpdf2
                0x00000000080026f8                __eqdf2
                0x00000000080026f8                __nedf2
                0x0000000008002774                __aeabi_cdrcmple
                0x0000000008002784                __aeabi_cdcmple
                0x0000000008002784                __aeabi_cdcmpeq
                0x0000000008002794                __aeabi_dcmpeq
                0x00000000080027a8                __aeabi_dcmplt
                0x00000000080027bc                __aeabi_dcmple
                0x00000000080027d0                __aeabi_dcmpge
                0x00000000080027e4                __aeabi_dcmpgt
 .text          0x00000000080027f8       0x2c /usr/lib/gcc/arm-none-eabi/9.2.1/thumb/v7e-m+fp/hard/libgcc.a(_arm_unorddf2.o)
                0x00000000080027f8                __aeabi_dcmpun
                0x00000000080027f8                __unorddf2
 .text          0x0000000008002824       0x40 /usr/lib/gcc/arm-none-eabi/9.2.1/thumb/v7e-m+fp/hard/libgcc.a(_arm_fixunsdfsi.o)
                0x0000000008002824                __fixunsdfsi
                0x0000000008002824                __aeabi_d2uiz
 .text          0x0000000008002864        0xc /usr/lib/gcc/arm-none-eabi/9.2.1/../../../arm-none-eabi/lib/thumb/v7e-m+fp/hard/libc_nano.a(lib_a-errno.o)
                0x0000000008002864                __errno
 *(.text*)
 .text.main     0x0000000008002870       0x3c build/main.o
                0x0000000008002870                main
 .text.delay_init
                0x00000000080028ac       0x2c build/delay.o
                0x00000000080028ac                delay_init
 .text.delay_us
                0x00000000080028d8       0x3c build/delay.o
                0x00000000080028d8                delay_us
 .text.delay_xms
                0x0000000008002914       0x3c build/delay.o
                0x0000000008002914                delay_xms
 .text.delay_ms
                0x0000000008002950       0x38 build/delay.o
                0x0000000008002950                delay_ms
 .text.AT24C02_Init
                0x0000000008002988        0x8 build/24c02.o
                0x0000000008002988                AT24C02_Init
 .text.AT24C02_ReadOneByte
                0x0000000008002990       0x44 build/24c02.o
                0x0000000008002990                AT24C02_ReadOneByte
 .text.AT24C02_WriteOneByte
                0x00000000080029d4       0x3e build/24c02.o
                0x00000000080029d4                AT24C02_WriteOneByte
 .text.AT24C02_WriteLenByte
                0x0000000008002a12       0x26 build/24c02.o
                0x0000000008002a12                AT24C02_WriteLenByte
 .text.AT24C02_ReadLenByte
                0x0000000008002a38       0x2a build/24c02.o
                0x0000000008002a38                AT24C02_ReadLenByte
 .text.CTP_Delay
                0x0000000008002a62        0xa build/ctpiic.o
                0x0000000008002a62                CTP_Delay
 .text.CTP_IIC_Init
                0x0000000008002a6c       0x58 build/ctpiic.o
                0x0000000008002a6c                CTP_IIC_Init
 .text.CTP_IIC_Start
                0x0000000008002ac4       0x3c build/ctpiic.o
                0x0000000008002ac4                CTP_IIC_Start
 .text.CTP_IIC_Stop
                0x0000000008002b00       0x3c build/ctpiic.o
                0x0000000008002b00                CTP_IIC_Stop
 .text.CTP_IIC_Wait_Ack
                0x0000000008002b3c       0x54 build/ctpiic.o
                0x0000000008002b3c                CTP_IIC_Wait_Ack
 .text.CTP_IIC_Ack
                0x0000000008002b90       0x3c build/ctpiic.o
                0x0000000008002b90                CTP_IIC_Ack
 .text.CTP_IIC_NAck
                0x0000000008002bcc       0x3c build/ctpiic.o
                0x0000000008002bcc                CTP_IIC_NAck
 .text.CTP_IIC_Send_Byte
                0x0000000008002c08       0x50 build/ctpiic.o
                0x0000000008002c08                CTP_IIC_Send_Byte
 .text.CTP_IIC_Read_Byte
                0x0000000008002c58       0x5c build/ctpiic.o
                0x0000000008002c58                CTP_IIC_Read_Byte
 .text.EXTI1_IRQHandler
                0x0000000008002cb4       0x14 build/exti.o
                0x0000000008002cb4                EXTI1_IRQHandler
 .text.FT5426_WR_Reg
                0x0000000008002cc8       0x44 build/ft5426.o
                0x0000000008002cc8                FT5426_WR_Reg
 .text.FT5426_RD_Reg
                0x0000000008002d0c       0x4e build/ft5426.o
                0x0000000008002d0c                FT5426_RD_Reg
 *fill*         0x0000000008002d5a        0x2 
 .text.FT5426_Init
                0x0000000008002d5c       0xb8 build/ft5426.o
                0x0000000008002d5c                FT5426_Init
 .text.FT5426_Scan
                0x0000000008002e14      0x210 build/ft5426.o
                0x0000000008002e14                FT5426_Scan
 .text.GT911_int_sync
                0x0000000008003024       0x24 build/GT911.o
                0x0000000008003024                GT911_int_sync
 .text.GT911_reset_guitar
                0x0000000008003048       0x44 build/GT911.o
                0x0000000008003048                GT911_reset_guitar
 .text.GT911_reset
                0x000000000800308c       0x20 build/GT911.o
                0x000000000800308c                GT911_reset
 .text.GT911_gpio_init
                0x00000000080030ac       0x78 build/GT911.o
                0x00000000080030ac                GT911_gpio_init
 .text.GT9XX_WriteHandle
                0x0000000008003124       0x2a build/GT911.o
                0x0000000008003124                GT9XX_WriteHandle
 .text.GT9XX_WriteData
                0x000000000800314e       0x22 build/GT911.o
                0x000000000800314e                GT9XX_WriteData
 .text.GT9XX_ReadData
                0x0000000008003170       0x48 build/GT911.o
                0x0000000008003170                GT9XX_ReadData
 .text.GT911_Init
                0x00000000080031b8       0x34 build/GT911.o
                0x00000000080031b8                GT911_Init
 .text.GT911_Scan
                0x00000000080031ec      0x2f8 build/GT911.o
                0x00000000080031ec                GT911_Scan
 .text.GUI_DrawPoint
                0x00000000080034e4       0x10 build/gui.o
                0x00000000080034e4                GUI_DrawPoint
 .text.LCD_Fill
                0x00000000080034f4       0x60 build/gui.o
                0x00000000080034f4                LCD_Fill
 .text.LCD_DrawLine
                0x0000000008003554       0x9e build/gui.o
                0x0000000008003554                LCD_DrawLine
 .text._draw_circle_8
                0x00000000080035f2       0xa0 build/gui.o
                0x00000000080035f2                _draw_circle_8
 .text.gui_circle
                0x0000000008003692       0x92 build/gui.o
                0x0000000008003692                gui_circle
 .text.LCD_DrawLine2
                0x0000000008003724       0xb4 build/gui.o
                0x0000000008003724                LCD_DrawLine2
 .text.LCD_ShowChar
                0x00000000080037d8      0x140 build/gui.o
                0x00000000080037d8                LCD_ShowChar
 .text.LCD_ShowString
                0x0000000008003918       0x64 build/gui.o
                0x0000000008003918                LCD_ShowString
 .text.mypow    0x000000000800397c       0x14 build/gui.o
                0x000000000800397c                mypow
 .text.LCD_ShowNum
                0x0000000008003990       0xd8 build/gui.o
                0x0000000008003990                LCD_ShowNum
 .text.GUI_DrawFont16
                0x0000000008003a68      0x118 build/gui.o
                0x0000000008003a68                GUI_DrawFont16
 .text.GUI_DrawFont24
                0x0000000008003b80      0x114 build/gui.o
                0x0000000008003b80                GUI_DrawFont24
 .text.GUI_DrawFont32
                0x0000000008003c94      0x11c build/gui.o
                0x0000000008003c94                GUI_DrawFont32
 .text.Show_Str
                0x0000000008003db0      0x104 build/gui.o
                0x0000000008003db0                Show_Str
 .text.Gui_StrCenter
                0x0000000008003eb4       0x4c build/gui.o
                0x0000000008003eb4                Gui_StrCenter
 .text.IIC_Init
                0x0000000008003f00       0x44 build/iic.o
                0x0000000008003f00                IIC_Init
 .text.IIC_Start
                0x0000000008003f44       0x40 build/iic.o
                0x0000000008003f44                IIC_Start
 .text.IIC_Stop
                0x0000000008003f84       0x40 build/iic.o
                0x0000000008003f84                IIC_Stop
 .text.IIC_Wait_Ack
                0x0000000008003fc4       0x58 build/iic.o
                0x0000000008003fc4                IIC_Wait_Ack
 .text.IIC_Ack  0x000000000800401c       0x40 build/iic.o
                0x000000000800401c                IIC_Ack
 .text.IIC_NAck
                0x000000000800405c       0x40 build/iic.o
                0x000000000800405c                IIC_NAck
 .text.IIC_Send_Byte
                0x000000000800409c       0x5c build/iic.o
                0x000000000800409c                IIC_Send_Byte
 .text.IIC_Read_Byte
                0x00000000080040f8       0x64 build/iic.o
                0x00000000080040f8                IIC_Read_Byte
 .text.KEY_Init
                0x000000000800415c       0x48 build/key.o
                0x000000000800415c                KEY_Init
 .text.KEY_Scan
                0x00000000080041a4       0x70 build/key.o
                0x00000000080041a4                KEY_Scan
 .text.LCD_WR_REG
                0x0000000008004214       0x24 build/lcd.o
                0x0000000008004214                LCD_WR_REG
 .text.LCD_WR_DATA
                0x0000000008004238       0x24 build/lcd.o
                0x0000000008004238                LCD_WR_DATA
 .text.LCD_RD_DATA
                0x000000000800425c       0x1c build/lcd.o
                0x000000000800425c                LCD_RD_DATA
 .text.LCD_WriteReg
                0x0000000008004278        0xc build/lcd.o
                0x0000000008004278                LCD_WriteReg
 .text.LCD_ReadReg
                0x0000000008004284       0x24 build/lcd.o
                0x0000000008004284                LCD_ReadReg
 .text.LCD_WriteRAM_Prepare
                0x00000000080042a8       0x10 build/lcd.o
                0x00000000080042a8                LCD_WriteRAM_Prepare
 .text.Lcd_WriteData_16Bit
                0x00000000080042b8        0xc build/lcd.o
                0x00000000080042b8                Lcd_WriteData_16Bit
 *fill*         0x00000000080042c4        0x4 
 .text.LCD_PWM_BackLightSet
                0x00000000080042c8       0x50 build/lcd.o
                0x00000000080042c8                LCD_PWM_BackLightSet
 .text.LCD_GPIOInit
                0x0000000008004318      0x1f4 build/lcd.o
                0x0000000008004318                LCD_GPIOInit
 .text.LCD_Set_BWTR
                0x000000000800450c       0xb8 build/lcd.o
                0x000000000800450c                LCD_Set_BWTR
 .text.LCD_SetWindows
                0x00000000080045c4      0x260 build/lcd.o
                0x00000000080045c4                LCD_SetWindows
 .text.LCD_Clear
                0x0000000008004824       0x38 build/lcd.o
                0x0000000008004824                LCD_Clear
 .text.LCD_SetCursor
                0x000000000800485c        0xc build/lcd.o
                0x000000000800485c                LCD_SetCursor
 .text.LCD_DrawPoint
                0x0000000008004868       0x14 build/lcd.o
                0x0000000008004868                LCD_DrawPoint
 .text.LCD_direction
                0x000000000800487c      0x244 build/lcd.o
                0x000000000800487c                LCD_direction
 .text.LCD_Read_ID
                0x0000000008004ac0      0x12c build/lcd.o
                0x0000000008004ac0                LCD_Read_ID
 .text.LCD_Init
                0x0000000008004bec     0x3050 build/lcd.o
                0x0000000008004bec                LCD_Init
 .text.LED_Init
                0x0000000008007c3c       0x58 build/led.o
                0x0000000008007c3c                LED_Init
 .text.RTP_Write_Byte
                0x0000000008007c94       0x44 build/rtp.o
                0x0000000008007c94                RTP_Write_Byte
 .text.RTP_Read_AD
                0x0000000008007cd8       0x74 build/rtp.o
                0x0000000008007cd8                RTP_Read_AD
 .text.RTP_Read_XOY
                0x0000000008007d4c       0x98 build/rtp.o
                0x0000000008007d4c                RTP_Read_XOY
 .text.RTP_Read_XY
                0x0000000008007de4       0x28 build/rtp.o
                0x0000000008007de4                RTP_Read_XY
 .text.RTP_Read_XY2
                0x0000000008007e0c       0x8c build/rtp.o
                0x0000000008007e0c                RTP_Read_XY2
 .text.RTP_Drow_Touch_Point
                0x0000000008007e98       0x88 build/rtp.o
                0x0000000008007e98                RTP_Drow_Touch_Point
 .text.RTP_Draw_Big_Point
                0x0000000008007f20       0x34 build/rtp.o
                0x0000000008007f20                RTP_Draw_Big_Point
 .text.RTP_Scan
                0x0000000008007f54       0xd8 build/rtp.o
                0x0000000008007f54                RTP_Scan
 .text.RTP_Save_Adjdata
                0x000000000800802c       0x74 build/rtp.o
                0x000000000800802c                RTP_Save_Adjdata
 .text.RTP_Get_Adjdata
                0x00000000080080a0       0x9c build/rtp.o
                0x00000000080080a0                RTP_Get_Adjdata
 .text.RTP_Adj_Info_Show
                0x000000000800813c      0x164 build/rtp.o
                0x000000000800813c                RTP_Adj_Info_Show
 .text.RTP_Adjust
                0x00000000080082a0      0x650 build/rtp.o
                0x00000000080082a0                RTP_Adjust
 .text.DrawTestPage
                0x00000000080088f0       0x98 build/test.o
                0x00000000080088f0                DrawTestPage
 .text.Rtp_Test
                0x0000000008008988      0x1ac build/test.o
                0x0000000008008988                Rtp_Test
 .text.Ctp_Test
                0x0000000008008b34      0x16c build/test.o
                0x0000000008008b34                Ctp_Test
 .text.Touch_Test
                0x0000000008008ca0       0x24 build/test.o
                0x0000000008008ca0                Touch_Test
 .text.CTP_Read_ID
                0x0000000008008cc4       0x6e build/touch.o
                0x0000000008008cc4                CTP_Read_ID
 *fill*         0x0000000008008d32        0x2 
 .text.TP_Init  0x0000000008008d34       0x50 build/touch.o
                0x0000000008008d34                TP_Init
 .text.USART2_Init
                0x0000000008008d84       0xbc build/usart.o
                0x0000000008008d84                USART2_Init
 .text.USART1_IRQHandler
                0x0000000008008e40       0x7c build/usart.o
                0x0000000008008e40                USART1_IRQHandler
 .text.NMI_Handler
                0x0000000008008ebc        0x2 build/stm32f4xx_it.o
                0x0000000008008ebc                NMI_Handler
 .text.HardFault_Handler
                0x0000000008008ebe        0x2 build/stm32f4xx_it.o
                0x0000000008008ebe                HardFault_Handler
 .text.MemManage_Handler
                0x0000000008008ec0        0x2 build/stm32f4xx_it.o
                0x0000000008008ec0                MemManage_Handler
 .text.BusFault_Handler
                0x0000000008008ec2        0x2 build/stm32f4xx_it.o
                0x0000000008008ec2                BusFault_Handler
 .text.UsageFault_Handler
                0x0000000008008ec4        0x2 build/stm32f4xx_it.o
                0x0000000008008ec4                UsageFault_Handler
 .text.SVC_Handler
                0x0000000008008ec6        0x2 build/stm32f4xx_it.o
                0x0000000008008ec6                SVC_Handler
 .text.DebugMon_Handler
                0x0000000008008ec8        0x2 build/stm32f4xx_it.o
                0x0000000008008ec8                DebugMon_Handler
 .text.PendSV_Handler
                0x0000000008008eca        0x2 build/stm32f4xx_it.o
                0x0000000008008eca                PendSV_Handler
 .text.SysTick_Handler
                0x0000000008008ecc        0x2 build/stm32f4xx_it.o
                0x0000000008008ecc                SysTick_Handler
 *fill*         0x0000000008008ece        0x2 
 .text.NVIC_PriorityGroupConfig
                0x0000000008008ed0       0x14 build/misc.o
                0x0000000008008ed0                NVIC_PriorityGroupConfig
 .text.NVIC_Init
                0x0000000008008ee4       0x64 build/misc.o
                0x0000000008008ee4                NVIC_Init
 .text.SysTick_CLKSourceConfig
                0x0000000008008f48       0x20 build/misc.o
                0x0000000008008f48                SysTick_CLKSourceConfig
 .text.EXTI_ClearITPendingBit
                0x0000000008008f68        0xc build/stm32f4xx_exti.o
                0x0000000008008f68                EXTI_ClearITPendingBit
 .text.FSMC_NORSRAMInit
                0x0000000008008f74       0xc4 build/stm32f4xx_fsmc.o
                0x0000000008008f74                FSMC_NORSRAMInit
 .text.FSMC_NORSRAMCmd
                0x0000000008009038       0x2c build/stm32f4xx_fsmc.o
                0x0000000008009038                FSMC_NORSRAMCmd
 .text.GPIO_Init
                0x0000000008009064       0x8c build/stm32f4xx_gpio.o
                0x0000000008009064                GPIO_Init
 .text.GPIO_SetBits
                0x00000000080090f0        0x4 build/stm32f4xx_gpio.o
                0x00000000080090f0                GPIO_SetBits
 .text.GPIO_PinAFConfig
                0x00000000080090f4       0x30 build/stm32f4xx_gpio.o
                0x00000000080090f4                GPIO_PinAFConfig
 .text.RCC_GetClocksFreq
                0x0000000008009124       0xb8 build/stm32f4xx_rcc.o
                0x0000000008009124                RCC_GetClocksFreq
 .text.RCC_AHB1PeriphClockCmd
                0x00000000080091dc       0x1c build/stm32f4xx_rcc.o
                0x00000000080091dc                RCC_AHB1PeriphClockCmd
 .text.RCC_AHB3PeriphClockCmd
                0x00000000080091f8       0x1c build/stm32f4xx_rcc.o
                0x00000000080091f8                RCC_AHB3PeriphClockCmd
 .text.RCC_APB2PeriphClockCmd
                0x0000000008009214       0x1c build/stm32f4xx_rcc.o
                0x0000000008009214                RCC_APB2PeriphClockCmd
 .text.USART_Init
                0x0000000008009230       0xd0 build/stm32f4xx_usart.o
                0x0000000008009230                USART_Init
 .text.USART_Cmd
                0x0000000008009300       0x1c build/stm32f4xx_usart.o
                0x0000000008009300                USART_Cmd
 .text.USART_ReceiveData
                0x000000000800931c        0x8 build/stm32f4xx_usart.o
                0x000000000800931c                USART_ReceiveData
 .text.USART_ITConfig
                0x0000000008009324       0x3a build/stm32f4xx_usart.o
                0x0000000008009324                USART_ITConfig
 .text.USART_ClearFlag
                0x000000000800935e        0x8 build/stm32f4xx_usart.o
                0x000000000800935e                USART_ClearFlag
 .text.USART_GetITStatus
                0x0000000008009366       0x4e build/stm32f4xx_usart.o
                0x0000000008009366                USART_GetITStatus
 .text.SetSysClock
                0x00000000080093b4       0xc4 build/system_stm32f4xx.o
 .text.SystemInit
                0x0000000008009478       0x50 build/system_stm32f4xx.o
                0x0000000008009478                SystemInit
 .text.Reset_Handler
                0x00000000080094c8       0x50 build/startup_stm32f407xx.o
                0x00000000080094c8                Reset_Handler
 .text.Default_Handler
                0x0000000008009518        0x2 build/startup_stm32f407xx.o
                0x0000000008009518                RTC_Alarm_IRQHandler
                0x0000000008009518                HASH_RNG_IRQHandler
                0x0000000008009518                EXTI2_IRQHandler
                0x0000000008009518                TIM8_CC_IRQHandler
                0x0000000008009518                TIM1_CC_IRQHandler
                0x0000000008009518                DMA2_Stream5_IRQHandler
                0x0000000008009518                DMA1_Stream5_IRQHandler
                0x0000000008009518                PVD_IRQHandler
                0x0000000008009518                SDIO_IRQHandler
                0x0000000008009518                TAMP_STAMP_IRQHandler
                0x0000000008009518                CAN2_RX1_IRQHandler
                0x0000000008009518                EXTI3_IRQHandler
                0x0000000008009518                TIM8_TRG_COM_TIM14_IRQHandler
                0x0000000008009518                TIM1_UP_TIM10_IRQHandler
                0x0000000008009518                TIM8_UP_TIM13_IRQHandler
                0x0000000008009518                I2C3_ER_IRQHandler
                0x0000000008009518                EXTI0_IRQHandler
                0x0000000008009518                I2C2_EV_IRQHandler
                0x0000000008009518                DMA1_Stream2_IRQHandler
                0x0000000008009518                CAN1_RX0_IRQHandler
                0x0000000008009518                FPU_IRQHandler
                0x0000000008009518                OTG_HS_WKUP_IRQHandler
                0x0000000008009518                CAN2_SCE_IRQHandler
                0x0000000008009518                DMA2_Stream2_IRQHandler
                0x0000000008009518                SPI1_IRQHandler
                0x0000000008009518                TIM6_DAC_IRQHandler
                0x0000000008009518                TIM1_BRK_TIM9_IRQHandler
                0x0000000008009518                DCMI_IRQHandler
                0x0000000008009518                CAN2_RX0_IRQHandler
                0x0000000008009518                DMA2_Stream3_IRQHandler
                0x0000000008009518                USART6_IRQHandler
                0x0000000008009518                USART3_IRQHandler
                0x0000000008009518                CAN1_RX1_IRQHandler
                0x0000000008009518                UART5_IRQHandler
                0x0000000008009518                DMA2_Stream0_IRQHandler
                0x0000000008009518                TIM4_IRQHandler
                0x0000000008009518                I2C1_EV_IRQHandler
                0x0000000008009518                DMA1_Stream6_IRQHandler
                0x0000000008009518                DMA1_Stream1_IRQHandler
                0x0000000008009518                UART4_IRQHandler
                0x0000000008009518                TIM3_IRQHandler
                0x0000000008009518                RCC_IRQHandler
                0x0000000008009518                TIM8_BRK_TIM12_IRQHandler
                0x0000000008009518                Default_Handler
                0x0000000008009518                EXTI15_10_IRQHandler
                0x0000000008009518                ADC_IRQHandler
                0x0000000008009518                DMA1_Stream7_IRQHandler
                0x0000000008009518                TIM7_IRQHandler
                0x0000000008009518                CAN2_TX_IRQHandler
                0x0000000008009518                TIM5_IRQHandler
                0x0000000008009518                DMA2_Stream7_IRQHandler
                0x0000000008009518                I2C3_EV_IRQHandler
                0x0000000008009518                EXTI9_5_IRQHandler
                0x0000000008009518                RTC_WKUP_IRQHandler
                0x0000000008009518                ETH_WKUP_IRQHandler
                0x0000000008009518                SPI2_IRQHandler
                0x0000000008009518                OTG_HS_EP1_IN_IRQHandler
                0x0000000008009518                DMA1_Stream0_IRQHandler
                0x0000000008009518                CAN1_TX_IRQHandler
                0x0000000008009518                EXTI4_IRQHandler
                0x0000000008009518                FSMC_IRQHandler
                0x0000000008009518                ETH_IRQHandler
                0x0000000008009518                OTG_HS_EP1_OUT_IRQHandler
                0x0000000008009518                WWDG_IRQHandler
                0x0000000008009518                TIM2_IRQHandler
                0x0000000008009518                OTG_FS_WKUP_IRQHandler
                0x0000000008009518                TIM1_TRG_COM_TIM11_IRQHandler
                0x0000000008009518                OTG_HS_IRQHandler
                0x0000000008009518                USART2_IRQHandler
                0x0000000008009518                I2C2_ER_IRQHandler
                0x0000000008009518                DMA2_Stream1_IRQHandler
                0x0000000008009518                CAN1_SCE_IRQHandler
                0x0000000008009518                FLASH_IRQHandler
                0x0000000008009518                DMA2_Stream4_IRQHandler
                0x0000000008009518                OTG_FS_IRQHandler
                0x0000000008009518                SPI3_IRQHandler
                0x0000000008009518                DMA1_Stream4_IRQHandler
                0x0000000008009518                I2C1_ER_IRQHandler
                0x0000000008009518                DMA2_Stream6_IRQHandler
                0x0000000008009518                DMA1_Stream3_IRQHandler
 *(.glue_7)
 .glue_7        0x000000000800951a        0x0 linker stubs
 *(.glue_7t)
 .glue_7t       0x000000000800951a        0x0 linker stubs
 *(.eh_frame)
 *fill*         0x000000000800951a        0x2 
 .eh_frame      0x000000000800951c        0x0 /usr/lib/gcc/arm-none-eabi/9.2.1/thumb/v7e-m+fp/hard/crtbegin.o
 *(.init)
 .init          0x000000000800951c        0x4 /usr/lib/gcc/arm-none-eabi/9.2.1/thumb/v7e-m+fp/hard/crti.o
                0x000000000800951c                _init
 .init          0x0000000008009520        0x8 /usr/lib/gcc/arm-none-eabi/9.2.1/thumb/v7e-m+fp/hard/crtn.o
 *(.fini)
 .fini          0x0000000008009528        0x4 /usr/lib/gcc/arm-none-eabi/9.2.1/thumb/v7e-m+fp/hard/crti.o
                0x0000000008009528                _fini
 .fini          0x000000000800952c        0x8 /usr/lib/gcc/arm-none-eabi/9.2.1/thumb/v7e-m+fp/hard/crtn.o
                0x0000000008009534                . = ALIGN (0x4)
                0x0000000008009534                _etext = .

.vfp11_veneer   0x0000000008009534        0x0
 .vfp11_veneer  0x0000000008009534        0x0 linker stubs

.v4_bx          0x0000000008009534        0x0
 .v4_bx         0x0000000008009534        0x0 linker stubs

.iplt           0x0000000008009534        0x0
 .iplt          0x0000000008009534        0x0 /usr/lib/gcc/arm-none-eabi/9.2.1/thumb/v7e-m+fp/hard/crtbegin.o

.rodata         0x0000000008009534     0x1a24
                0x0000000008009534                . = ALIGN (0x4)
 *(.rodata)
 .rodata        0x0000000008009534        0x4 /usr/lib/gcc/arm-none-eabi/9.2.1/../../../arm-none-eabi/lib/thumb/v7e-m+fp/hard/libc_nano.a(lib_a-impure.o)
                0x0000000008009534                _global_impure_ptr
 .rodata        0x0000000008009538       0x60 /usr/lib/gcc/arm-none-eabi/9.2.1/../../../arm-none-eabi/lib/thumb/v7e-m+fp/hard/libc_nano.a(lib_a-findfp.o)
                0x0000000008009538                __sf_fake_stderr
                0x0000000008009558                __sf_fake_stdout
                0x0000000008009578                __sf_fake_stdin
 *(.rodata*)
 .rodata.main.str1.4
                0x0000000008009598        0xb build/main.o
 *fill*         0x00000000080095a3        0x1 
 .rodata.FT5426_TPX_TBL
                0x00000000080095a4        0xa build/ft5426.o
                0x00000000080095a4                FT5426_TPX_TBL
 *fill*         0x00000000080095ae        0x2 
 .rodata.asc2_1206
                0x00000000080095b0      0x474 build/gui.o
                0x00000000080095b0                asc2_1206
 .rodata.asc2_1608
                0x0000000008009a24      0x5f0 build/gui.o
                0x0000000008009a24                asc2_1608
 .rodata.tfont16
                0x000000000800a014      0x990 build/gui.o
                0x000000000800a014                tfont16
 .rodata.tfont24
                0x000000000800a9a4      0x206 build/gui.o
                0x000000000800a9a4                tfont24
 *fill*         0x000000000800abaa        0x2 
 .rodata.tfont32
                0x000000000800abac      0x208 build/gui.o
                0x000000000800abac                tfont32
 .rodata.LCD_Init.str1.4
                0x000000000800adb4       0x1f build/lcd.o
 *fill*         0x000000000800add3        0x1 
 .rodata.RTP_Adj_Info_Show.str1.4
                0x000000000800add4       0x28 build/rtp.o
 .rodata.RTP_Adjust.str1.4
                0x000000000800adfc       0xac build/rtp.o
 .rodata.DrawTestPage.str1.4
                0x000000000800aea8       0x17 build/test.o
 *fill*         0x000000000800aebf        0x1 
 .rodata.Rtp_Test.str1.4
                0x000000000800aec0       0x1c build/test.o
 .rodata.Ctp_Test.str1.4
                0x000000000800aedc       0x1d build/test.o
 *fill*         0x000000000800aef9        0x3 
 .rodata.Touch_Test.str1.4
                0x000000000800aefc       0x13 build/test.o
 *fill*         0x000000000800af0f        0x1 
 .rodata.POINT_COLOR_TBL
                0x000000000800af10        0xa build/test.o
                0x000000000800af10                POINT_COLOR_TBL
 *fill*         0x000000000800af1a        0x2 
 .rodata.str1.4
                0x000000000800af1c       0x13 /usr/lib/gcc/arm-none-eabi/9.2.1/../../../arm-none-eabi/lib/thumb/v7e-m+fp/hard/libc_nano.a(lib_a-nano-vfprintf.o)
 *fill*         0x000000000800af2f        0x1 
 .rodata.str1.4
                0x000000000800af30       0x25 /usr/lib/gcc/arm-none-eabi/9.2.1/../../../arm-none-eabi/lib/thumb/v7e-m+fp/hard/libc_nano.a(lib_a-nano-vfprintf_i.o)
                0x000000000800af58                . = ALIGN (0x4)
 *fill*         0x000000000800af55        0x3 

.rel.dyn        0x000000000800af58        0x0
 .rel.iplt      0x000000000800af58        0x0 /usr/lib/gcc/arm-none-eabi/9.2.1/thumb/v7e-m+fp/hard/crtbegin.o

.ARM.extab
 *(.ARM.extab* .gnu.linkonce.armextab.*)

.ARM            0x000000000800af58        0x0
                0x000000000800af58                __exidx_start = .
 *(.ARM.exidx*)
                0x000000000800af58                __exidx_end = .

.preinit_array  0x000000000800af58        0x0
                0x000000000800af58                PROVIDE (__preinit_array_start = .)
 *(.preinit_array*)
                0x000000000800af58                PROVIDE (__preinit_array_end = .)

.init_array     0x000000000800af58        0x4
                0x000000000800af58                PROVIDE (__init_array_start = .)
 *(SORT_BY_NAME(.init_array.*))
 *(.init_array*)
 .init_array    0x000000000800af58        0x4 /usr/lib/gcc/arm-none-eabi/9.2.1/thumb/v7e-m+fp/hard/crtbegin.o
                0x000000000800af5c                PROVIDE (__init_array_end = .)

.fini_array     0x000000000800af5c        0x4
                0x000000000800af5c                PROVIDE (__fini_array_start = .)
 *(SORT_BY_NAME(.fini_array.*))
 *(.fini_array*)
 .fini_array    0x000000000800af5c        0x4 /usr/lib/gcc/arm-none-eabi/9.2.1/thumb/v7e-m+fp/hard/crtbegin.o
                0x000000000800af60                PROVIDE (__fini_array_end = .)
                0x000000000800af60                _sidata = LOADADDR (.data)

.data           0x0000000020000000       0xb4 load address 0x000000000800af60
                0x0000000020000000                . = ALIGN (0x4)
                0x0000000020000000                _sdata = .
 *(.data)
 .data          0x0000000020000000       0x64 /usr/lib/gcc/arm-none-eabi/9.2.1/../../../arm-none-eabi/lib/thumb/v7e-m+fp/hard/libc_nano.a(lib_a-impure.o)
                0x0000000020000000                _impure_ptr
 .data          0x0000000020000064        0x1 /usr/lib/gcc/arm-none-eabi/9.2.1/../../../arm-none-eabi/lib/thumb/v7e-m+fp/hard/libm.a(lib_a-s_lib_ver.o)
                0x0000000020000064                __fdlib_version
 *(.data*)
 .data.key_up.9148
                0x0000000020000065        0x1 build/key.o
 .data.BACK_COLOR
                0x0000000020000066        0x2 build/lcd.o
                0x0000000020000066                BACK_COLOR
 .data.CMD_RDX  0x0000000020000068        0x1 build/rtp.o
                0x0000000020000068                CMD_RDX
 .data.CMD_RDY  0x0000000020000069        0x1 build/rtp.o
                0x0000000020000069                CMD_RDY
 *fill*         0x000000002000006a        0x2 
 .data.ColorTab
                0x000000002000006c        0xa build/test.o
                0x000000002000006c                ColorTab
 *fill*         0x0000000020000076        0x2 
 .data.tp_dev   0x0000000020000078       0x2c build/touch.o
                0x0000000020000078                tp_dev
 .data.APBAHBPrescTable
                0x00000000200000a4       0x10 build/stm32f4xx_rcc.o
                0x00000000200000b4                . = ALIGN (0x4)
                0x00000000200000b4                _edata = .
                0x000000000800b014                _siccmram = LOADADDR (.ccmram)

.tm_clone_table
                0x00000000200000b4        0x0 load address 0x000000000800b014
 .tm_clone_table
                0x00000000200000b4        0x0 /usr/lib/gcc/arm-none-eabi/9.2.1/thumb/v7e-m+fp/hard/crtbegin.o
 .tm_clone_table
                0x00000000200000b4        0x0 /usr/lib/gcc/arm-none-eabi/9.2.1/thumb/v7e-m+fp/hard/crtend.o

.igot.plt       0x00000000200000b4        0x0 load address 0x000000000800b014
 .igot.plt      0x00000000200000b4        0x0 /usr/lib/gcc/arm-none-eabi/9.2.1/thumb/v7e-m+fp/hard/crtbegin.o

.ccmram         0x0000000010000000        0x0 load address 0x000000000800b014
                0x0000000010000000                . = ALIGN (0x4)
                0x0000000010000000                _sccmram = .
 *(.ccmram)
 *(.ccmram*)
                0x0000000010000000                . = ALIGN (0x4)
                0x0000000010000000                _eccmram = .
                0x0000000010000000                . = ALIGN (0x4)

.bss            0x00000000200000b4      0x1b8
                0x00000000200000b4                _sbss = .
                0x00000000200000b4                __bss_start__ = _sbss
 *(.bss)
 .bss           0x00000000200000b4       0x1c /usr/lib/gcc/arm-none-eabi/9.2.1/thumb/v7e-m+fp/hard/crtbegin.o
 .bss           0x00000000200000d0        0x8 /usr/lib/gcc/arm-none-eabi/9.2.1/../../../arm-none-eabi/lib/thumb/v7e-m+fp/hard/libc_nano.a(lib_a-nano-mallocr.o)
                0x00000000200000d0                __malloc_free_list
                0x00000000200000d4                __malloc_sbrk_start
 .bss           0x00000000200000d8        0x4 /usr/lib/gcc/arm-none-eabi/9.2.1/../../../arm-none-eabi/lib/thumb/v7e-m+fp/hard/libnosys.a(sbrk.o)
 *(.bss*)
 .bss.fac_ms    0x00000000200000dc        0x2 build/delay.o
 .bss.fac_us    0x00000000200000de        0x1 build/delay.o
 .bss.touch_flag
                0x00000000200000df        0x1 build/exti.o
                0x00000000200000df                touch_flag
 .bss.t.10106   0x00000000200000e0        0x1 build/ft5426.o
 .bss.t.9932    0x00000000200000e1        0x1 build/GT911.o
 .bss.POINT_COLOR
                0x00000000200000e2        0x2 build/lcd.o
                0x00000000200000e2                POINT_COLOR
 .bss.USART_RX_STA
                0x00000000200000e4        0x2 build/usart.o
                0x00000000200000e4                USART_RX_STA
 *(COMMON)
 *fill*         0x00000000200000e6        0x2 
 COMMON         0x00000000200000e8       0x18 build/lcd.o
                0x00000000200000e8                lcddev
                0x00000000200000fe                DeviceCode
 COMMON         0x0000000020000100      0x168 build/usart.o
                0x0000000020000100                USART_RX_BUF
                0x0000000020000200                __stdout
 COMMON         0x0000000020000268        0x4 /usr/lib/gcc/arm-none-eabi/9.2.1/../../../arm-none-eabi/lib/thumb/v7e-m+fp/hard/libc_nano.a(lib_a-reent.o)
                0x0000000020000268                errno
                0x000000002000026c                . = ALIGN (0x4)
                0x000000002000026c                _ebss = .
                0x000000002000026c                __bss_end__ = _ebss

._user_heap_stack
                0x000000002000026c      0x604
                0x0000000020000270                . = ALIGN (0x8)
 *fill*         0x000000002000026c        0x4 
                0x0000000020000270                PROVIDE (end = .)
                [!provide]                        PROVIDE (_end = .)
                0x0000000020000470                . = (. + _Min_Heap_Size)
 *fill*         0x0000000020000270      0x200 
                0x0000000020000870                . = (. + _Min_Stack_Size)
 *fill*         0x0000000020000470      0x400 
                0x0000000020000870                . = ALIGN (0x8)

/DISCARD/
 libc.a(*)
 libm.a(*)
 libgcc.a(*)

.ARM.attributes
                0x0000000000000000       0x30
 *(.ARM.attributes)
 .ARM.attributes
                0x0000000000000000       0x1e /usr/lib/gcc/arm-none-eabi/9.2.1/thumb/v7e-m+fp/hard/crti.o
 .ARM.attributes
                0x000000000000001e       0x34 /usr/lib/gcc/arm-none-eabi/9.2.1/thumb/v7e-m+fp/hard/crtbegin.o
 .ARM.attributes
                0x0000000000000052       0x34 build/main.o
 .ARM.attributes
                0x0000000000000086       0x34 build/delay.o
 .ARM.attributes
                0x00000000000000ba       0x34 build/24c02.o
 .ARM.attributes
                0x00000000000000ee       0x34 build/ctpiic.o
 .ARM.attributes
                0x0000000000000122       0x34 build/exti.o
 .ARM.attributes
                0x0000000000000156       0x34 build/ft5426.o
 .ARM.attributes
                0x000000000000018a       0x34 build/GT911.o
 .ARM.attributes
                0x00000000000001be       0x34 build/gui.o
 .ARM.attributes
                0x00000000000001f2       0x34 build/iic.o
 .ARM.attributes
                0x0000000000000226       0x34 build/key.o
 .ARM.attributes
                0x000000000000025a       0x34 build/lcd.o
 .ARM.attributes
                0x000000000000028e       0x34 build/led.o
 .ARM.attributes
                0x00000000000002c2       0x34 build/rtp.o
 .ARM.attributes
                0x00000000000002f6       0x34 build/test.o
 .ARM.attributes
                0x000000000000032a       0x34 build/touch.o
 .ARM.attributes
                0x000000000000035e       0x34 build/usart.o
 .ARM.attributes
                0x0000000000000392       0x34 build/stm32f4xx_it.o
 .ARM.attributes
                0x00000000000003c6       0x34 build/misc.o
 .ARM.attributes
                0x00000000000003fa       0x34 build/stm32f4xx_exti.o
 .ARM.attributes
                0x000000000000042e       0x34 build/stm32f4xx_fsmc.o
 .ARM.attributes
                0x0000000000000462       0x34 build/stm32f4xx_gpio.o
 .ARM.attributes
                0x0000000000000496       0x34 build/stm32f4xx_rcc.o
 .ARM.attributes
                0x00000000000004ca       0x34 build/stm32f4xx_usart.o
 .ARM.attributes
                0x00000000000004fe       0x34 build/system_stm32f4xx.o
 .ARM.attributes
                0x0000000000000532       0x21 build/startup_stm32f407xx.o
 .ARM.attributes
                0x0000000000000553       0x32 /usr/lib/gcc/arm-none-eabi/9.2.1/../../../arm-none-eabi/lib/thumb/v7e-m+fp/hard/libc_nano.a(lib_a-impure.o)
 .ARM.attributes
                0x0000000000000585       0x34 /usr/lib/gcc/arm-none-eabi/9.2.1/../../../arm-none-eabi/lib/thumb/v7e-m+fp/hard/libc_nano.a(lib_a-init.o)
 .ARM.attributes
                0x00000000000005b9       0x34 /usr/lib/gcc/arm-none-eabi/9.2.1/../../../arm-none-eabi/lib/thumb/v7e-m+fp/hard/libc_nano.a(lib_a-memset.o)
 .ARM.attributes
                0x00000000000005ed       0x34 /usr/lib/gcc/arm-none-eabi/9.2.1/../../../arm-none-eabi/lib/thumb/v7e-m+fp/hard/libc_nano.a(lib_a-printf.o)
 .ARM.attributes
                0x0000000000000621       0x34 /usr/lib/gcc/arm-none-eabi/9.2.1/../../../arm-none-eabi/lib/thumb/v7e-m+fp/hard/libc_nano.a(lib_a-puts.o)
 .ARM.attributes
                0x0000000000000655       0x1c /usr/lib/gcc/arm-none-eabi/9.2.1/../../../arm-none-eabi/lib/thumb/v7e-m+fp/hard/libc_nano.a(lib_a-strlen.o)
 .ARM.attributes
                0x0000000000000671       0x34 /usr/lib/gcc/arm-none-eabi/9.2.1/../../../arm-none-eabi/lib/thumb/v7e-m+fp/hard/libc_nano.a(lib_a-wbuf.o)
 .ARM.attributes
                0x00000000000006a5       0x34 /usr/lib/gcc/arm-none-eabi/9.2.1/../../../arm-none-eabi/lib/thumb/v7e-m+fp/hard/libc_nano.a(lib_a-wsetup.o)
 .ARM.attributes
                0x00000000000006d9       0x34 /usr/lib/gcc/arm-none-eabi/9.2.1/../../../arm-none-eabi/lib/thumb/v7e-m+fp/hard/libc_nano.a(lib_a-fflush.o)
 .ARM.attributes
                0x000000000000070d       0x34 /usr/lib/gcc/arm-none-eabi/9.2.1/../../../arm-none-eabi/lib/thumb/v7e-m+fp/hard/libc_nano.a(lib_a-findfp.o)
 .ARM.attributes
                0x0000000000000741       0x34 /usr/lib/gcc/arm-none-eabi/9.2.1/../../../arm-none-eabi/lib/thumb/v7e-m+fp/hard/libc_nano.a(lib_a-fwalk.o)
 .ARM.attributes
                0x0000000000000775       0x34 /usr/lib/gcc/arm-none-eabi/9.2.1/../../../arm-none-eabi/lib/thumb/v7e-m+fp/hard/libc_nano.a(lib_a-makebuf.o)
 .ARM.attributes
                0x00000000000007a9       0x34 /usr/lib/gcc/arm-none-eabi/9.2.1/../../../arm-none-eabi/lib/thumb/v7e-m+fp/hard/libc_nano.a(lib_a-nano-freer.o)
 .ARM.attributes
                0x00000000000007dd       0x34 /usr/lib/gcc/arm-none-eabi/9.2.1/../../../arm-none-eabi/lib/thumb/v7e-m+fp/hard/libc_nano.a(lib_a-nano-mallocr.o)
 .ARM.attributes
                0x0000000000000811       0x34 /usr/lib/gcc/arm-none-eabi/9.2.1/../../../arm-none-eabi/lib/thumb/v7e-m+fp/hard/libc_nano.a(lib_a-nano-vfprintf.o)
 .ARM.attributes
                0x0000000000000845       0x34 /usr/lib/gcc/arm-none-eabi/9.2.1/../../../arm-none-eabi/lib/thumb/v7e-m+fp/hard/libc_nano.a(lib_a-nano-vfprintf_i.o)
 .ARM.attributes
                0x0000000000000879       0x34 /usr/lib/gcc/arm-none-eabi/9.2.1/../../../arm-none-eabi/lib/thumb/v7e-m+fp/hard/libc_nano.a(lib_a-sbrkr.o)
 .ARM.attributes
                0x00000000000008ad       0x34 /usr/lib/gcc/arm-none-eabi/9.2.1/../../../arm-none-eabi/lib/thumb/v7e-m+fp/hard/libc_nano.a(lib_a-stdio.o)
 .ARM.attributes
                0x00000000000008e1       0x34 /usr/lib/gcc/arm-none-eabi/9.2.1/../../../arm-none-eabi/lib/thumb/v7e-m+fp/hard/libc_nano.a(lib_a-writer.o)
 .ARM.attributes
                0x0000000000000915       0x34 /usr/lib/gcc/arm-none-eabi/9.2.1/../../../arm-none-eabi/lib/thumb/v7e-m+fp/hard/libc_nano.a(lib_a-closer.o)
 .ARM.attributes
                0x0000000000000949       0x34 /usr/lib/gcc/arm-none-eabi/9.2.1/../../../arm-none-eabi/lib/thumb/v7e-m+fp/hard/libc_nano.a(lib_a-fstatr.o)
 .ARM.attributes
                0x000000000000097d       0x34 /usr/lib/gcc/arm-none-eabi/9.2.1/../../../arm-none-eabi/lib/thumb/v7e-m+fp/hard/libc_nano.a(lib_a-fvwrite.o)
 .ARM.attributes
                0x00000000000009b1       0x34 /usr/lib/gcc/arm-none-eabi/9.2.1/../../../arm-none-eabi/lib/thumb/v7e-m+fp/hard/libc_nano.a(lib_a-isattyr.o)
 .ARM.attributes
                0x00000000000009e5       0x34 /usr/lib/gcc/arm-none-eabi/9.2.1/../../../arm-none-eabi/lib/thumb/v7e-m+fp/hard/libc_nano.a(lib_a-lseekr.o)
 .ARM.attributes
                0x0000000000000a19       0x1c /usr/lib/gcc/arm-none-eabi/9.2.1/../../../arm-none-eabi/lib/thumb/v7e-m+fp/hard/libc_nano.a(lib_a-memchr.o)
 .ARM.attributes
                0x0000000000000a35       0x1c /usr/lib/gcc/arm-none-eabi/9.2.1/../../../arm-none-eabi/lib/thumb/v7e-m+fp/hard/libc_nano.a(lib_a-memcpy.o)
 .ARM.attributes
                0x0000000000000a51       0x34 /usr/lib/gcc/arm-none-eabi/9.2.1/../../../arm-none-eabi/lib/thumb/v7e-m+fp/hard/libc_nano.a(lib_a-memmove.o)
 .ARM.attributes
                0x0000000000000a85       0x34 /usr/lib/gcc/arm-none-eabi/9.2.1/../../../arm-none-eabi/lib/thumb/v7e-m+fp/hard/libc_nano.a(lib_a-mlock.o)
 .ARM.attributes
                0x0000000000000ab9       0x34 /usr/lib/gcc/arm-none-eabi/9.2.1/../../../arm-none-eabi/lib/thumb/v7e-m+fp/hard/libc_nano.a(lib_a-nano-reallocr.o)
 .ARM.attributes
                0x0000000000000aed       0x34 /usr/lib/gcc/arm-none-eabi/9.2.1/../../../arm-none-eabi/lib/thumb/v7e-m+fp/hard/libc_nano.a(lib_a-readr.o)
 .ARM.attributes
                0x0000000000000b21       0x34 /usr/lib/gcc/arm-none-eabi/9.2.1/../../../arm-none-eabi/lib/thumb/v7e-m+fp/hard/libc_nano.a(lib_a-reent.o)
 .ARM.attributes
                0x0000000000000b55       0x34 /usr/lib/gcc/arm-none-eabi/9.2.1/../../../arm-none-eabi/lib/thumb/v7e-m+fp/hard/libc_nano.a(lib_a-nano-msizer.o)
 .ARM.attributes
                0x0000000000000b89       0x34 /usr/lib/gcc/arm-none-eabi/9.2.1/../../../arm-none-eabi/lib/thumb/v7e-m+fp/hard/libm.a(lib_a-w_sqrt.o)
 .ARM.attributes
                0x0000000000000bbd       0x34 /usr/lib/gcc/arm-none-eabi/9.2.1/../../../arm-none-eabi/lib/thumb/v7e-m+fp/hard/libm.a(lib_a-e_sqrt.o)
 .ARM.attributes
                0x0000000000000bf1       0x32 /usr/lib/gcc/arm-none-eabi/9.2.1/../../../arm-none-eabi/lib/thumb/v7e-m+fp/hard/libm.a(lib_a-s_lib_ver.o)
 .ARM.attributes
                0x0000000000000c23       0x34 /usr/lib/gcc/arm-none-eabi/9.2.1/../../../arm-none-eabi/lib/thumb/v7e-m+fp/hard/libnosys.a(close.o)
 .ARM.attributes
                0x0000000000000c57       0x34 /usr/lib/gcc/arm-none-eabi/9.2.1/../../../arm-none-eabi/lib/thumb/v7e-m+fp/hard/libnosys.a(fstat.o)
 .ARM.attributes
                0x0000000000000c8b       0x34 /usr/lib/gcc/arm-none-eabi/9.2.1/../../../arm-none-eabi/lib/thumb/v7e-m+fp/hard/libnosys.a(isatty.o)
 .ARM.attributes
                0x0000000000000cbf       0x34 /usr/lib/gcc/arm-none-eabi/9.2.1/../../../arm-none-eabi/lib/thumb/v7e-m+fp/hard/libnosys.a(lseek.o)
 .ARM.attributes
                0x0000000000000cf3       0x34 /usr/lib/gcc/arm-none-eabi/9.2.1/../../../arm-none-eabi/lib/thumb/v7e-m+fp/hard/libnosys.a(read.o)
 .ARM.attributes
                0x0000000000000d27       0x34 /usr/lib/gcc/arm-none-eabi/9.2.1/../../../arm-none-eabi/lib/thumb/v7e-m+fp/hard/libnosys.a(sbrk.o)
 .ARM.attributes
                0x0000000000000d5b       0x34 /usr/lib/gcc/arm-none-eabi/9.2.1/../../../arm-none-eabi/lib/thumb/v7e-m+fp/hard/libnosys.a(write.o)
 .ARM.attributes
                0x0000000000000d8f       0x1e /usr/lib/gcc/arm-none-eabi/9.2.1/thumb/v7e-m+fp/hard/libgcc.a(_arm_addsubdf3.o)
 .ARM.attributes
                0x0000000000000dad       0x1e /usr/lib/gcc/arm-none-eabi/9.2.1/thumb/v7e-m+fp/hard/libgcc.a(_arm_muldivdf3.o)
 .ARM.attributes
                0x0000000000000dcb       0x1e /usr/lib/gcc/arm-none-eabi/9.2.1/thumb/v7e-m+fp/hard/libgcc.a(_arm_cmpdf2.o)
 .ARM.attributes
                0x0000000000000de9       0x1e /usr/lib/gcc/arm-none-eabi/9.2.1/thumb/v7e-m+fp/hard/libgcc.a(_arm_unorddf2.o)
 .ARM.attributes
                0x0000000000000e07       0x1e /usr/lib/gcc/arm-none-eabi/9.2.1/thumb/v7e-m+fp/hard/libgcc.a(_arm_fixunsdfsi.o)
 .ARM.attributes
                0x0000000000000e25       0x34 /usr/lib/gcc/arm-none-eabi/9.2.1/../../../arm-none-eabi/lib/thumb/v7e-m+fp/hard/libc_nano.a(lib_a-errno.o)
 .ARM.attributes
                0x0000000000000e59       0x32 /usr/lib/gcc/arm-none-eabi/9.2.1/thumb/v7e-m+fp/hard/crtend.o
 .ARM.attributes
                0x0000000000000e8b       0x1e /usr/lib/gcc/arm-none-eabi/9.2.1/thumb/v7e-m+fp/hard/crtn.o
OUTPUT(build/template.elf elf32-littlearm)
LOAD linker stubs
LOAD /usr/lib/gcc/arm-none-eabi/9.2.1/../../../arm-none-eabi/lib/thumb/v7e-m+fp/hard/libc.a
LOAD /usr/lib/gcc/arm-none-eabi/9.2.1/../../../arm-none-eabi/lib/thumb/v7e-m+fp/hard/libm.a
LOAD /usr/lib/gcc/arm-none-eabi/9.2.1/thumb/v7e-m+fp/hard/libgcc.a

.comment        0x0000000000000000       0xa7
 .comment       0x0000000000000000       0x59 /usr/lib/gcc/arm-none-eabi/9.2.1/thumb/v7e-m+fp/hard/crtbegin.o
                                         0x5a (size before relaxing)
 .comment       0x0000000000000059       0x5a build/main.o
 .comment       0x0000000000000059       0x5a build/delay.o
 .comment       0x0000000000000059       0x5a build/24c02.o
 .comment       0x0000000000000059       0x5a build/ctpiic.o
 .comment       0x0000000000000059       0x5a build/exti.o
 .comment       0x0000000000000059       0x5a build/ft5426.o
 .comment       0x0000000000000059       0x5a build/GT911.o
 .comment       0x0000000000000059       0x5a build/gui.o
 .comment       0x0000000000000059       0x5a build/iic.o
 .comment       0x0000000000000059       0x5a build/key.o
 .comment       0x0000000000000059       0x5a build/lcd.o
 .comment       0x0000000000000059       0x5a build/led.o
 .comment       0x0000000000000059       0x5a build/rtp.o
 .comment       0x0000000000000059       0x5a build/test.o
 .comment       0x0000000000000059       0x5a build/touch.o
 .comment       0x0000000000000059       0x5a build/usart.o
 .comment       0x0000000000000059       0x5a build/stm32f4xx_it.o
 .comment       0x0000000000000059       0x5a build/misc.o
 .comment       0x0000000000000059       0x5a build/stm32f4xx_exti.o
 .comment       0x0000000000000059       0x5a build/stm32f4xx_fsmc.o
 .comment       0x0000000000000059       0x5a build/stm32f4xx_gpio.o
 .comment       0x0000000000000059       0x5a build/stm32f4xx_rcc.o
 .comment       0x0000000000000059       0x5a build/stm32f4xx_usart.o
 .comment       0x0000000000000059       0x5a build/system_stm32f4xx.o
 .comment       0x0000000000000059       0x4e /usr/lib/gcc/arm-none-eabi/9.2.1/../../../arm-none-eabi/lib/thumb/v7e-m+fp/hard/libc_nano.a(lib_a-impure.o)
                                         0x4f (size before relaxing)
 .comment       0x00000000000000a7       0x4f /usr/lib/gcc/arm-none-eabi/9.2.1/../../../arm-none-eabi/lib/thumb/v7e-m+fp/hard/libc_nano.a(lib_a-init.o)
 .comment       0x00000000000000a7       0x4f /usr/lib/gcc/arm-none-eabi/9.2.1/../../../arm-none-eabi/lib/thumb/v7e-m+fp/hard/libc_nano.a(lib_a-memset.o)
 .comment       0x00000000000000a7       0x4f /usr/lib/gcc/arm-none-eabi/9.2.1/../../../arm-none-eabi/lib/thumb/v7e-m+fp/hard/libc_nano.a(lib_a-printf.o)
 .comment       0x00000000000000a7       0x4f /usr/lib/gcc/arm-none-eabi/9.2.1/../../../arm-none-eabi/lib/thumb/v7e-m+fp/hard/libc_nano.a(lib_a-puts.o)
 .comment       0x00000000000000a7       0x4f /usr/lib/gcc/arm-none-eabi/9.2.1/../../../arm-none-eabi/lib/thumb/v7e-m+fp/hard/libc_nano.a(lib_a-wbuf.o)
 .comment       0x00000000000000a7       0x4f /usr/lib/gcc/arm-none-eabi/9.2.1/../../../arm-none-eabi/lib/thumb/v7e-m+fp/hard/libc_nano.a(lib_a-wsetup.o)
 .comment       0x00000000000000a7       0x4f /usr/lib/gcc/arm-none-eabi/9.2.1/../../../arm-none-eabi/lib/thumb/v7e-m+fp/hard/libc_nano.a(lib_a-fflush.o)
 .comment       0x00000000000000a7       0x4f /usr/lib/gcc/arm-none-eabi/9.2.1/../../../arm-none-eabi/lib/thumb/v7e-m+fp/hard/libc_nano.a(lib_a-findfp.o)
 .comment       0x00000000000000a7       0x4f /usr/lib/gcc/arm-none-eabi/9.2.1/../../../arm-none-eabi/lib/thumb/v7e-m+fp/hard/libc_nano.a(lib_a-fwalk.o)
 .comment       0x00000000000000a7       0x4f /usr/lib/gcc/arm-none-eabi/9.2.1/../../../arm-none-eabi/lib/thumb/v7e-m+fp/hard/libc_nano.a(lib_a-makebuf.o)
 .comment       0x00000000000000a7       0x4f /usr/lib/gcc/arm-none-eabi/9.2.1/../../../arm-none-eabi/lib/thumb/v7e-m+fp/hard/libc_nano.a(lib_a-nano-freer.o)
 .comment       0x00000000000000a7       0x4f /usr/lib/gcc/arm-none-eabi/9.2.1/../../../arm-none-eabi/lib/thumb/v7e-m+fp/hard/libc_nano.a(lib_a-nano-mallocr.o)
 .comment       0x00000000000000a7       0x4f /usr/lib/gcc/arm-none-eabi/9.2.1/../../../arm-none-eabi/lib/thumb/v7e-m+fp/hard/libc_nano.a(lib_a-nano-vfprintf.o)
 .comment       0x00000000000000a7       0x4f /usr/lib/gcc/arm-none-eabi/9.2.1/../../../arm-none-eabi/lib/thumb/v7e-m+fp/hard/libc_nano.a(lib_a-nano-vfprintf_i.o)
 .comment       0x00000000000000a7       0x4f /usr/lib/gcc/arm-none-eabi/9.2.1/../../../arm-none-eabi/lib/thumb/v7e-m+fp/hard/libc_nano.a(lib_a-sbrkr.o)
 .comment       0x00000000000000a7       0x4f /usr/lib/gcc/arm-none-eabi/9.2.1/../../../arm-none-eabi/lib/thumb/v7e-m+fp/hard/libc_nano.a(lib_a-stdio.o)
 .comment       0x00000000000000a7       0x4f /usr/lib/gcc/arm-none-eabi/9.2.1/../../../arm-none-eabi/lib/thumb/v7e-m+fp/hard/libc_nano.a(lib_a-writer.o)
 .comment       0x00000000000000a7       0x4f /usr/lib/gcc/arm-none-eabi/9.2.1/../../../arm-none-eabi/lib/thumb/v7e-m+fp/hard/libc_nano.a(lib_a-closer.o)
 .comment       0x00000000000000a7       0x4f /usr/lib/gcc/arm-none-eabi/9.2.1/../../../arm-none-eabi/lib/thumb/v7e-m+fp/hard/libc_nano.a(lib_a-fstatr.o)
 .comment       0x00000000000000a7       0x4f /usr/lib/gcc/arm-none-eabi/9.2.1/../../../arm-none-eabi/lib/thumb/v7e-m+fp/hard/libc_nano.a(lib_a-fvwrite.o)
 .comment       0x00000000000000a7       0x4f /usr/lib/gcc/arm-none-eabi/9.2.1/../../../arm-none-eabi/lib/thumb/v7e-m+fp/hard/libc_nano.a(lib_a-isattyr.o)
 .comment       0x00000000000000a7       0x4f /usr/lib/gcc/arm-none-eabi/9.2.1/../../../arm-none-eabi/lib/thumb/v7e-m+fp/hard/libc_nano.a(lib_a-lseekr.o)
 .comment       0x00000000000000a7       0x4f /usr/lib/gcc/arm-none-eabi/9.2.1/../../../arm-none-eabi/lib/thumb/v7e-m+fp/hard/libc_nano.a(lib_a-memmove.o)
 .comment       0x00000000000000a7       0x4f /usr/lib/gcc/arm-none-eabi/9.2.1/../../../arm-none-eabi/lib/thumb/v7e-m+fp/hard/libc_nano.a(lib_a-mlock.o)
 .comment       0x00000000000000a7       0x4f /usr/lib/gcc/arm-none-eabi/9.2.1/../../../arm-none-eabi/lib/thumb/v7e-m+fp/hard/libc_nano.a(lib_a-nano-reallocr.o)
 .comment       0x00000000000000a7       0x4f /usr/lib/gcc/arm-none-eabi/9.2.1/../../../arm-none-eabi/lib/thumb/v7e-m+fp/hard/libc_nano.a(lib_a-readr.o)
 .comment       0x00000000000000a7       0x4f /usr/lib/gcc/arm-none-eabi/9.2.1/../../../arm-none-eabi/lib/thumb/v7e-m+fp/hard/libc_nano.a(lib_a-reent.o)
 .comment       0x00000000000000a7       0x4f /usr/lib/gcc/arm-none-eabi/9.2.1/../../../arm-none-eabi/lib/thumb/v7e-m+fp/hard/libc_nano.a(lib_a-nano-msizer.o)
 .comment       0x00000000000000a7       0x4f /usr/lib/gcc/arm-none-eabi/9.2.1/../../../arm-none-eabi/lib/thumb/v7e-m+fp/hard/libm.a(lib_a-w_sqrt.o)
 .comment       0x00000000000000a7       0x4f /usr/lib/gcc/arm-none-eabi/9.2.1/../../../arm-none-eabi/lib/thumb/v7e-m+fp/hard/libm.a(lib_a-e_sqrt.o)
 .comment       0x00000000000000a7       0x4f /usr/lib/gcc/arm-none-eabi/9.2.1/../../../arm-none-eabi/lib/thumb/v7e-m+fp/hard/libm.a(lib_a-s_lib_ver.o)
 .comment       0x00000000000000a7       0x4f /usr/lib/gcc/arm-none-eabi/9.2.1/../../../arm-none-eabi/lib/thumb/v7e-m+fp/hard/libnosys.a(close.o)
 .comment       0x00000000000000a7       0x4f /usr/lib/gcc/arm-none-eabi/9.2.1/../../../arm-none-eabi/lib/thumb/v7e-m+fp/hard/libnosys.a(fstat.o)
 .comment       0x00000000000000a7       0x4f /usr/lib/gcc/arm-none-eabi/9.2.1/../../../arm-none-eabi/lib/thumb/v7e-m+fp/hard/libnosys.a(isatty.o)
 .comment       0x00000000000000a7       0x4f /usr/lib/gcc/arm-none-eabi/9.2.1/../../../arm-none-eabi/lib/thumb/v7e-m+fp/hard/libnosys.a(lseek.o)
 .comment       0x00000000000000a7       0x4f /usr/lib/gcc/arm-none-eabi/9.2.1/../../../arm-none-eabi/lib/thumb/v7e-m+fp/hard/libnosys.a(read.o)
 .comment       0x00000000000000a7       0x4f /usr/lib/gcc/arm-none-eabi/9.2.1/../../../arm-none-eabi/lib/thumb/v7e-m+fp/hard/libnosys.a(sbrk.o)
 .comment       0x00000000000000a7       0x4f /usr/lib/gcc/arm-none-eabi/9.2.1/../../../arm-none-eabi/lib/thumb/v7e-m+fp/hard/libnosys.a(write.o)
 .comment       0x00000000000000a7       0x4f /usr/lib/gcc/arm-none-eabi/9.2.1/../../../arm-none-eabi/lib/thumb/v7e-m+fp/hard/libc_nano.a(lib_a-errno.o)
 .comment       0x00000000000000a7       0x5a /usr/lib/gcc/arm-none-eabi/9.2.1/thumb/v7e-m+fp/hard/crtend.o

.debug_info     0x0000000000000000    0x39226
 .debug_info    0x0000000000000000      0xd8c build/main.o
 .debug_info    0x0000000000000d8c      0x2bf build/delay.o
 .debug_info    0x000000000000104b      0x569 build/24c02.o
 .debug_info    0x00000000000015b4      0x573 build/ctpiic.o
 .debug_info    0x0000000000001b27      0x527 build/exti.o
 .debug_info    0x000000000000204e     0x130d build/ft5426.o
 .debug_info    0x000000000000335b     0x148e build/GT911.o
 .debug_info    0x00000000000047e9     0x2f6a build/gui.o
 .debug_info    0x0000000000007753      0x5ca build/iic.o
 .debug_info    0x0000000000007d1d      0x3d6 build/key.o
 .debug_info    0x00000000000080f3     0xae99 build/lcd.o
 .debug_info    0x0000000000012f8c      0x398 build/led.o
 .debug_info    0x0000000000013324     0x206f build/rtp.o
 .debug_info    0x0000000000015393     0x124d build/test.o
 .debug_info    0x00000000000165e0      0x30d build/touch.o
 .debug_info    0x00000000000168ed     0x157b build/usart.o
 .debug_info    0x0000000000017e68      0x170 build/stm32f4xx_it.o
 .debug_info    0x0000000000017fd8      0x601 build/misc.o
 .debug_info    0x00000000000185d9      0x3bc build/stm32f4xx_exti.o
 .debug_info    0x0000000000018995      0xabf build/stm32f4xx_fsmc.o
 .debug_info    0x0000000000019454      0x91b build/stm32f4xx_gpio.o
 .debug_info    0x0000000000019d6f     0x111b build/stm32f4xx_rcc.o
 .debug_info    0x000000000001ae8a      0xd37 build/stm32f4xx_usart.o
 .debug_info    0x000000000001bbc1      0x6d6 build/system_stm32f4xx.o
 .debug_info    0x000000000001c297       0x22 build/startup_stm32f407xx.o
 .debug_info    0x000000000001c2b9      0x92a /usr/lib/gcc/arm-none-eabi/9.2.1/../../../arm-none-eabi/lib/thumb/v7e-m+fp/hard/libc_nano.a(lib_a-impure.o)
 .debug_info    0x000000000001cbe3      0x11a /usr/lib/gcc/arm-none-eabi/9.2.1/../../../arm-none-eabi/lib/thumb/v7e-m+fp/hard/libc_nano.a(lib_a-init.o)
 .debug_info    0x000000000001ccfd      0xf21 /usr/lib/gcc/arm-none-eabi/9.2.1/../../../arm-none-eabi/lib/thumb/v7e-m+fp/hard/libc_nano.a(lib_a-memset.o)
 .debug_info    0x000000000001dc1e      0xc67 /usr/lib/gcc/arm-none-eabi/9.2.1/../../../arm-none-eabi/lib/thumb/v7e-m+fp/hard/libc_nano.a(lib_a-printf.o)
 .debug_info    0x000000000001e885      0xd13 /usr/lib/gcc/arm-none-eabi/9.2.1/../../../arm-none-eabi/lib/thumb/v7e-m+fp/hard/libc_nano.a(lib_a-puts.o)
 .debug_info    0x000000000001f598       0x26 /usr/lib/gcc/arm-none-eabi/9.2.1/../../../arm-none-eabi/lib/thumb/v7e-m+fp/hard/libc_nano.a(lib_a-strlen.o)
 .debug_info    0x000000000001f5be      0xc90 /usr/lib/gcc/arm-none-eabi/9.2.1/../../../arm-none-eabi/lib/thumb/v7e-m+fp/hard/libc_nano.a(lib_a-wbuf.o)
 .debug_info    0x000000000002024e      0xbfa /usr/lib/gcc/arm-none-eabi/9.2.1/../../../arm-none-eabi/lib/thumb/v7e-m+fp/hard/libc_nano.a(lib_a-wsetup.o)
 .debug_info    0x0000000000020e48      0xd73 /usr/lib/gcc/arm-none-eabi/9.2.1/../../../arm-none-eabi/lib/thumb/v7e-m+fp/hard/libc_nano.a(lib_a-fflush.o)
 .debug_info    0x0000000000021bbb     0x11a8 /usr/lib/gcc/arm-none-eabi/9.2.1/../../../arm-none-eabi/lib/thumb/v7e-m+fp/hard/libc_nano.a(lib_a-findfp.o)
 .debug_info    0x0000000000022d63      0xca4 /usr/lib/gcc/arm-none-eabi/9.2.1/../../../arm-none-eabi/lib/thumb/v7e-m+fp/hard/libc_nano.a(lib_a-fwalk.o)
 .debug_info    0x0000000000023a07      0xf68 /usr/lib/gcc/arm-none-eabi/9.2.1/../../../arm-none-eabi/lib/thumb/v7e-m+fp/hard/libc_nano.a(lib_a-makebuf.o)
 .debug_info    0x000000000002496f      0xb85 /usr/lib/gcc/arm-none-eabi/9.2.1/../../../arm-none-eabi/lib/thumb/v7e-m+fp/hard/libc_nano.a(lib_a-nano-freer.o)
 .debug_info    0x00000000000254f4      0xc5a /usr/lib/gcc/arm-none-eabi/9.2.1/../../../arm-none-eabi/lib/thumb/v7e-m+fp/hard/libc_nano.a(lib_a-nano-mallocr.o)
 .debug_info    0x000000000002614e     0x176a /usr/lib/gcc/arm-none-eabi/9.2.1/../../../arm-none-eabi/lib/thumb/v7e-m+fp/hard/libc_nano.a(lib_a-nano-vfprintf.o)
 .debug_info    0x00000000000278b8     0x1592 /usr/lib/gcc/arm-none-eabi/9.2.1/../../../arm-none-eabi/lib/thumb/v7e-m+fp/hard/libc_nano.a(lib_a-nano-vfprintf_i.o)
 .debug_info    0x0000000000028e4a      0x9fb /usr/lib/gcc/arm-none-eabi/9.2.1/../../../arm-none-eabi/lib/thumb/v7e-m+fp/hard/libc_nano.a(lib_a-sbrkr.o)
 .debug_info    0x0000000000029845      0xe67 /usr/lib/gcc/arm-none-eabi/9.2.1/../../../arm-none-eabi/lib/thumb/v7e-m+fp/hard/libc_nano.a(lib_a-stdio.o)
 .debug_info    0x000000000002a6ac      0xa2c /usr/lib/gcc/arm-none-eabi/9.2.1/../../../arm-none-eabi/lib/thumb/v7e-m+fp/hard/libc_nano.a(lib_a-writer.o)
 .debug_info    0x000000000002b0d8      0x9d8 /usr/lib/gcc/arm-none-eabi/9.2.1/../../../arm-none-eabi/lib/thumb/v7e-m+fp/hard/libc_nano.a(lib_a-closer.o)
 .debug_info    0x000000000002bab0      0xc24 /usr/lib/gcc/arm-none-eabi/9.2.1/../../../arm-none-eabi/lib/thumb/v7e-m+fp/hard/libc_nano.a(lib_a-fstatr.o)
 .debug_info    0x000000000002c6d4      0xeed /usr/lib/gcc/arm-none-eabi/9.2.1/../../../arm-none-eabi/lib/thumb/v7e-m+fp/hard/libc_nano.a(lib_a-fvwrite.o)
 .debug_info    0x000000000002d5c1      0x9d8 /usr/lib/gcc/arm-none-eabi/9.2.1/../../../arm-none-eabi/lib/thumb/v7e-m+fp/hard/libc_nano.a(lib_a-isattyr.o)
 .debug_info    0x000000000002df99      0xa0d /usr/lib/gcc/arm-none-eabi/9.2.1/../../../arm-none-eabi/lib/thumb/v7e-m+fp/hard/libc_nano.a(lib_a-lseekr.o)
 .debug_info    0x000000000002e9a6       0x26 /usr/lib/gcc/arm-none-eabi/9.2.1/../../../arm-none-eabi/lib/thumb/v7e-m+fp/hard/libc_nano.a(lib_a-memchr.o)
 .debug_info    0x000000000002e9cc       0x26 /usr/lib/gcc/arm-none-eabi/9.2.1/../../../arm-none-eabi/lib/thumb/v7e-m+fp/hard/libc_nano.a(lib_a-memcpy.o)
 .debug_info    0x000000000002e9f2      0xf2b /usr/lib/gcc/arm-none-eabi/9.2.1/../../../arm-none-eabi/lib/thumb/v7e-m+fp/hard/libc_nano.a(lib_a-memmove.o)
 .debug_info    0x000000000002f91d      0x961 /usr/lib/gcc/arm-none-eabi/9.2.1/../../../arm-none-eabi/lib/thumb/v7e-m+fp/hard/libc_nano.a(lib_a-mlock.o)
 .debug_info    0x000000000003027e      0xb77 /usr/lib/gcc/arm-none-eabi/9.2.1/../../../arm-none-eabi/lib/thumb/v7e-m+fp/hard/libc_nano.a(lib_a-nano-reallocr.o)
 .debug_info    0x0000000000030df5      0xa25 /usr/lib/gcc/arm-none-eabi/9.2.1/../../../arm-none-eabi/lib/thumb/v7e-m+fp/hard/libc_nano.a(lib_a-readr.o)
 .debug_info    0x000000000003181a      0xb0f /usr/lib/gcc/arm-none-eabi/9.2.1/../../../arm-none-eabi/lib/thumb/v7e-m+fp/hard/libc_nano.a(lib_a-reent.o)
 .debug_info    0x0000000000032329      0xaa6 /usr/lib/gcc/arm-none-eabi/9.2.1/../../../arm-none-eabi/lib/thumb/v7e-m+fp/hard/libc_nano.a(lib_a-nano-msizer.o)
 .debug_info    0x0000000000032dcf      0x9ee /usr/lib/gcc/arm-none-eabi/9.2.1/../../../arm-none-eabi/lib/thumb/v7e-m+fp/hard/libm.a(lib_a-w_sqrt.o)
 .debug_info    0x00000000000337bd      0xb33 /usr/lib/gcc/arm-none-eabi/9.2.1/../../../arm-none-eabi/lib/thumb/v7e-m+fp/hard/libm.a(lib_a-e_sqrt.o)
 .debug_info    0x00000000000342f0      0x94b /usr/lib/gcc/arm-none-eabi/9.2.1/../../../arm-none-eabi/lib/thumb/v7e-m+fp/hard/libm.a(lib_a-s_lib_ver.o)
 .debug_info    0x0000000000034c3b      0x96e /usr/lib/gcc/arm-none-eabi/9.2.1/../../../arm-none-eabi/lib/thumb/v7e-m+fp/hard/libnosys.a(close.o)
 .debug_info    0x00000000000355a9      0xbb1 /usr/lib/gcc/arm-none-eabi/9.2.1/../../../arm-none-eabi/lib/thumb/v7e-m+fp/hard/libnosys.a(fstat.o)
 .debug_info    0x000000000003615a      0x96e /usr/lib/gcc/arm-none-eabi/9.2.1/../../../arm-none-eabi/lib/thumb/v7e-m+fp/hard/libnosys.a(isatty.o)
 .debug_info    0x0000000000036ac8      0x990 /usr/lib/gcc/arm-none-eabi/9.2.1/../../../arm-none-eabi/lib/thumb/v7e-m+fp/hard/libnosys.a(lseek.o)
 .debug_info    0x0000000000037458      0x990 /usr/lib/gcc/arm-none-eabi/9.2.1/../../../arm-none-eabi/lib/thumb/v7e-m+fp/hard/libnosys.a(read.o)
 .debug_info    0x0000000000037de8       0x9d /usr/lib/gcc/arm-none-eabi/9.2.1/../../../arm-none-eabi/lib/thumb/v7e-m+fp/hard/libnosys.a(sbrk.o)
 .debug_info    0x0000000000037e85      0x990 /usr/lib/gcc/arm-none-eabi/9.2.1/../../../arm-none-eabi/lib/thumb/v7e-m+fp/hard/libnosys.a(write.o)
 .debug_info    0x0000000000038815       0x26 /usr/lib/gcc/arm-none-eabi/9.2.1/thumb/v7e-m+fp/hard/libgcc.a(_arm_addsubdf3.o)
 .debug_info    0x000000000003883b       0x26 /usr/lib/gcc/arm-none-eabi/9.2.1/thumb/v7e-m+fp/hard/libgcc.a(_arm_muldivdf3.o)
 .debug_info    0x0000000000038861       0x26 /usr/lib/gcc/arm-none-eabi/9.2.1/thumb/v7e-m+fp/hard/libgcc.a(_arm_cmpdf2.o)
 .debug_info    0x0000000000038887       0x26 /usr/lib/gcc/arm-none-eabi/9.2.1/thumb/v7e-m+fp/hard/libgcc.a(_arm_unorddf2.o)
 .debug_info    0x00000000000388ad       0x26 /usr/lib/gcc/arm-none-eabi/9.2.1/thumb/v7e-m+fp/hard/libgcc.a(_arm_fixunsdfsi.o)
 .debug_info    0x00000000000388d3      0x953 /usr/lib/gcc/arm-none-eabi/9.2.1/../../../arm-none-eabi/lib/thumb/v7e-m+fp/hard/libc_nano.a(lib_a-errno.o)

.debug_abbrev   0x0000000000000000     0x8dcf
 .debug_abbrev  0x0000000000000000      0x224 build/main.o
 .debug_abbrev  0x0000000000000224      0x17b build/delay.o
 .debug_abbrev  0x000000000000039f      0x14d build/24c02.o
 .debug_abbrev  0x00000000000004ec      0x1f6 build/ctpiic.o
 .debug_abbrev  0x00000000000006e2      0x17f build/exti.o
 .debug_abbrev  0x0000000000000861      0x2f6 build/ft5426.o
 .debug_abbrev  0x0000000000000b57      0x372 build/GT911.o
 .debug_abbrev  0x0000000000000ec9      0x38a build/gui.o
 .debug_abbrev  0x0000000000001253      0x1f6 build/iic.o
 .debug_abbrev  0x0000000000001449      0x1c3 build/key.o
 .debug_abbrev  0x000000000000160c      0x43b build/lcd.o
 .debug_abbrev  0x0000000000001a47      0x16e build/led.o
 .debug_abbrev  0x0000000000001bb5      0x3ce build/rtp.o
 .debug_abbrev  0x0000000000001f83      0x2d9 build/test.o
 .debug_abbrev  0x000000000000225c      0x161 build/touch.o
 .debug_abbrev  0x00000000000023bd      0x334 build/usart.o
 .debug_abbrev  0x00000000000026f1       0x82 build/stm32f4xx_it.o
 .debug_abbrev  0x0000000000002773      0x18d build/misc.o
 .debug_abbrev  0x0000000000002900      0x239 build/stm32f4xx_exti.o
 .debug_abbrev  0x0000000000002b39      0x226 build/stm32f4xx_fsmc.o
 .debug_abbrev  0x0000000000002d5f      0x26f build/stm32f4xx_gpio.o
 .debug_abbrev  0x0000000000002fce      0x266 build/stm32f4xx_rcc.o
 .debug_abbrev  0x0000000000003234      0x230 build/stm32f4xx_usart.o
 .debug_abbrev  0x0000000000003464      0x19c build/system_stm32f4xx.o
 .debug_abbrev  0x0000000000003600       0x12 build/startup_stm32f407xx.o
 .debug_abbrev  0x0000000000003612      0x17a /usr/lib/gcc/arm-none-eabi/9.2.1/../../../arm-none-eabi/lib/thumb/v7e-m+fp/hard/libc_nano.a(lib_a-impure.o)
 .debug_abbrev  0x000000000000378c       0xcc /usr/lib/gcc/arm-none-eabi/9.2.1/../../../arm-none-eabi/lib/thumb/v7e-m+fp/hard/libc_nano.a(lib_a-init.o)
 .debug_abbrev  0x0000000000003858      0x1d9 /usr/lib/gcc/arm-none-eabi/9.2.1/../../../arm-none-eabi/lib/thumb/v7e-m+fp/hard/libc_nano.a(lib_a-memset.o)
 .debug_abbrev  0x0000000000003a31      0x29f /usr/lib/gcc/arm-none-eabi/9.2.1/../../../arm-none-eabi/lib/thumb/v7e-m+fp/hard/libc_nano.a(lib_a-printf.o)
 .debug_abbrev  0x0000000000003cd0      0x2de /usr/lib/gcc/arm-none-eabi/9.2.1/../../../arm-none-eabi/lib/thumb/v7e-m+fp/hard/libc_nano.a(lib_a-puts.o)
 .debug_abbrev  0x0000000000003fae       0x14 /usr/lib/gcc/arm-none-eabi/9.2.1/../../../arm-none-eabi/lib/thumb/v7e-m+fp/hard/libc_nano.a(lib_a-strlen.o)
 .debug_abbrev  0x0000000000003fc2      0x285 /usr/lib/gcc/arm-none-eabi/9.2.1/../../../arm-none-eabi/lib/thumb/v7e-m+fp/hard/libc_nano.a(lib_a-wbuf.o)
 .debug_abbrev  0x0000000000004247      0x23a /usr/lib/gcc/arm-none-eabi/9.2.1/../../../arm-none-eabi/lib/thumb/v7e-m+fp/hard/libc_nano.a(lib_a-wsetup.o)
 .debug_abbrev  0x0000000000004481      0x2e4 /usr/lib/gcc/arm-none-eabi/9.2.1/../../../arm-none-eabi/lib/thumb/v7e-m+fp/hard/libc_nano.a(lib_a-fflush.o)
 .debug_abbrev  0x0000000000004765      0x3dc /usr/lib/gcc/arm-none-eabi/9.2.1/../../../arm-none-eabi/lib/thumb/v7e-m+fp/hard/libc_nano.a(lib_a-findfp.o)
 .debug_abbrev  0x0000000000004b41      0x210 /usr/lib/gcc/arm-none-eabi/9.2.1/../../../arm-none-eabi/lib/thumb/v7e-m+fp/hard/libc_nano.a(lib_a-fwalk.o)
 .debug_abbrev  0x0000000000004d51      0x2f6 /usr/lib/gcc/arm-none-eabi/9.2.1/../../../arm-none-eabi/lib/thumb/v7e-m+fp/hard/libc_nano.a(lib_a-makebuf.o)
 .debug_abbrev  0x0000000000005047      0x286 /usr/lib/gcc/arm-none-eabi/9.2.1/../../../arm-none-eabi/lib/thumb/v7e-m+fp/hard/libc_nano.a(lib_a-nano-freer.o)
 .debug_abbrev  0x00000000000052cd      0x2d1 /usr/lib/gcc/arm-none-eabi/9.2.1/../../../arm-none-eabi/lib/thumb/v7e-m+fp/hard/libc_nano.a(lib_a-nano-mallocr.o)
 .debug_abbrev  0x000000000000559e      0x337 /usr/lib/gcc/arm-none-eabi/9.2.1/../../../arm-none-eabi/lib/thumb/v7e-m+fp/hard/libc_nano.a(lib_a-nano-vfprintf.o)
 .debug_abbrev  0x00000000000058d5      0x2dc /usr/lib/gcc/arm-none-eabi/9.2.1/../../../arm-none-eabi/lib/thumb/v7e-m+fp/hard/libc_nano.a(lib_a-nano-vfprintf_i.o)
 .debug_abbrev  0x0000000000005bb1      0x212 /usr/lib/gcc/arm-none-eabi/9.2.1/../../../arm-none-eabi/lib/thumb/v7e-m+fp/hard/libc_nano.a(lib_a-sbrkr.o)
 .debug_abbrev  0x0000000000005dc3      0x26f /usr/lib/gcc/arm-none-eabi/9.2.1/../../../arm-none-eabi/lib/thumb/v7e-m+fp/hard/libc_nano.a(lib_a-stdio.o)
 .debug_abbrev  0x0000000000006032      0x1ec /usr/lib/gcc/arm-none-eabi/9.2.1/../../../arm-none-eabi/lib/thumb/v7e-m+fp/hard/libc_nano.a(lib_a-writer.o)
 .debug_abbrev  0x000000000000621e      0x1e7 /usr/lib/gcc/arm-none-eabi/9.2.1/../../../arm-none-eabi/lib/thumb/v7e-m+fp/hard/libc_nano.a(lib_a-closer.o)
 .debug_abbrev  0x0000000000006405      0x1fb /usr/lib/gcc/arm-none-eabi/9.2.1/../../../arm-none-eabi/lib/thumb/v7e-m+fp/hard/libc_nano.a(lib_a-fstatr.o)
 .debug_abbrev  0x0000000000006600      0x270 /usr/lib/gcc/arm-none-eabi/9.2.1/../../../arm-none-eabi/lib/thumb/v7e-m+fp/hard/libc_nano.a(lib_a-fvwrite.o)
 .debug_abbrev  0x0000000000006870      0x1e7 /usr/lib/gcc/arm-none-eabi/9.2.1/../../../arm-none-eabi/lib/thumb/v7e-m+fp/hard/libc_nano.a(lib_a-isattyr.o)
 .debug_abbrev  0x0000000000006a57      0x1fb /usr/lib/gcc/arm-none-eabi/9.2.1/../../../arm-none-eabi/lib/thumb/v7e-m+fp/hard/libc_nano.a(lib_a-lseekr.o)
 .debug_abbrev  0x0000000000006c52       0x14 /usr/lib/gcc/arm-none-eabi/9.2.1/../../../arm-none-eabi/lib/thumb/v7e-m+fp/hard/libc_nano.a(lib_a-memchr.o)
 .debug_abbrev  0x0000000000006c66       0x14 /usr/lib/gcc/arm-none-eabi/9.2.1/../../../arm-none-eabi/lib/thumb/v7e-m+fp/hard/libc_nano.a(lib_a-memcpy.o)
 .debug_abbrev  0x0000000000006c7a      0x1de /usr/lib/gcc/arm-none-eabi/9.2.1/../../../arm-none-eabi/lib/thumb/v7e-m+fp/hard/libc_nano.a(lib_a-memmove.o)
 .debug_abbrev  0x0000000000006e58      0x1c5 /usr/lib/gcc/arm-none-eabi/9.2.1/../../../arm-none-eabi/lib/thumb/v7e-m+fp/hard/libc_nano.a(lib_a-mlock.o)
 .debug_abbrev  0x000000000000701d      0x22a /usr/lib/gcc/arm-none-eabi/9.2.1/../../../arm-none-eabi/lib/thumb/v7e-m+fp/hard/libc_nano.a(lib_a-nano-reallocr.o)
 .debug_abbrev  0x0000000000007247      0x1e7 /usr/lib/gcc/arm-none-eabi/9.2.1/../../../arm-none-eabi/lib/thumb/v7e-m+fp/hard/libc_nano.a(lib_a-readr.o)
 .debug_abbrev  0x000000000000742e      0x268 /usr/lib/gcc/arm-none-eabi/9.2.1/../../../arm-none-eabi/lib/thumb/v7e-m+fp/hard/libc_nano.a(lib_a-reent.o)
 .debug_abbrev  0x0000000000007696      0x1e5 /usr/lib/gcc/arm-none-eabi/9.2.1/../../../arm-none-eabi/lib/thumb/v7e-m+fp/hard/libc_nano.a(lib_a-nano-msizer.o)
 .debug_abbrev  0x000000000000787b      0x25e /usr/lib/gcc/arm-none-eabi/9.2.1/../../../arm-none-eabi/lib/thumb/v7e-m+fp/hard/libm.a(lib_a-w_sqrt.o)
 .debug_abbrev  0x0000000000007ad9      0x286 /usr/lib/gcc/arm-none-eabi/9.2.1/../../../arm-none-eabi/lib/thumb/v7e-m+fp/hard/libm.a(lib_a-e_sqrt.o)
 .debug_abbrev  0x0000000000007d5f      0x1d4 /usr/lib/gcc/arm-none-eabi/9.2.1/../../../arm-none-eabi/lib/thumb/v7e-m+fp/hard/libm.a(lib_a-s_lib_ver.o)
 .debug_abbrev  0x0000000000007f33      0x1ea /usr/lib/gcc/arm-none-eabi/9.2.1/../../../arm-none-eabi/lib/thumb/v7e-m+fp/hard/libnosys.a(close.o)
 .debug_abbrev  0x000000000000811d      0x1fd /usr/lib/gcc/arm-none-eabi/9.2.1/../../../arm-none-eabi/lib/thumb/v7e-m+fp/hard/libnosys.a(fstat.o)
 .debug_abbrev  0x000000000000831a      0x1ea /usr/lib/gcc/arm-none-eabi/9.2.1/../../../arm-none-eabi/lib/thumb/v7e-m+fp/hard/libnosys.a(isatty.o)
 .debug_abbrev  0x0000000000008504      0x20f /usr/lib/gcc/arm-none-eabi/9.2.1/../../../arm-none-eabi/lib/thumb/v7e-m+fp/hard/libnosys.a(lseek.o)
 .debug_abbrev  0x0000000000008713      0x20f /usr/lib/gcc/arm-none-eabi/9.2.1/../../../arm-none-eabi/lib/thumb/v7e-m+fp/hard/libnosys.a(read.o)
 .debug_abbrev  0x0000000000008922       0xa2 /usr/lib/gcc/arm-none-eabi/9.2.1/../../../arm-none-eabi/lib/thumb/v7e-m+fp/hard/libnosys.a(sbrk.o)
 .debug_abbrev  0x00000000000089c4      0x20f /usr/lib/gcc/arm-none-eabi/9.2.1/../../../arm-none-eabi/lib/thumb/v7e-m+fp/hard/libnosys.a(write.o)
 .debug_abbrev  0x0000000000008bd3       0x14 /usr/lib/gcc/arm-none-eabi/9.2.1/thumb/v7e-m+fp/hard/libgcc.a(_arm_addsubdf3.o)
 .debug_abbrev  0x0000000000008be7       0x14 /usr/lib/gcc/arm-none-eabi/9.2.1/thumb/v7e-m+fp/hard/libgcc.a(_arm_muldivdf3.o)
 .debug_abbrev  0x0000000000008bfb       0x14 /usr/lib/gcc/arm-none-eabi/9.2.1/thumb/v7e-m+fp/hard/libgcc.a(_arm_cmpdf2.o)
 .debug_abbrev  0x0000000000008c0f       0x14 /usr/lib/gcc/arm-none-eabi/9.2.1/thumb/v7e-m+fp/hard/libgcc.a(_arm_unorddf2.o)
 .debug_abbrev  0x0000000000008c23       0x14 /usr/lib/gcc/arm-none-eabi/9.2.1/thumb/v7e-m+fp/hard/libgcc.a(_arm_fixunsdfsi.o)
 .debug_abbrev  0x0000000000008c37      0x198 /usr/lib/gcc/arm-none-eabi/9.2.1/../../../arm-none-eabi/lib/thumb/v7e-m+fp/hard/libc_nano.a(lib_a-errno.o)

.debug_loc      0x0000000000000000     0xc2fa
 .debug_loc     0x0000000000000000       0x20 build/main.o
 .debug_loc     0x0000000000000020      0x142 build/delay.o
 .debug_loc     0x0000000000000162      0x466 build/24c02.o
 .debug_loc     0x00000000000005c8      0x268 build/ctpiic.o
 .debug_loc     0x0000000000000830       0x58 build/exti.o
 .debug_loc     0x0000000000000888      0x31a build/ft5426.o
 .debug_loc     0x0000000000000ba2      0x454 build/GT911.o
 .debug_loc     0x0000000000000ff6     0x24d7 build/gui.o
 .debug_loc     0x00000000000034cd      0x248 build/iic.o
 .debug_loc     0x0000000000003715       0xd4 build/key.o
 .debug_loc     0x00000000000037e9      0xab3 build/lcd.o
 .debug_loc     0x000000000000429c       0x38 build/led.o
 .debug_loc     0x00000000000042d4     0x10a5 build/rtp.o
 .debug_loc     0x0000000000005379      0x242 build/test.o
 .debug_loc     0x00000000000055bb       0xbd build/touch.o
 .debug_loc     0x0000000000005678      0x17d build/usart.o
 .debug_loc     0x00000000000057f5      0x187 build/misc.o
 .debug_loc     0x000000000000597c      0x181 build/stm32f4xx_exti.o
 .debug_loc     0x0000000000005afd      0x6b8 build/stm32f4xx_fsmc.o
 .debug_loc     0x00000000000061b5      0x4ce build/stm32f4xx_gpio.o
 .debug_loc     0x0000000000006683      0xc2a build/stm32f4xx_rcc.o
 .debug_loc     0x00000000000072ad      0x95e build/stm32f4xx_usart.o
 .debug_loc     0x0000000000007c0b      0x1c4 build/system_stm32f4xx.o
 .debug_loc     0x0000000000007dcf       0xba /usr/lib/gcc/arm-none-eabi/9.2.1/../../../arm-none-eabi/lib/thumb/v7e-m+fp/hard/libc_nano.a(lib_a-init.o)
 .debug_loc     0x0000000000007e89      0x231 /usr/lib/gcc/arm-none-eabi/9.2.1/../../../arm-none-eabi/lib/thumb/v7e-m+fp/hard/libc_nano.a(lib_a-memset.o)
 .debug_loc     0x00000000000080ba       0x98 /usr/lib/gcc/arm-none-eabi/9.2.1/../../../arm-none-eabi/lib/thumb/v7e-m+fp/hard/libc_nano.a(lib_a-printf.o)
 .debug_loc     0x0000000000008152      0x32d /usr/lib/gcc/arm-none-eabi/9.2.1/../../../arm-none-eabi/lib/thumb/v7e-m+fp/hard/libc_nano.a(lib_a-puts.o)
 .debug_loc     0x000000000000847f      0x193 /usr/lib/gcc/arm-none-eabi/9.2.1/../../../arm-none-eabi/lib/thumb/v7e-m+fp/hard/libc_nano.a(lib_a-wbuf.o)
 .debug_loc     0x0000000000008612       0xb7 /usr/lib/gcc/arm-none-eabi/9.2.1/../../../arm-none-eabi/lib/thumb/v7e-m+fp/hard/libc_nano.a(lib_a-wsetup.o)
 .debug_loc     0x00000000000086c9      0x3f5 /usr/lib/gcc/arm-none-eabi/9.2.1/../../../arm-none-eabi/lib/thumb/v7e-m+fp/hard/libc_nano.a(lib_a-fflush.o)
 .debug_loc     0x0000000000008abe      0x339 /usr/lib/gcc/arm-none-eabi/9.2.1/../../../arm-none-eabi/lib/thumb/v7e-m+fp/hard/libc_nano.a(lib_a-findfp.o)
 .debug_loc     0x0000000000008df7      0x24f /usr/lib/gcc/arm-none-eabi/9.2.1/../../../arm-none-eabi/lib/thumb/v7e-m+fp/hard/libc_nano.a(lib_a-fwalk.o)
 .debug_loc     0x0000000000009046      0x192 /usr/lib/gcc/arm-none-eabi/9.2.1/../../../arm-none-eabi/lib/thumb/v7e-m+fp/hard/libc_nano.a(lib_a-makebuf.o)
 .debug_loc     0x00000000000091d8      0x211 /usr/lib/gcc/arm-none-eabi/9.2.1/../../../arm-none-eabi/lib/thumb/v7e-m+fp/hard/libc_nano.a(lib_a-nano-freer.o)
 .debug_loc     0x00000000000093e9      0x437 /usr/lib/gcc/arm-none-eabi/9.2.1/../../../arm-none-eabi/lib/thumb/v7e-m+fp/hard/libc_nano.a(lib_a-nano-mallocr.o)
 .debug_loc     0x0000000000009820      0x7a3 /usr/lib/gcc/arm-none-eabi/9.2.1/../../../arm-none-eabi/lib/thumb/v7e-m+fp/hard/libc_nano.a(lib_a-nano-vfprintf.o)
 .debug_loc     0x0000000000009fc3      0x7ab /usr/lib/gcc/arm-none-eabi/9.2.1/../../../arm-none-eabi/lib/thumb/v7e-m+fp/hard/libc_nano.a(lib_a-nano-vfprintf_i.o)
 .debug_loc     0x000000000000a76e       0x6c /usr/lib/gcc/arm-none-eabi/9.2.1/../../../arm-none-eabi/lib/thumb/v7e-m+fp/hard/libc_nano.a(lib_a-sbrkr.o)
 .debug_loc     0x000000000000a7da      0x393 /usr/lib/gcc/arm-none-eabi/9.2.1/../../../arm-none-eabi/lib/thumb/v7e-m+fp/hard/libc_nano.a(lib_a-stdio.o)
 .debug_loc     0x000000000000ab6d       0xdd /usr/lib/gcc/arm-none-eabi/9.2.1/../../../arm-none-eabi/lib/thumb/v7e-m+fp/hard/libc_nano.a(lib_a-writer.o)
 .debug_loc     0x000000000000ac4a       0x6c /usr/lib/gcc/arm-none-eabi/9.2.1/../../../arm-none-eabi/lib/thumb/v7e-m+fp/hard/libc_nano.a(lib_a-closer.o)
 .debug_loc     0x000000000000acb6       0xab /usr/lib/gcc/arm-none-eabi/9.2.1/../../../arm-none-eabi/lib/thumb/v7e-m+fp/hard/libc_nano.a(lib_a-fstatr.o)
 .debug_loc     0x000000000000ad61      0x669 /usr/lib/gcc/arm-none-eabi/9.2.1/../../../arm-none-eabi/lib/thumb/v7e-m+fp/hard/libc_nano.a(lib_a-fvwrite.o)
 .debug_loc     0x000000000000b3ca       0x6c /usr/lib/gcc/arm-none-eabi/9.2.1/../../../arm-none-eabi/lib/thumb/v7e-m+fp/hard/libc_nano.a(lib_a-isattyr.o)
 .debug_loc     0x000000000000b436       0xdd /usr/lib/gcc/arm-none-eabi/9.2.1/../../../arm-none-eabi/lib/thumb/v7e-m+fp/hard/libc_nano.a(lib_a-lseekr.o)
 .debug_loc     0x000000000000b513      0x2f1 /usr/lib/gcc/arm-none-eabi/9.2.1/../../../arm-none-eabi/lib/thumb/v7e-m+fp/hard/libc_nano.a(lib_a-memmove.o)
 .debug_loc     0x000000000000b804      0x133 /usr/lib/gcc/arm-none-eabi/9.2.1/../../../arm-none-eabi/lib/thumb/v7e-m+fp/hard/libc_nano.a(lib_a-nano-reallocr.o)
 .debug_loc     0x000000000000b937       0xdd /usr/lib/gcc/arm-none-eabi/9.2.1/../../../arm-none-eabi/lib/thumb/v7e-m+fp/hard/libc_nano.a(lib_a-readr.o)
 .debug_loc     0x000000000000ba14      0x135 /usr/lib/gcc/arm-none-eabi/9.2.1/../../../arm-none-eabi/lib/thumb/v7e-m+fp/hard/libc_nano.a(lib_a-reent.o)
 .debug_loc     0x000000000000bb49       0x86 /usr/lib/gcc/arm-none-eabi/9.2.1/../../../arm-none-eabi/lib/thumb/v7e-m+fp/hard/libc_nano.a(lib_a-nano-msizer.o)
 .debug_loc     0x000000000000bbcf       0x98 /usr/lib/gcc/arm-none-eabi/9.2.1/../../../arm-none-eabi/lib/thumb/v7e-m+fp/hard/libm.a(lib_a-w_sqrt.o)
 .debug_loc     0x000000000000bc67      0x508 /usr/lib/gcc/arm-none-eabi/9.2.1/../../../arm-none-eabi/lib/thumb/v7e-m+fp/hard/libm.a(lib_a-e_sqrt.o)
 .debug_loc     0x000000000000c16f       0x25 /usr/lib/gcc/arm-none-eabi/9.2.1/../../../arm-none-eabi/lib/thumb/v7e-m+fp/hard/libnosys.a(close.o)
 .debug_loc     0x000000000000c194       0x25 /usr/lib/gcc/arm-none-eabi/9.2.1/../../../arm-none-eabi/lib/thumb/v7e-m+fp/hard/libnosys.a(fstat.o)
 .debug_loc     0x000000000000c1b9       0x25 /usr/lib/gcc/arm-none-eabi/9.2.1/../../../arm-none-eabi/lib/thumb/v7e-m+fp/hard/libnosys.a(isatty.o)
 .debug_loc     0x000000000000c1de       0x4a /usr/lib/gcc/arm-none-eabi/9.2.1/../../../arm-none-eabi/lib/thumb/v7e-m+fp/hard/libnosys.a(lseek.o)
 .debug_loc     0x000000000000c228       0x4a /usr/lib/gcc/arm-none-eabi/9.2.1/../../../arm-none-eabi/lib/thumb/v7e-m+fp/hard/libnosys.a(read.o)
 .debug_loc     0x000000000000c272       0x3e /usr/lib/gcc/arm-none-eabi/9.2.1/../../../arm-none-eabi/lib/thumb/v7e-m+fp/hard/libnosys.a(sbrk.o)
 .debug_loc     0x000000000000c2b0       0x4a /usr/lib/gcc/arm-none-eabi/9.2.1/../../../arm-none-eabi/lib/thumb/v7e-m+fp/hard/libnosys.a(write.o)

.debug_aranges  0x0000000000000000     0x1088
 .debug_aranges
                0x0000000000000000       0x20 build/main.o
 .debug_aranges
                0x0000000000000020       0x38 build/delay.o
 .debug_aranges
                0x0000000000000058       0x58 build/24c02.o
 .debug_aranges
                0x00000000000000b0       0x60 build/ctpiic.o
 .debug_aranges
                0x0000000000000110       0x28 build/exti.o
 .debug_aranges
                0x0000000000000138       0x38 build/ft5426.o
 .debug_aranges
                0x0000000000000170       0x68 build/GT911.o
 .debug_aranges
                0x00000000000001d8       0xf8 build/gui.o
 .debug_aranges
                0x00000000000002d0       0x58 build/iic.o
 .debug_aranges
                0x0000000000000328       0x28 build/key.o
 .debug_aranges
                0x0000000000000350       0xc0 build/lcd.o
 .debug_aranges
                0x0000000000000410       0x20 build/led.o
 .debug_aranges
                0x0000000000000430       0x80 build/rtp.o
 .debug_aranges
                0x00000000000004b0       0x38 build/test.o
 .debug_aranges
                0x00000000000004e8       0x28 build/touch.o
 .debug_aranges
                0x0000000000000510       0x40 build/usart.o
 .debug_aranges
                0x0000000000000550       0x60 build/stm32f4xx_it.o
 .debug_aranges
                0x00000000000005b0       0x40 build/misc.o
 .debug_aranges
                0x00000000000005f0       0x58 build/stm32f4xx_exti.o
 .debug_aranges
                0x0000000000000648       0xb0 build/stm32f4xx_fsmc.o
 .debug_aranges
                0x00000000000006f8       0x88 build/stm32f4xx_gpio.o
 .debug_aranges
                0x0000000000000780      0x1c0 build/stm32f4xx_rcc.o
 .debug_aranges
                0x0000000000000940      0x100 build/stm32f4xx_usart.o
 .debug_aranges
                0x0000000000000a40       0x30 build/system_stm32f4xx.o
 .debug_aranges
                0x0000000000000a70       0x28 build/startup_stm32f407xx.o
 .debug_aranges
                0x0000000000000a98       0x18 /usr/lib/gcc/arm-none-eabi/9.2.1/../../../arm-none-eabi/lib/thumb/v7e-m+fp/hard/libc_nano.a(lib_a-impure.o)
 .debug_aranges
                0x0000000000000ab0       0x20 /usr/lib/gcc/arm-none-eabi/9.2.1/../../../arm-none-eabi/lib/thumb/v7e-m+fp/hard/libc_nano.a(lib_a-init.o)
 .debug_aranges
                0x0000000000000ad0       0x20 /usr/lib/gcc/arm-none-eabi/9.2.1/../../../arm-none-eabi/lib/thumb/v7e-m+fp/hard/libc_nano.a(lib_a-memset.o)
 .debug_aranges
                0x0000000000000af0       0x20 /usr/lib/gcc/arm-none-eabi/9.2.1/../../../arm-none-eabi/lib/thumb/v7e-m+fp/hard/libc_nano.a(lib_a-printf.o)
 .debug_aranges
                0x0000000000000b10       0x20 /usr/lib/gcc/arm-none-eabi/9.2.1/../../../arm-none-eabi/lib/thumb/v7e-m+fp/hard/libc_nano.a(lib_a-puts.o)
 .debug_aranges
                0x0000000000000b30       0x20 /usr/lib/gcc/arm-none-eabi/9.2.1/../../../arm-none-eabi/lib/thumb/v7e-m+fp/hard/libc_nano.a(lib_a-strlen.o)
 .debug_aranges
                0x0000000000000b50       0x20 /usr/lib/gcc/arm-none-eabi/9.2.1/../../../arm-none-eabi/lib/thumb/v7e-m+fp/hard/libc_nano.a(lib_a-wbuf.o)
 .debug_aranges
                0x0000000000000b70       0x20 /usr/lib/gcc/arm-none-eabi/9.2.1/../../../arm-none-eabi/lib/thumb/v7e-m+fp/hard/libc_nano.a(lib_a-wsetup.o)
 .debug_aranges
                0x0000000000000b90       0x20 /usr/lib/gcc/arm-none-eabi/9.2.1/../../../arm-none-eabi/lib/thumb/v7e-m+fp/hard/libc_nano.a(lib_a-fflush.o)
 .debug_aranges
                0x0000000000000bb0       0x20 /usr/lib/gcc/arm-none-eabi/9.2.1/../../../arm-none-eabi/lib/thumb/v7e-m+fp/hard/libc_nano.a(lib_a-findfp.o)
 .debug_aranges
                0x0000000000000bd0       0x20 /usr/lib/gcc/arm-none-eabi/9.2.1/../../../arm-none-eabi/lib/thumb/v7e-m+fp/hard/libc_nano.a(lib_a-fwalk.o)
 .debug_aranges
                0x0000000000000bf0       0x20 /usr/lib/gcc/arm-none-eabi/9.2.1/../../../arm-none-eabi/lib/thumb/v7e-m+fp/hard/libc_nano.a(lib_a-makebuf.o)
 .debug_aranges
                0x0000000000000c10       0x20 /usr/lib/gcc/arm-none-eabi/9.2.1/../../../arm-none-eabi/lib/thumb/v7e-m+fp/hard/libc_nano.a(lib_a-nano-freer.o)
 .debug_aranges
                0x0000000000000c30       0x20 /usr/lib/gcc/arm-none-eabi/9.2.1/../../../arm-none-eabi/lib/thumb/v7e-m+fp/hard/libc_nano.a(lib_a-nano-mallocr.o)
 .debug_aranges
                0x0000000000000c50       0x20 /usr/lib/gcc/arm-none-eabi/9.2.1/../../../arm-none-eabi/lib/thumb/v7e-m+fp/hard/libc_nano.a(lib_a-nano-vfprintf.o)
 .debug_aranges
                0x0000000000000c70       0x20 /usr/lib/gcc/arm-none-eabi/9.2.1/../../../arm-none-eabi/lib/thumb/v7e-m+fp/hard/libc_nano.a(lib_a-nano-vfprintf_i.o)
 .debug_aranges
                0x0000000000000c90       0x20 /usr/lib/gcc/arm-none-eabi/9.2.1/../../../arm-none-eabi/lib/thumb/v7e-m+fp/hard/libc_nano.a(lib_a-sbrkr.o)
 .debug_aranges
                0x0000000000000cb0       0x20 /usr/lib/gcc/arm-none-eabi/9.2.1/../../../arm-none-eabi/lib/thumb/v7e-m+fp/hard/libc_nano.a(lib_a-stdio.o)
 .debug_aranges
                0x0000000000000cd0       0x20 /usr/lib/gcc/arm-none-eabi/9.2.1/../../../arm-none-eabi/lib/thumb/v7e-m+fp/hard/libc_nano.a(lib_a-writer.o)
 .debug_aranges
                0x0000000000000cf0       0x20 /usr/lib/gcc/arm-none-eabi/9.2.1/../../../arm-none-eabi/lib/thumb/v7e-m+fp/hard/libc_nano.a(lib_a-closer.o)
 .debug_aranges
                0x0000000000000d10       0x20 /usr/lib/gcc/arm-none-eabi/9.2.1/../../../arm-none-eabi/lib/thumb/v7e-m+fp/hard/libc_nano.a(lib_a-fstatr.o)
 .debug_aranges
                0x0000000000000d30       0x20 /usr/lib/gcc/arm-none-eabi/9.2.1/../../../arm-none-eabi/lib/thumb/v7e-m+fp/hard/libc_nano.a(lib_a-fvwrite.o)
 .debug_aranges
                0x0000000000000d50       0x20 /usr/lib/gcc/arm-none-eabi/9.2.1/../../../arm-none-eabi/lib/thumb/v7e-m+fp/hard/libc_nano.a(lib_a-isattyr.o)
 .debug_aranges
                0x0000000000000d70       0x20 /usr/lib/gcc/arm-none-eabi/9.2.1/../../../arm-none-eabi/lib/thumb/v7e-m+fp/hard/libc_nano.a(lib_a-lseekr.o)
 .debug_aranges
                0x0000000000000d90       0x20 /usr/lib/gcc/arm-none-eabi/9.2.1/../../../arm-none-eabi/lib/thumb/v7e-m+fp/hard/libc_nano.a(lib_a-memchr.o)
 .debug_aranges
                0x0000000000000db0       0x20 /usr/lib/gcc/arm-none-eabi/9.2.1/../../../arm-none-eabi/lib/thumb/v7e-m+fp/hard/libc_nano.a(lib_a-memcpy.o)
 .debug_aranges
                0x0000000000000dd0       0x20 /usr/lib/gcc/arm-none-eabi/9.2.1/../../../arm-none-eabi/lib/thumb/v7e-m+fp/hard/libc_nano.a(lib_a-memmove.o)
 .debug_aranges
                0x0000000000000df0       0x20 /usr/lib/gcc/arm-none-eabi/9.2.1/../../../arm-none-eabi/lib/thumb/v7e-m+fp/hard/libc_nano.a(lib_a-mlock.o)
 .debug_aranges
                0x0000000000000e10       0x20 /usr/lib/gcc/arm-none-eabi/9.2.1/../../../arm-none-eabi/lib/thumb/v7e-m+fp/hard/libc_nano.a(lib_a-nano-reallocr.o)
 .debug_aranges
                0x0000000000000e30       0x20 /usr/lib/gcc/arm-none-eabi/9.2.1/../../../arm-none-eabi/lib/thumb/v7e-m+fp/hard/libc_nano.a(lib_a-readr.o)
 .debug_aranges
                0x0000000000000e50       0x20 /usr/lib/gcc/arm-none-eabi/9.2.1/../../../arm-none-eabi/lib/thumb/v7e-m+fp/hard/libc_nano.a(lib_a-reent.o)
 .debug_aranges
                0x0000000000000e70       0x20 /usr/lib/gcc/arm-none-eabi/9.2.1/../../../arm-none-eabi/lib/thumb/v7e-m+fp/hard/libc_nano.a(lib_a-nano-msizer.o)
 .debug_aranges
                0x0000000000000e90       0x20 /usr/lib/gcc/arm-none-eabi/9.2.1/../../../arm-none-eabi/lib/thumb/v7e-m+fp/hard/libm.a(lib_a-w_sqrt.o)
 .debug_aranges
                0x0000000000000eb0       0x20 /usr/lib/gcc/arm-none-eabi/9.2.1/../../../arm-none-eabi/lib/thumb/v7e-m+fp/hard/libm.a(lib_a-e_sqrt.o)
 .debug_aranges
                0x0000000000000ed0       0x18 /usr/lib/gcc/arm-none-eabi/9.2.1/../../../arm-none-eabi/lib/thumb/v7e-m+fp/hard/libm.a(lib_a-s_lib_ver.o)
 .debug_aranges
                0x0000000000000ee8       0x20 /usr/lib/gcc/arm-none-eabi/9.2.1/../../../arm-none-eabi/lib/thumb/v7e-m+fp/hard/libnosys.a(close.o)
 .debug_aranges
                0x0000000000000f08       0x20 /usr/lib/gcc/arm-none-eabi/9.2.1/../../../arm-none-eabi/lib/thumb/v7e-m+fp/hard/libnosys.a(fstat.o)
 .debug_aranges
                0x0000000000000f28       0x20 /usr/lib/gcc/arm-none-eabi/9.2.1/../../../arm-none-eabi/lib/thumb/v7e-m+fp/hard/libnosys.a(isatty.o)
 .debug_aranges
                0x0000000000000f48       0x20 /usr/lib/gcc/arm-none-eabi/9.2.1/../../../arm-none-eabi/lib/thumb/v7e-m+fp/hard/libnosys.a(lseek.o)
 .debug_aranges
                0x0000000000000f68       0x20 /usr/lib/gcc/arm-none-eabi/9.2.1/../../../arm-none-eabi/lib/thumb/v7e-m+fp/hard/libnosys.a(read.o)
 .debug_aranges
                0x0000000000000f88       0x20 /usr/lib/gcc/arm-none-eabi/9.2.1/../../../arm-none-eabi/lib/thumb/v7e-m+fp/hard/libnosys.a(sbrk.o)
 .debug_aranges
                0x0000000000000fa8       0x20 /usr/lib/gcc/arm-none-eabi/9.2.1/../../../arm-none-eabi/lib/thumb/v7e-m+fp/hard/libnosys.a(write.o)
 .debug_aranges
                0x0000000000000fc8       0x20 /usr/lib/gcc/arm-none-eabi/9.2.1/thumb/v7e-m+fp/hard/libgcc.a(_arm_addsubdf3.o)
 .debug_aranges
                0x0000000000000fe8       0x20 /usr/lib/gcc/arm-none-eabi/9.2.1/thumb/v7e-m+fp/hard/libgcc.a(_arm_muldivdf3.o)
 .debug_aranges
                0x0000000000001008       0x20 /usr/lib/gcc/arm-none-eabi/9.2.1/thumb/v7e-m+fp/hard/libgcc.a(_arm_cmpdf2.o)
 .debug_aranges
                0x0000000000001028       0x20 /usr/lib/gcc/arm-none-eabi/9.2.1/thumb/v7e-m+fp/hard/libgcc.a(_arm_unorddf2.o)
 .debug_aranges
                0x0000000000001048       0x20 /usr/lib/gcc/arm-none-eabi/9.2.1/thumb/v7e-m+fp/hard/libgcc.a(_arm_fixunsdfsi.o)
 .debug_aranges
                0x0000000000001068       0x20 /usr/lib/gcc/arm-none-eabi/9.2.1/../../../arm-none-eabi/lib/thumb/v7e-m+fp/hard/libc_nano.a(lib_a-errno.o)

.debug_ranges   0x0000000000000000      0xc80
 .debug_ranges  0x0000000000000000       0x10 build/main.o
 .debug_ranges  0x0000000000000010       0x28 build/delay.o
 .debug_ranges  0x0000000000000038       0x48 build/24c02.o
 .debug_ranges  0x0000000000000080       0x50 build/ctpiic.o
 .debug_ranges  0x00000000000000d0       0x18 build/exti.o
 .debug_ranges  0x00000000000000e8       0x28 build/ft5426.o
 .debug_ranges  0x0000000000000110       0x58 build/GT911.o
 .debug_ranges  0x0000000000000168       0xe8 build/gui.o
 .debug_ranges  0x0000000000000250       0x48 build/iic.o
 .debug_ranges  0x0000000000000298       0x18 build/key.o
 .debug_ranges  0x00000000000002b0       0xb0 build/lcd.o
 .debug_ranges  0x0000000000000360       0x10 build/led.o
 .debug_ranges  0x0000000000000370       0x70 build/rtp.o
 .debug_ranges  0x00000000000003e0       0x28 build/test.o
 .debug_ranges  0x0000000000000408       0x18 build/touch.o
 .debug_ranges  0x0000000000000420       0x30 build/usart.o
 .debug_ranges  0x0000000000000450       0x50 build/stm32f4xx_it.o
 .debug_ranges  0x00000000000004a0       0x30 build/misc.o
 .debug_ranges  0x00000000000004d0       0x48 build/stm32f4xx_exti.o
 .debug_ranges  0x0000000000000518       0xa0 build/stm32f4xx_fsmc.o
 .debug_ranges  0x00000000000005b8       0x78 build/stm32f4xx_gpio.o
 .debug_ranges  0x0000000000000630      0x1b0 build/stm32f4xx_rcc.o
 .debug_ranges  0x00000000000007e0       0xf0 build/stm32f4xx_usart.o
 .debug_ranges  0x00000000000008d0       0x20 build/system_stm32f4xx.o
 .debug_ranges  0x00000000000008f0       0x20 build/startup_stm32f407xx.o
 .debug_ranges  0x0000000000000910       0x68 /usr/lib/gcc/arm-none-eabi/9.2.1/../../../arm-none-eabi/lib/thumb/v7e-m+fp/hard/libc_nano.a(lib_a-puts.o)
 .debug_ranges  0x0000000000000978       0x20 /usr/lib/gcc/arm-none-eabi/9.2.1/../../../arm-none-eabi/lib/thumb/v7e-m+fp/hard/libc_nano.a(lib_a-wbuf.o)
 .debug_ranges  0x0000000000000998       0x30 /usr/lib/gcc/arm-none-eabi/9.2.1/../../../arm-none-eabi/lib/thumb/v7e-m+fp/hard/libc_nano.a(lib_a-wsetup.o)
 .debug_ranges  0x00000000000009c8       0x68 /usr/lib/gcc/arm-none-eabi/9.2.1/../../../arm-none-eabi/lib/thumb/v7e-m+fp/hard/libc_nano.a(lib_a-fflush.o)
 .debug_ranges  0x0000000000000a30       0xe8 /usr/lib/gcc/arm-none-eabi/9.2.1/../../../arm-none-eabi/lib/thumb/v7e-m+fp/hard/libc_nano.a(lib_a-findfp.o)
 .debug_ranges  0x0000000000000b18       0x28 /usr/lib/gcc/arm-none-eabi/9.2.1/../../../arm-none-eabi/lib/thumb/v7e-m+fp/hard/libc_nano.a(lib_a-makebuf.o)
 .debug_ranges  0x0000000000000b40       0x18 /usr/lib/gcc/arm-none-eabi/9.2.1/../../../arm-none-eabi/lib/thumb/v7e-m+fp/hard/libc_nano.a(lib_a-nano-freer.o)
 .debug_ranges  0x0000000000000b58       0x38 /usr/lib/gcc/arm-none-eabi/9.2.1/../../../arm-none-eabi/lib/thumb/v7e-m+fp/hard/libc_nano.a(lib_a-nano-mallocr.o)
 .debug_ranges  0x0000000000000b90       0x28 /usr/lib/gcc/arm-none-eabi/9.2.1/../../../arm-none-eabi/lib/thumb/v7e-m+fp/hard/libc_nano.a(lib_a-nano-vfprintf.o)
 .debug_ranges  0x0000000000000bb8       0x98 /usr/lib/gcc/arm-none-eabi/9.2.1/../../../arm-none-eabi/lib/thumb/v7e-m+fp/hard/libc_nano.a(lib_a-nano-vfprintf_i.o)
 .debug_ranges  0x0000000000000c50       0x18 /usr/lib/gcc/arm-none-eabi/9.2.1/../../../arm-none-eabi/lib/thumb/v7e-m+fp/hard/libc_nano.a(lib_a-fvwrite.o)
 .debug_ranges  0x0000000000000c68       0x18 /usr/lib/gcc/arm-none-eabi/9.2.1/../../../arm-none-eabi/lib/thumb/v7e-m+fp/hard/libm.a(lib_a-e_sqrt.o)

.debug_line     0x0000000000000000     0xf719
 .debug_line    0x0000000000000000      0x1d2 build/main.o
 .debug_line    0x00000000000001d2      0x232 build/delay.o
 .debug_line    0x0000000000000404      0x304 build/24c02.o
 .debug_line    0x0000000000000708      0x435 build/ctpiic.o
 .debug_line    0x0000000000000b3d      0x1a3 build/exti.o
 .debug_line    0x0000000000000ce0      0x538 build/ft5426.o
 .debug_line    0x0000000000001218      0x6e6 build/GT911.o
 .debug_line    0x00000000000018fe     0x11e9 build/gui.o
 .debug_line    0x0000000000002ae7      0x40d build/iic.o
 .debug_line    0x0000000000002ef4      0x202 build/key.o
 .debug_line    0x00000000000030f6     0x1afe build/lcd.o
 .debug_line    0x0000000000004bf4      0x14b build/led.o
 .debug_line    0x0000000000004d3f      0xc43 build/rtp.o
 .debug_line    0x0000000000005982      0x497 build/test.o
 .debug_line    0x0000000000005e19      0x1b6 build/touch.o
 .debug_line    0x0000000000005fcf      0x3bb build/usart.o
 .debug_line    0x000000000000638a      0x1a1 build/stm32f4xx_it.o
 .debug_line    0x000000000000652b      0x230 build/misc.o
 .debug_line    0x000000000000675b      0x2fb build/stm32f4xx_exti.o
 .debug_line    0x0000000000006a56      0x942 build/stm32f4xx_fsmc.o
 .debug_line    0x0000000000007398      0x4f1 build/stm32f4xx_gpio.o
 .debug_line    0x0000000000007889      0xbf7 build/stm32f4xx_rcc.o
 .debug_line    0x0000000000008480      0x88b build/stm32f4xx_usart.o
 .debug_line    0x0000000000008d0b      0x32a build/system_stm32f4xx.o
 .debug_line    0x0000000000009035       0x76 build/startup_stm32f407xx.o
 .debug_line    0x00000000000090ab       0xe3 /usr/lib/gcc/arm-none-eabi/9.2.1/../../../arm-none-eabi/lib/thumb/v7e-m+fp/hard/libc_nano.a(lib_a-impure.o)
 .debug_line    0x000000000000918e      0x10d /usr/lib/gcc/arm-none-eabi/9.2.1/../../../arm-none-eabi/lib/thumb/v7e-m+fp/hard/libc_nano.a(lib_a-init.o)
 .debug_line    0x000000000000929b      0x26b /usr/lib/gcc/arm-none-eabi/9.2.1/../../../arm-none-eabi/lib/thumb/v7e-m+fp/hard/libc_nano.a(lib_a-memset.o)
 .debug_line    0x0000000000009506      0x1fc /usr/lib/gcc/arm-none-eabi/9.2.1/../../../arm-none-eabi/lib/thumb/v7e-m+fp/hard/libc_nano.a(lib_a-printf.o)
 .debug_line    0x0000000000009702      0x316 /usr/lib/gcc/arm-none-eabi/9.2.1/../../../arm-none-eabi/lib/thumb/v7e-m+fp/hard/libc_nano.a(lib_a-puts.o)
 .debug_line    0x0000000000009a18       0xaf /usr/lib/gcc/arm-none-eabi/9.2.1/../../../arm-none-eabi/lib/thumb/v7e-m+fp/hard/libc_nano.a(lib_a-strlen.o)
 .debug_line    0x0000000000009ac7      0x27c /usr/lib/gcc/arm-none-eabi/9.2.1/../../../arm-none-eabi/lib/thumb/v7e-m+fp/hard/libc_nano.a(lib_a-wbuf.o)
 .debug_line    0x0000000000009d43      0x311 /usr/lib/gcc/arm-none-eabi/9.2.1/../../../arm-none-eabi/lib/thumb/v7e-m+fp/hard/libc_nano.a(lib_a-wsetup.o)
 .debug_line    0x000000000000a054      0x418 /usr/lib/gcc/arm-none-eabi/9.2.1/../../../arm-none-eabi/lib/thumb/v7e-m+fp/hard/libc_nano.a(lib_a-fflush.o)
 .debug_line    0x000000000000a46c      0x561 /usr/lib/gcc/arm-none-eabi/9.2.1/../../../arm-none-eabi/lib/thumb/v7e-m+fp/hard/libc_nano.a(lib_a-findfp.o)
 .debug_line    0x000000000000a9cd      0x289 /usr/lib/gcc/arm-none-eabi/9.2.1/../../../arm-none-eabi/lib/thumb/v7e-m+fp/hard/libc_nano.a(lib_a-fwalk.o)
 .debug_line    0x000000000000ac56      0x36f /usr/lib/gcc/arm-none-eabi/9.2.1/../../../arm-none-eabi/lib/thumb/v7e-m+fp/hard/libc_nano.a(lib_a-makebuf.o)
 .debug_line    0x000000000000afc5      0x2af /usr/lib/gcc/arm-none-eabi/9.2.1/../../../arm-none-eabi/lib/thumb/v7e-m+fp/hard/libc_nano.a(lib_a-nano-freer.o)
 .debug_line    0x000000000000b274      0x2f2 /usr/lib/gcc/arm-none-eabi/9.2.1/../../../arm-none-eabi/lib/thumb/v7e-m+fp/hard/libc_nano.a(lib_a-nano-mallocr.o)
 .debug_line    0x000000000000b566      0x726 /usr/lib/gcc/arm-none-eabi/9.2.1/../../../arm-none-eabi/lib/thumb/v7e-m+fp/hard/libc_nano.a(lib_a-nano-vfprintf.o)
 .debug_line    0x000000000000bc8c      0x790 /usr/lib/gcc/arm-none-eabi/9.2.1/../../../arm-none-eabi/lib/thumb/v7e-m+fp/hard/libc_nano.a(lib_a-nano-vfprintf_i.o)
 .debug_line    0x000000000000c41c      0x182 /usr/lib/gcc/arm-none-eabi/9.2.1/../../../arm-none-eabi/lib/thumb/v7e-m+fp/hard/libc_nano.a(lib_a-sbrkr.o)
 .debug_line    0x000000000000c59e      0x25f /usr/lib/gcc/arm-none-eabi/9.2.1/../../../arm-none-eabi/lib/thumb/v7e-m+fp/hard/libc_nano.a(lib_a-stdio.o)
 .debug_line    0x000000000000c7fd      0x188 /usr/lib/gcc/arm-none-eabi/9.2.1/../../../arm-none-eabi/lib/thumb/v7e-m+fp/hard/libc_nano.a(lib_a-writer.o)
 .debug_line    0x000000000000c985      0x182 /usr/lib/gcc/arm-none-eabi/9.2.1/../../../arm-none-eabi/lib/thumb/v7e-m+fp/hard/libc_nano.a(lib_a-closer.o)
 .debug_line    0x000000000000cb07      0x213 /usr/lib/gcc/arm-none-eabi/9.2.1/../../../arm-none-eabi/lib/thumb/v7e-m+fp/hard/libc_nano.a(lib_a-fstatr.o)
 .debug_line    0x000000000000cd1a      0x5e8 /usr/lib/gcc/arm-none-eabi/9.2.1/../../../arm-none-eabi/lib/thumb/v7e-m+fp/hard/libc_nano.a(lib_a-fvwrite.o)
 .debug_line    0x000000000000d302      0x183 /usr/lib/gcc/arm-none-eabi/9.2.1/../../../arm-none-eabi/lib/thumb/v7e-m+fp/hard/libc_nano.a(lib_a-isattyr.o)
 .debug_line    0x000000000000d485      0x188 /usr/lib/gcc/arm-none-eabi/9.2.1/../../../arm-none-eabi/lib/thumb/v7e-m+fp/hard/libc_nano.a(lib_a-lseekr.o)
 .debug_line    0x000000000000d60d       0xa4 /usr/lib/gcc/arm-none-eabi/9.2.1/../../../arm-none-eabi/lib/thumb/v7e-m+fp/hard/libc_nano.a(lib_a-memchr.o)
 .debug_line    0x000000000000d6b1       0xbe /usr/lib/gcc/arm-none-eabi/9.2.1/../../../arm-none-eabi/lib/thumb/v7e-m+fp/hard/libc_nano.a(lib_a-memcpy.o)
 .debug_line    0x000000000000d76f      0x287 /usr/lib/gcc/arm-none-eabi/9.2.1/../../../arm-none-eabi/lib/thumb/v7e-m+fp/hard/libc_nano.a(lib_a-memmove.o)
 .debug_line    0x000000000000d9f6      0x13d /usr/lib/gcc/arm-none-eabi/9.2.1/../../../arm-none-eabi/lib/thumb/v7e-m+fp/hard/libc_nano.a(lib_a-mlock.o)
 .debug_line    0x000000000000db33      0x1c5 /usr/lib/gcc/arm-none-eabi/9.2.1/../../../arm-none-eabi/lib/thumb/v7e-m+fp/hard/libc_nano.a(lib_a-nano-reallocr.o)
 .debug_line    0x000000000000dcf8      0x187 /usr/lib/gcc/arm-none-eabi/9.2.1/../../../arm-none-eabi/lib/thumb/v7e-m+fp/hard/libc_nano.a(lib_a-readr.o)
 .debug_line    0x000000000000de7f      0x275 /usr/lib/gcc/arm-none-eabi/9.2.1/../../../arm-none-eabi/lib/thumb/v7e-m+fp/hard/libc_nano.a(lib_a-reent.o)
 .debug_line    0x000000000000e0f4      0x166 /usr/lib/gcc/arm-none-eabi/9.2.1/../../../arm-none-eabi/lib/thumb/v7e-m+fp/hard/libc_nano.a(lib_a-nano-msizer.o)
 .debug_line    0x000000000000e25a      0x1c6 /usr/lib/gcc/arm-none-eabi/9.2.1/../../../arm-none-eabi/lib/thumb/v7e-m+fp/hard/libm.a(lib_a-w_sqrt.o)
 .debug_line    0x000000000000e420      0x487 /usr/lib/gcc/arm-none-eabi/9.2.1/../../../arm-none-eabi/lib/thumb/v7e-m+fp/hard/libm.a(lib_a-e_sqrt.o)
 .debug_line    0x000000000000e8a7      0x127 /usr/lib/gcc/arm-none-eabi/9.2.1/../../../arm-none-eabi/lib/thumb/v7e-m+fp/hard/libm.a(lib_a-s_lib_ver.o)
 .debug_line    0x000000000000e9ce      0x10b /usr/lib/gcc/arm-none-eabi/9.2.1/../../../arm-none-eabi/lib/thumb/v7e-m+fp/hard/libnosys.a(close.o)
 .debug_line    0x000000000000ead9      0x1cf /usr/lib/gcc/arm-none-eabi/9.2.1/../../../arm-none-eabi/lib/thumb/v7e-m+fp/hard/libnosys.a(fstat.o)
 .debug_line    0x000000000000eca8      0x10c /usr/lib/gcc/arm-none-eabi/9.2.1/../../../arm-none-eabi/lib/thumb/v7e-m+fp/hard/libnosys.a(isatty.o)
 .debug_line    0x000000000000edb4      0x10c /usr/lib/gcc/arm-none-eabi/9.2.1/../../../arm-none-eabi/lib/thumb/v7e-m+fp/hard/libnosys.a(lseek.o)
 .debug_line    0x000000000000eec0      0x10b /usr/lib/gcc/arm-none-eabi/9.2.1/../../../arm-none-eabi/lib/thumb/v7e-m+fp/hard/libnosys.a(read.o)
 .debug_line    0x000000000000efcb       0x79 /usr/lib/gcc/arm-none-eabi/9.2.1/../../../arm-none-eabi/lib/thumb/v7e-m+fp/hard/libnosys.a(sbrk.o)
 .debug_line    0x000000000000f044      0x10c /usr/lib/gcc/arm-none-eabi/9.2.1/../../../arm-none-eabi/lib/thumb/v7e-m+fp/hard/libnosys.a(write.o)
 .debug_line    0x000000000000f150      0x186 /usr/lib/gcc/arm-none-eabi/9.2.1/thumb/v7e-m+fp/hard/libgcc.a(_arm_addsubdf3.o)
 .debug_line    0x000000000000f2d6      0x19b /usr/lib/gcc/arm-none-eabi/9.2.1/thumb/v7e-m+fp/hard/libgcc.a(_arm_muldivdf3.o)
 .debug_line    0x000000000000f471       0xbd /usr/lib/gcc/arm-none-eabi/9.2.1/thumb/v7e-m+fp/hard/libgcc.a(_arm_cmpdf2.o)
 .debug_line    0x000000000000f52e       0x6e /usr/lib/gcc/arm-none-eabi/9.2.1/thumb/v7e-m+fp/hard/libgcc.a(_arm_unorddf2.o)
 .debug_line    0x000000000000f59c       0x75 /usr/lib/gcc/arm-none-eabi/9.2.1/thumb/v7e-m+fp/hard/libgcc.a(_arm_fixunsdfsi.o)
 .debug_line    0x000000000000f611      0x108 /usr/lib/gcc/arm-none-eabi/9.2.1/../../../arm-none-eabi/lib/thumb/v7e-m+fp/hard/libc_nano.a(lib_a-errno.o)

.debug_str      0x0000000000000000     0x49eb
 .debug_str     0x0000000000000000      0x5e6 build/main.o
                                        0x6f8 (size before relaxing)
 .debug_str     0x00000000000005e6       0x7e build/delay.o
                                        0x24a (size before relaxing)
 .debug_str     0x0000000000000664       0xc8 build/24c02.o
                                        0x2dd (size before relaxing)
 .debug_str     0x000000000000072c      0x269 build/ctpiic.o
                                        0x427 (size before relaxing)
 .debug_str     0x0000000000000995      0x6fb build/exti.o
                                        0x8c5 (size before relaxing)
 .debug_str     0x0000000000001090       0x55 build/ft5426.o
                                        0x8ec (size before relaxing)
 .debug_str     0x00000000000010e5       0xc7 build/GT911.o
                                        0x97a (size before relaxing)
 .debug_str     0x00000000000011ac      0x2d7 build/gui.o
                                        0x910 (size before relaxing)
 .debug_str     0x0000000000001483        0xf build/iic.o
                                        0x3fa (size before relaxing)
 .debug_str     0x0000000000001492       0x1f build/key.o
                                        0x3b0 (size before relaxing)
 .debug_str     0x00000000000014b1      0x3f0 build/lcd.o
                                        0xc79 (size before relaxing)
 .debug_str     0x00000000000018a1       0x1c build/led.o
                                        0x397 (size before relaxing)
 .debug_str     0x00000000000018bd      0x145 build/rtp.o
                                        0xa3d (size before relaxing)
 .debug_str     0x0000000000001a02       0x98 build/test.o
                                        0x7b0 (size before relaxing)
 .debug_str     0x0000000000001a9a       0x24 build/touch.o
                                        0x27f (size before relaxing)
 .debug_str     0x0000000000001abe      0x1a9 build/usart.o
                                        0xf0c (size before relaxing)
 .debug_str     0x0000000000001c67       0xa8 build/stm32f4xx_it.o
                                        0x24c (size before relaxing)
 .debug_str     0x0000000000001d0f      0x149 build/misc.o
                                        0x40f (size before relaxing)
 .debug_str     0x0000000000001e58       0xcc build/stm32f4xx_exti.o
                                        0x397 (size before relaxing)
 .debug_str     0x0000000000001f24      0x3ba build/stm32f4xx_fsmc.o
                                        0x7e3 (size before relaxing)
 .debug_str     0x00000000000022de      0x170 build/stm32f4xx_gpio.o
                                        0x4ed (size before relaxing)
 .debug_str     0x000000000000244e      0x70c build/stm32f4xx_rcc.o
                                        0x9e2 (size before relaxing)
 .debug_str     0x0000000000002b5a      0x319 build/stm32f4xx_usart.o
                                        0x705 (size before relaxing)
 .debug_str     0x0000000000002e73       0x91 build/system_stm32f4xx.o
                                        0x3dd (size before relaxing)
 .debug_str     0x0000000000002f04       0x22 build/startup_stm32f407xx.o
                                         0x4d (size before relaxing)
 .debug_str     0x0000000000002f26      0x1aa /usr/lib/gcc/arm-none-eabi/9.2.1/../../../arm-none-eabi/lib/thumb/v7e-m+fp/hard/libc_nano.a(lib_a-impure.o)
                                        0x5e2 (size before relaxing)
 .debug_str     0x00000000000030d0       0xf0 /usr/lib/gcc/arm-none-eabi/9.2.1/../../../arm-none-eabi/lib/thumb/v7e-m+fp/hard/libc_nano.a(lib_a-init.o)
                                        0x229 (size before relaxing)
 .debug_str     0x00000000000031c0      0x31c /usr/lib/gcc/arm-none-eabi/9.2.1/../../../arm-none-eabi/lib/thumb/v7e-m+fp/hard/libc_nano.a(lib_a-memset.o)
                                        0x90f (size before relaxing)
 .debug_str     0x00000000000034dc      0x1f0 /usr/lib/gcc/arm-none-eabi/9.2.1/../../../arm-none-eabi/lib/thumb/v7e-m+fp/hard/libc_nano.a(lib_a-printf.o)
                                        0x75c (size before relaxing)
 .debug_str     0x00000000000036cc       0x69 /usr/lib/gcc/arm-none-eabi/9.2.1/../../../arm-none-eabi/lib/thumb/v7e-m+fp/hard/libc_nano.a(lib_a-puts.o)
                                        0x765 (size before relaxing)
 .debug_str     0x0000000000003735       0xa9 /usr/lib/gcc/arm-none-eabi/9.2.1/../../../arm-none-eabi/lib/thumb/v7e-m+fp/hard/libc_nano.a(lib_a-strlen.o)
                                         0xb5 (size before relaxing)
 .debug_str     0x00000000000037de       0x5a /usr/lib/gcc/arm-none-eabi/9.2.1/../../../arm-none-eabi/lib/thumb/v7e-m+fp/hard/libc_nano.a(lib_a-wbuf.o)
                                        0x76b (size before relaxing)
 .debug_str     0x0000000000003838       0x48 /usr/lib/gcc/arm-none-eabi/9.2.1/../../../arm-none-eabi/lib/thumb/v7e-m+fp/hard/libc_nano.a(lib_a-wsetup.o)
                                        0x766 (size before relaxing)
 .debug_str     0x0000000000003880       0x63 /usr/lib/gcc/arm-none-eabi/9.2.1/../../../arm-none-eabi/lib/thumb/v7e-m+fp/hard/libc_nano.a(lib_a-fflush.o)
                                        0x794 (size before relaxing)
 .debug_str     0x00000000000038e3      0x175 /usr/lib/gcc/arm-none-eabi/9.2.1/../../../arm-none-eabi/lib/thumb/v7e-m+fp/hard/libc_nano.a(lib_a-findfp.o)
                                        0x8a4 (size before relaxing)
 .debug_str     0x0000000000003a58       0x41 /usr/lib/gcc/arm-none-eabi/9.2.1/../../../arm-none-eabi/lib/thumb/v7e-m+fp/hard/libc_nano.a(lib_a-fwalk.o)
                                        0x758 (size before relaxing)
 .debug_str     0x0000000000003a99      0x161 /usr/lib/gcc/arm-none-eabi/9.2.1/../../../arm-none-eabi/lib/thumb/v7e-m+fp/hard/libc_nano.a(lib_a-makebuf.o)
                                        0x8d9 (size before relaxing)
 .debug_str     0x0000000000003bfa      0x182 /usr/lib/gcc/arm-none-eabi/9.2.1/../../../arm-none-eabi/lib/thumb/v7e-m+fp/hard/libc_nano.a(lib_a-nano-freer.o)
                                        0x712 (size before relaxing)
 .debug_str     0x0000000000003d7c       0x32 /usr/lib/gcc/arm-none-eabi/9.2.1/../../../arm-none-eabi/lib/thumb/v7e-m+fp/hard/libc_nano.a(lib_a-nano-mallocr.o)
                                        0x729 (size before relaxing)
 .debug_str     0x0000000000003dae      0x14f /usr/lib/gcc/arm-none-eabi/9.2.1/../../../arm-none-eabi/lib/thumb/v7e-m+fp/hard/libc_nano.a(lib_a-nano-vfprintf.o)
                                        0xc2e (size before relaxing)
 .debug_str     0x0000000000003efd       0x94 /usr/lib/gcc/arm-none-eabi/9.2.1/../../../arm-none-eabi/lib/thumb/v7e-m+fp/hard/libc_nano.a(lib_a-nano-vfprintf_i.o)
                                        0xbac (size before relaxing)
 .debug_str     0x0000000000003f91       0x47 /usr/lib/gcc/arm-none-eabi/9.2.1/../../../arm-none-eabi/lib/thumb/v7e-m+fp/hard/libc_nano.a(lib_a-sbrkr.o)
                                        0x625 (size before relaxing)
 .debug_str     0x0000000000003fd8       0x92 /usr/lib/gcc/arm-none-eabi/9.2.1/../../../arm-none-eabi/lib/thumb/v7e-m+fp/hard/libc_nano.a(lib_a-stdio.o)
                                        0x7ac (size before relaxing)
 .debug_str     0x000000000000406a       0x33 /usr/lib/gcc/arm-none-eabi/9.2.1/../../../arm-none-eabi/lib/thumb/v7e-m+fp/hard/libc_nano.a(lib_a-writer.o)
                                        0x622 (size before relaxing)
 .debug_str     0x000000000000409d       0x33 /usr/lib/gcc/arm-none-eabi/9.2.1/../../../arm-none-eabi/lib/thumb/v7e-m+fp/hard/libc_nano.a(lib_a-closer.o)
                                        0x612 (size before relaxing)
 .debug_str     0x00000000000040d0       0x40 /usr/lib/gcc/arm-none-eabi/9.2.1/../../../arm-none-eabi/lib/thumb/v7e-m+fp/hard/libc_nano.a(lib_a-fstatr.o)
                                        0x780 (size before relaxing)
 .debug_str     0x0000000000004110       0x6c /usr/lib/gcc/arm-none-eabi/9.2.1/../../../arm-none-eabi/lib/thumb/v7e-m+fp/hard/libc_nano.a(lib_a-fvwrite.o)
                                        0x7e5 (size before relaxing)
 .debug_str     0x000000000000417c       0x3c /usr/lib/gcc/arm-none-eabi/9.2.1/../../../arm-none-eabi/lib/thumb/v7e-m+fp/hard/libc_nano.a(lib_a-isattyr.o)
                                        0x61c (size before relaxing)
 .debug_str     0x00000000000041b8       0x3a /usr/lib/gcc/arm-none-eabi/9.2.1/../../../arm-none-eabi/lib/thumb/v7e-m+fp/hard/libc_nano.a(lib_a-lseekr.o)
                                        0x620 (size before relaxing)
 .debug_str     0x00000000000041f2       0x3c /usr/lib/gcc/arm-none-eabi/9.2.1/../../../arm-none-eabi/lib/thumb/v7e-m+fp/hard/libc_nano.a(lib_a-memchr.o)
                                         0xaf (size before relaxing)
 .debug_str     0x000000000000422e       0x43 /usr/lib/gcc/arm-none-eabi/9.2.1/../../../arm-none-eabi/lib/thumb/v7e-m+fp/hard/libc_nano.a(lib_a-memcpy.o)
                                         0xb6 (size before relaxing)
 .debug_str     0x0000000000004271       0x66 /usr/lib/gcc/arm-none-eabi/9.2.1/../../../arm-none-eabi/lib/thumb/v7e-m+fp/hard/libc_nano.a(lib_a-memmove.o)
                                        0x92e (size before relaxing)
 .debug_str     0x00000000000042d7       0x4c /usr/lib/gcc/arm-none-eabi/9.2.1/../../../arm-none-eabi/lib/thumb/v7e-m+fp/hard/libc_nano.a(lib_a-mlock.o)
                                        0x60e (size before relaxing)
 .debug_str     0x0000000000004323       0x23 /usr/lib/gcc/arm-none-eabi/9.2.1/../../../arm-none-eabi/lib/thumb/v7e-m+fp/hard/libc_nano.a(lib_a-nano-reallocr.o)
                                        0x70f (size before relaxing)
 .debug_str     0x0000000000004346       0x32 /usr/lib/gcc/arm-none-eabi/9.2.1/../../../arm-none-eabi/lib/thumb/v7e-m+fp/hard/libc_nano.a(lib_a-readr.o)
                                        0x620 (size before relaxing)
 .debug_str     0x0000000000004378       0x5e /usr/lib/gcc/arm-none-eabi/9.2.1/../../../arm-none-eabi/lib/thumb/v7e-m+fp/hard/libc_nano.a(lib_a-reent.o)
                                        0x61e (size before relaxing)
 .debug_str     0x00000000000043d6        0xf /usr/lib/gcc/arm-none-eabi/9.2.1/../../../arm-none-eabi/lib/thumb/v7e-m+fp/hard/libc_nano.a(lib_a-nano-msizer.o)
                                        0x6ed (size before relaxing)
 .debug_str     0x00000000000043e5       0xa4 /usr/lib/gcc/arm-none-eabi/9.2.1/../../../arm-none-eabi/lib/thumb/v7e-m+fp/hard/libm.a(lib_a-w_sqrt.o)
                                        0x610 (size before relaxing)
 .debug_str     0x0000000000004489       0xca /usr/lib/gcc/arm-none-eabi/9.2.1/../../../arm-none-eabi/lib/thumb/v7e-m+fp/hard/libm.a(lib_a-e_sqrt.o)
                                        0x649 (size before relaxing)
 .debug_str     0x0000000000004553      0x132 /usr/lib/gcc/arm-none-eabi/9.2.1/../../../arm-none-eabi/lib/thumb/v7e-m+fp/hard/libm.a(lib_a-s_lib_ver.o)
                                        0x5f1 (size before relaxing)
 .debug_str     0x0000000000004685      0x110 /usr/lib/gcc/arm-none-eabi/9.2.1/../../../arm-none-eabi/lib/thumb/v7e-m+fp/hard/libnosys.a(close.o)
                                        0x5a1 (size before relaxing)
 .debug_str     0x0000000000004795       0x2f /usr/lib/gcc/arm-none-eabi/9.2.1/../../../arm-none-eabi/lib/thumb/v7e-m+fp/hard/libnosys.a(fstat.o)
                                        0x709 (size before relaxing)
 .debug_str     0x00000000000047c4       0x30 /usr/lib/gcc/arm-none-eabi/9.2.1/../../../arm-none-eabi/lib/thumb/v7e-m+fp/hard/libnosys.a(isatty.o)
                                        0x5a8 (size before relaxing)
 .debug_str     0x00000000000047f4       0x2f /usr/lib/gcc/arm-none-eabi/9.2.1/../../../arm-none-eabi/lib/thumb/v7e-m+fp/hard/libnosys.a(lseek.o)
                                        0x5a6 (size before relaxing)
 .debug_str     0x0000000000004823       0x2e /usr/lib/gcc/arm-none-eabi/9.2.1/../../../arm-none-eabi/lib/thumb/v7e-m+fp/hard/libnosys.a(read.o)
                                        0x59e (size before relaxing)
 .debug_str     0x0000000000004851       0x3c /usr/lib/gcc/arm-none-eabi/9.2.1/../../../arm-none-eabi/lib/thumb/v7e-m+fp/hard/libnosys.a(sbrk.o)
                                        0x12f (size before relaxing)
 .debug_str     0x000000000000488d       0x2f /usr/lib/gcc/arm-none-eabi/9.2.1/../../../arm-none-eabi/lib/thumb/v7e-m+fp/hard/libnosys.a(write.o)
                                        0x59f (size before relaxing)
 .debug_str     0x00000000000048bc       0x9c /usr/lib/gcc/arm-none-eabi/9.2.1/thumb/v7e-m+fp/hard/libgcc.a(_arm_addsubdf3.o)
                                         0xa8 (size before relaxing)
 .debug_str     0x0000000000004958       0xa8 /usr/lib/gcc/arm-none-eabi/9.2.1/thumb/v7e-m+fp/hard/libgcc.a(_arm_muldivdf3.o)
 .debug_str     0x0000000000004958       0xa8 /usr/lib/gcc/arm-none-eabi/9.2.1/thumb/v7e-m+fp/hard/libgcc.a(_arm_cmpdf2.o)
 .debug_str     0x0000000000004958       0xa8 /usr/lib/gcc/arm-none-eabi/9.2.1/thumb/v7e-m+fp/hard/libgcc.a(_arm_unorddf2.o)
 .debug_str     0x0000000000004958       0xa8 /usr/lib/gcc/arm-none-eabi/9.2.1/thumb/v7e-m+fp/hard/libgcc.a(_arm_fixunsdfsi.o)
 .debug_str     0x0000000000004958       0x93 /usr/lib/gcc/arm-none-eabi/9.2.1/../../../arm-none-eabi/lib/thumb/v7e-m+fp/hard/libc_nano.a(lib_a-errno.o)
                                        0x5f4 (size before relaxing)

.debug_frame    0x0000000000000000     0x2624
 .debug_frame   0x0000000000000000       0x28 build/main.o
 .debug_frame   0x0000000000000028       0x64 build/delay.o
 .debug_frame   0x000000000000008c       0xec build/24c02.o
 .debug_frame   0x0000000000000178      0x10c build/ctpiic.o
 .debug_frame   0x0000000000000284       0x4c build/exti.o
 .debug_frame   0x00000000000002d0       0x98 build/ft5426.o
 .debug_frame   0x0000000000000368      0x138 build/GT911.o
 .debug_frame   0x00000000000004a0      0x43c build/gui.o
 .debug_frame   0x00000000000008dc       0xf4 build/iic.o
 .debug_frame   0x00000000000009d0       0x48 build/key.o
 .debug_frame   0x0000000000000a18      0x220 build/lcd.o
 .debug_frame   0x0000000000000c38       0x30 build/led.o
 .debug_frame   0x0000000000000c68      0x1e4 build/rtp.o
 .debug_frame   0x0000000000000e4c       0x94 build/test.o
 .debug_frame   0x0000000000000ee0       0x48 build/touch.o
 .debug_frame   0x0000000000000f28       0x9c build/usart.o
 .debug_frame   0x0000000000000fc4       0xa0 build/stm32f4xx_it.o
 .debug_frame   0x0000000000001064       0x60 build/misc.o
 .debug_frame   0x00000000000010c4       0xa0 build/stm32f4xx_exti.o
 .debug_frame   0x0000000000001164      0x15c build/stm32f4xx_fsmc.o
 .debug_frame   0x00000000000012c0      0x120 build/stm32f4xx_gpio.o
 .debug_frame   0x00000000000013e0      0x378 build/stm32f4xx_rcc.o
 .debug_frame   0x0000000000001758      0x224 build/stm32f4xx_usart.o
 .debug_frame   0x000000000000197c       0x54 build/system_stm32f4xx.o
 .debug_frame   0x00000000000019d0       0x2c /usr/lib/gcc/arm-none-eabi/9.2.1/../../../arm-none-eabi/lib/thumb/v7e-m+fp/hard/libc_nano.a(lib_a-init.o)
 .debug_frame   0x00000000000019fc       0x38 /usr/lib/gcc/arm-none-eabi/9.2.1/../../../arm-none-eabi/lib/thumb/v7e-m+fp/hard/libc_nano.a(lib_a-memset.o)
 .debug_frame   0x0000000000001a34       0x7c /usr/lib/gcc/arm-none-eabi/9.2.1/../../../arm-none-eabi/lib/thumb/v7e-m+fp/hard/libc_nano.a(lib_a-printf.o)
 .debug_frame   0x0000000000001ab0       0x40 /usr/lib/gcc/arm-none-eabi/9.2.1/../../../arm-none-eabi/lib/thumb/v7e-m+fp/hard/libc_nano.a(lib_a-puts.o)
 .debug_frame   0x0000000000001af0       0x40 /usr/lib/gcc/arm-none-eabi/9.2.1/../../../arm-none-eabi/lib/thumb/v7e-m+fp/hard/libc_nano.a(lib_a-wbuf.o)
 .debug_frame   0x0000000000001b30       0x2c /usr/lib/gcc/arm-none-eabi/9.2.1/../../../arm-none-eabi/lib/thumb/v7e-m+fp/hard/libc_nano.a(lib_a-wsetup.o)
 .debug_frame   0x0000000000001b5c       0x70 /usr/lib/gcc/arm-none-eabi/9.2.1/../../../arm-none-eabi/lib/thumb/v7e-m+fp/hard/libc_nano.a(lib_a-fflush.o)
 .debug_frame   0x0000000000001bcc      0x120 /usr/lib/gcc/arm-none-eabi/9.2.1/../../../arm-none-eabi/lib/thumb/v7e-m+fp/hard/libc_nano.a(lib_a-findfp.o)
 .debug_frame   0x0000000000001cec       0x54 /usr/lib/gcc/arm-none-eabi/9.2.1/../../../arm-none-eabi/lib/thumb/v7e-m+fp/hard/libc_nano.a(lib_a-fwalk.o)
 .debug_frame   0x0000000000001d40       0x64 /usr/lib/gcc/arm-none-eabi/9.2.1/../../../arm-none-eabi/lib/thumb/v7e-m+fp/hard/libc_nano.a(lib_a-makebuf.o)
 .debug_frame   0x0000000000001da4       0x58 /usr/lib/gcc/arm-none-eabi/9.2.1/../../../arm-none-eabi/lib/thumb/v7e-m+fp/hard/libc_nano.a(lib_a-nano-freer.o)
 .debug_frame   0x0000000000001dfc       0x30 /usr/lib/gcc/arm-none-eabi/9.2.1/../../../arm-none-eabi/lib/thumb/v7e-m+fp/hard/libc_nano.a(lib_a-nano-mallocr.o)
 .debug_frame   0x0000000000001e2c       0xbc /usr/lib/gcc/arm-none-eabi/9.2.1/../../../arm-none-eabi/lib/thumb/v7e-m+fp/hard/libc_nano.a(lib_a-nano-vfprintf.o)
 .debug_frame   0x0000000000001ee8       0x68 /usr/lib/gcc/arm-none-eabi/9.2.1/../../../arm-none-eabi/lib/thumb/v7e-m+fp/hard/libc_nano.a(lib_a-nano-vfprintf_i.o)
 .debug_frame   0x0000000000001f50       0x2c /usr/lib/gcc/arm-none-eabi/9.2.1/../../../arm-none-eabi/lib/thumb/v7e-m+fp/hard/libc_nano.a(lib_a-sbrkr.o)
 .debug_frame   0x0000000000001f7c       0x8c /usr/lib/gcc/arm-none-eabi/9.2.1/../../../arm-none-eabi/lib/thumb/v7e-m+fp/hard/libc_nano.a(lib_a-stdio.o)
 .debug_frame   0x0000000000002008       0x2c /usr/lib/gcc/arm-none-eabi/9.2.1/../../../arm-none-eabi/lib/thumb/v7e-m+fp/hard/libc_nano.a(lib_a-writer.o)
 .debug_frame   0x0000000000002034       0x2c /usr/lib/gcc/arm-none-eabi/9.2.1/../../../arm-none-eabi/lib/thumb/v7e-m+fp/hard/libc_nano.a(lib_a-closer.o)
 .debug_frame   0x0000000000002060       0x2c /usr/lib/gcc/arm-none-eabi/9.2.1/../../../arm-none-eabi/lib/thumb/v7e-m+fp/hard/libc_nano.a(lib_a-fstatr.o)
 .debug_frame   0x000000000000208c       0x64 /usr/lib/gcc/arm-none-eabi/9.2.1/../../../arm-none-eabi/lib/thumb/v7e-m+fp/hard/libc_nano.a(lib_a-fvwrite.o)
 .debug_frame   0x00000000000020f0       0x2c /usr/lib/gcc/arm-none-eabi/9.2.1/../../../arm-none-eabi/lib/thumb/v7e-m+fp/hard/libc_nano.a(lib_a-isattyr.o)
 .debug_frame   0x000000000000211c       0x2c /usr/lib/gcc/arm-none-eabi/9.2.1/../../../arm-none-eabi/lib/thumb/v7e-m+fp/hard/libc_nano.a(lib_a-lseekr.o)
 .debug_frame   0x0000000000002148       0x40 /usr/lib/gcc/arm-none-eabi/9.2.1/../../../arm-none-eabi/lib/thumb/v7e-m+fp/hard/libc_nano.a(lib_a-memmove.o)
 .debug_frame   0x0000000000002188       0x30 /usr/lib/gcc/arm-none-eabi/9.2.1/../../../arm-none-eabi/lib/thumb/v7e-m+fp/hard/libc_nano.a(lib_a-mlock.o)
 .debug_frame   0x00000000000021b8       0x38 /usr/lib/gcc/arm-none-eabi/9.2.1/../../../arm-none-eabi/lib/thumb/v7e-m+fp/hard/libc_nano.a(lib_a-nano-reallocr.o)
 .debug_frame   0x00000000000021f0       0x2c /usr/lib/gcc/arm-none-eabi/9.2.1/../../../arm-none-eabi/lib/thumb/v7e-m+fp/hard/libc_nano.a(lib_a-readr.o)
 .debug_frame   0x000000000000221c       0x6c /usr/lib/gcc/arm-none-eabi/9.2.1/../../../arm-none-eabi/lib/thumb/v7e-m+fp/hard/libc_nano.a(lib_a-reent.o)
 .debug_frame   0x0000000000002288       0x20 /usr/lib/gcc/arm-none-eabi/9.2.1/../../../arm-none-eabi/lib/thumb/v7e-m+fp/hard/libc_nano.a(lib_a-nano-msizer.o)
 .debug_frame   0x00000000000022a8       0x48 /usr/lib/gcc/arm-none-eabi/9.2.1/../../../arm-none-eabi/lib/thumb/v7e-m+fp/hard/libm.a(lib_a-w_sqrt.o)
 .debug_frame   0x00000000000022f0       0x30 /usr/lib/gcc/arm-none-eabi/9.2.1/../../../arm-none-eabi/lib/thumb/v7e-m+fp/hard/libm.a(lib_a-e_sqrt.o)
 .debug_frame   0x0000000000002320       0x20 /usr/lib/gcc/arm-none-eabi/9.2.1/../../../arm-none-eabi/lib/thumb/v7e-m+fp/hard/libnosys.a(close.o)
 .debug_frame   0x0000000000002340       0x20 /usr/lib/gcc/arm-none-eabi/9.2.1/../../../arm-none-eabi/lib/thumb/v7e-m+fp/hard/libnosys.a(fstat.o)
 .debug_frame   0x0000000000002360       0x20 /usr/lib/gcc/arm-none-eabi/9.2.1/../../../arm-none-eabi/lib/thumb/v7e-m+fp/hard/libnosys.a(isatty.o)
 .debug_frame   0x0000000000002380       0x20 /usr/lib/gcc/arm-none-eabi/9.2.1/../../../arm-none-eabi/lib/thumb/v7e-m+fp/hard/libnosys.a(lseek.o)
 .debug_frame   0x00000000000023a0       0x20 /usr/lib/gcc/arm-none-eabi/9.2.1/../../../arm-none-eabi/lib/thumb/v7e-m+fp/hard/libnosys.a(read.o)
 .debug_frame   0x00000000000023c0       0x20 /usr/lib/gcc/arm-none-eabi/9.2.1/../../../arm-none-eabi/lib/thumb/v7e-m+fp/hard/libnosys.a(sbrk.o)
 .debug_frame   0x00000000000023e0       0x20 /usr/lib/gcc/arm-none-eabi/9.2.1/../../../arm-none-eabi/lib/thumb/v7e-m+fp/hard/libnosys.a(write.o)
 .debug_frame   0x0000000000002400       0xac /usr/lib/gcc/arm-none-eabi/9.2.1/thumb/v7e-m+fp/hard/libgcc.a(_arm_addsubdf3.o)
 .debug_frame   0x00000000000024ac       0x50 /usr/lib/gcc/arm-none-eabi/9.2.1/thumb/v7e-m+fp/hard/libgcc.a(_arm_muldivdf3.o)
 .debug_frame   0x00000000000024fc       0xc4 /usr/lib/gcc/arm-none-eabi/9.2.1/thumb/v7e-m+fp/hard/libgcc.a(_arm_cmpdf2.o)
 .debug_frame   0x00000000000025c0       0x20 /usr/lib/gcc/arm-none-eabi/9.2.1/thumb/v7e-m+fp/hard/libgcc.a(_arm_unorddf2.o)
 .debug_frame   0x00000000000025e0       0x24 /usr/lib/gcc/arm-none-eabi/9.2.1/thumb/v7e-m+fp/hard/libgcc.a(_arm_fixunsdfsi.o)
 .debug_frame   0x0000000000002604       0x20 /usr/lib/gcc/arm-none-eabi/9.2.1/../../../arm-none-eabi/lib/thumb/v7e-m+fp/hard/libc_nano.a(lib_a-errno.o)

.stab           0x0000000000000000       0x9c
 .stab          0x0000000000000000       0x24 /usr/lib/gcc/arm-none-eabi/9.2.1/../../../arm-none-eabi/lib/thumb/v7e-m+fp/hard/libnosys.a(close.o)
 .stab          0x0000000000000024       0x18 /usr/lib/gcc/arm-none-eabi/9.2.1/../../../arm-none-eabi/lib/thumb/v7e-m+fp/hard/libnosys.a(fstat.o)
                                         0x24 (size before relaxing)
 .stab          0x000000000000003c       0x18 /usr/lib/gcc/arm-none-eabi/9.2.1/../../../arm-none-eabi/lib/thumb/v7e-m+fp/hard/libnosys.a(isatty.o)
                                         0x24 (size before relaxing)
 .stab          0x0000000000000054       0x18 /usr/lib/gcc/arm-none-eabi/9.2.1/../../../arm-none-eabi/lib/thumb/v7e-m+fp/hard/libnosys.a(lseek.o)
                                         0x24 (size before relaxing)
 .stab          0x000000000000006c       0x18 /usr/lib/gcc/arm-none-eabi/9.2.1/../../../arm-none-eabi/lib/thumb/v7e-m+fp/hard/libnosys.a(read.o)
                                         0x24 (size before relaxing)
 .stab          0x0000000000000084       0x18 /usr/lib/gcc/arm-none-eabi/9.2.1/../../../arm-none-eabi/lib/thumb/v7e-m+fp/hard/libnosys.a(write.o)
                                         0x24 (size before relaxing)

.stabstr        0x0000000000000000      0x14d
 .stabstr       0x0000000000000000      0x14d /usr/lib/gcc/arm-none-eabi/9.2.1/../../../arm-none-eabi/lib/thumb/v7e-m+fp/hard/libnosys.a(close.o)

Cross Reference Table

Symbol                                            File
ADC_IRQHandler                                    build/startup_stm32f407xx.o
AHBPrescTable                                     build/system_stm32f4xx.o
AT24C02_Check                                     build/24c02.o
AT24C02_Init                                      build/24c02.o
                                                  build/main.o
AT24C02_Read                                      build/24c02.o
AT24C02_ReadLenByte                               build/24c02.o
                                                  build/rtp.o
AT24C02_ReadOneByte                               build/24c02.o
                                                  build/rtp.o
AT24C02_Write                                     build/24c02.o
AT24C02_WriteLenByte                              build/24c02.o
                                                  build/rtp.o
AT24C02_WriteOneByte                              build/24c02.o
                                                  build/rtp.o
BACK_COLOR                                        build/lcd.o
                                                  build/rtp.o
                                                  build/gui.o
BusFault_Handler                                  build/stm32f4xx_it.o
CAN1_RX0_IRQHandler                               build/startup_stm32f407xx.o
CAN1_RX1_IRQHandler                               build/startup_stm32f407xx.o
CAN1_SCE_IRQHandler                               build/startup_stm32f407xx.o
CAN1_TX_IRQHandler                                build/startup_stm32f407xx.o
CAN2_RX0_IRQHandler                               build/startup_stm32f407xx.o
CAN2_RX1_IRQHandler                               build/startup_stm32f407xx.o
CAN2_SCE_IRQHandler                               build/startup_stm32f407xx.o
CAN2_TX_IRQHandler                                build/startup_stm32f407xx.o
CMD_RDX                                           build/rtp.o
CMD_RDY                                           build/rtp.o
CTP_Delay                                         build/ctpiic.o
CTP_IIC_Ack                                       build/ctpiic.o
CTP_IIC_Init                                      build/ctpiic.o
                                                  build/touch.o
                                                  build/GT911.o
                                                  build/ft5426.o
CTP_IIC_NAck                                      build/ctpiic.o
CTP_IIC_Read_Byte                                 build/ctpiic.o
                                                  build/GT911.o
                                                  build/ft5426.o
CTP_IIC_Send_Byte                                 build/ctpiic.o
                                                  build/GT911.o
                                                  build/ft5426.o
CTP_IIC_Start                                     build/ctpiic.o
                                                  build/GT911.o
                                                  build/ft5426.o
CTP_IIC_Stop                                      build/ctpiic.o
                                                  build/GT911.o
                                                  build/ft5426.o
CTP_IIC_Wait_Ack                                  build/ctpiic.o
                                                  build/GT911.o
                                                  build/ft5426.o
CTP_Read_ID                                       build/touch.o
ColorTab                                          build/test.o
Color_To_565                                      build/lcd.o
ColornTab                                         build/test.o
Ctp_Test                                          build/test.o
DCMI_IRQHandler                                   build/startup_stm32f407xx.o
DMA1_Stream0_IRQHandler                           build/startup_stm32f407xx.o
DMA1_Stream1_IRQHandler                           build/startup_stm32f407xx.o
DMA1_Stream2_IRQHandler                           build/startup_stm32f407xx.o
DMA1_Stream3_IRQHandler                           build/startup_stm32f407xx.o
DMA1_Stream4_IRQHandler                           build/startup_stm32f407xx.o
DMA1_Stream5_IRQHandler                           build/startup_stm32f407xx.o
DMA1_Stream6_IRQHandler                           build/startup_stm32f407xx.o
DMA1_Stream7_IRQHandler                           build/startup_stm32f407xx.o
DMA2_Stream0_IRQHandler                           build/startup_stm32f407xx.o
DMA2_Stream1_IRQHandler                           build/startup_stm32f407xx.o
DMA2_Stream2_IRQHandler                           build/startup_stm32f407xx.o
DMA2_Stream3_IRQHandler                           build/startup_stm32f407xx.o
DMA2_Stream4_IRQHandler                           build/startup_stm32f407xx.o
DMA2_Stream5_IRQHandler                           build/startup_stm32f407xx.o
DMA2_Stream6_IRQHandler                           build/startup_stm32f407xx.o
DMA2_Stream7_IRQHandler                           build/startup_stm32f407xx.o
DMA_ClearFlag                                     build/stm32f4xx_dma.o
DMA_ClearITPendingBit                             build/stm32f4xx_dma.o
DMA_Cmd                                           build/stm32f4xx_dma.o
DMA_DeInit                                        build/stm32f4xx_dma.o
DMA_DoubleBufferModeCmd                           build/stm32f4xx_dma.o
DMA_DoubleBufferModeConfig                        build/stm32f4xx_dma.o
DMA_FlowControllerConfig                          build/stm32f4xx_dma.o
DMA_GetCmdStatus                                  build/stm32f4xx_dma.o
DMA_GetCurrDataCounter                            build/stm32f4xx_dma.o
DMA_GetCurrentMemoryTarget                        build/stm32f4xx_dma.o
DMA_GetFIFOStatus                                 build/stm32f4xx_dma.o
DMA_GetFlagStatus                                 build/stm32f4xx_dma.o
DMA_GetITStatus                                   build/stm32f4xx_dma.o
DMA_ITConfig                                      build/stm32f4xx_dma.o
DMA_Init                                          build/stm32f4xx_dma.o
DMA_MemoryTargetConfig                            build/stm32f4xx_dma.o
DMA_PeriphIncOffsetSizeConfig                     build/stm32f4xx_dma.o
DMA_SetCurrDataCounter                            build/stm32f4xx_dma.o
DMA_StructInit                                    build/stm32f4xx_dma.o
DebugMon_Handler                                  build/stm32f4xx_it.o
Default_Handler                                   build/startup_stm32f407xx.o
DeviceCode                                        build/lcd.o
DrawTestPage                                      build/test.o
Draw_Button                                       build/gui.o
Draw_DirectButton                                 build/gui.o
Draw_TextBox                                      build/gui.o
Draw_Triangel                                     build/gui.o
Draw_Window                                       build/gui.o
ETH_IRQHandler                                    build/startup_stm32f407xx.o
ETH_WKUP_IRQHandler                               build/startup_stm32f407xx.o
EXTI0_IRQHandler                                  build/startup_stm32f407xx.o
EXTI15_10_IRQHandler                              build/startup_stm32f407xx.o
EXTI1_IRQHandler                                  build/exti.o
EXTI2_IRQHandler                                  build/startup_stm32f407xx.o
EXTI3_IRQHandler                                  build/startup_stm32f407xx.o
EXTI4_IRQHandler                                  build/startup_stm32f407xx.o
EXTI9_5_IRQHandler                                build/startup_stm32f407xx.o
EXTI_ClearFlag                                    build/stm32f4xx_exti.o
EXTI_ClearITPendingBit                            build/stm32f4xx_exti.o
                                                  build/exti.o
EXTI_DeInit                                       build/stm32f4xx_exti.o
EXTI_GenerateSWInterrupt                          build/stm32f4xx_exti.o
EXTI_GetFlagStatus                                build/stm32f4xx_exti.o
EXTI_GetITStatus                                  build/stm32f4xx_exti.o
EXTI_Init                                         build/stm32f4xx_exti.o
                                                  build/exti.o
EXTI_StructInit                                   build/stm32f4xx_exti.o
EscButton                                         build/gui.o
FLASH_IRQHandler                                  build/startup_stm32f407xx.o
FPU_IRQHandler                                    build/startup_stm32f407xx.o
FSMC_ClearFlag                                    build/stm32f4xx_fsmc.o
FSMC_ClearITPendingBit                            build/stm32f4xx_fsmc.o
FSMC_DefaultTimingStruct                          build/stm32f4xx_fsmc.o
FSMC_GetECC                                       build/stm32f4xx_fsmc.o
FSMC_GetFlagStatus                                build/stm32f4xx_fsmc.o
FSMC_GetITStatus                                  build/stm32f4xx_fsmc.o
FSMC_IRQHandler                                   build/startup_stm32f407xx.o
FSMC_ITConfig                                     build/stm32f4xx_fsmc.o
FSMC_NANDCmd                                      build/stm32f4xx_fsmc.o
FSMC_NANDDeInit                                   build/stm32f4xx_fsmc.o
FSMC_NANDECCCmd                                   build/stm32f4xx_fsmc.o
FSMC_NANDInit                                     build/stm32f4xx_fsmc.o
FSMC_NANDStructInit                               build/stm32f4xx_fsmc.o
FSMC_NORSRAMCmd                                   build/stm32f4xx_fsmc.o
                                                  build/lcd.o
FSMC_NORSRAMDeInit                                build/stm32f4xx_fsmc.o
FSMC_NORSRAMInit                                  build/stm32f4xx_fsmc.o
                                                  build/lcd.o
FSMC_NORSRAMStructInit                            build/stm32f4xx_fsmc.o
FSMC_PCCARDCmd                                    build/stm32f4xx_fsmc.o
FSMC_PCCARDDeInit                                 build/stm32f4xx_fsmc.o
FSMC_PCCARDInit                                   build/stm32f4xx_fsmc.o
FSMC_PCCARDStructInit                             build/stm32f4xx_fsmc.o
FT5426_Init                                       build/ft5426.o
                                                  build/touch.o
FT5426_RD_Reg                                     build/ft5426.o
                                                  build/touch.o
FT5426_Scan                                       build/ft5426.o
                                                  build/touch.o
FT5426_TPX_TBL                                    build/ft5426.o
FT5426_WR_Reg                                     build/ft5426.o
Fill_Triangel                                     build/gui.o
GPIO_DeInit                                       build/stm32f4xx_gpio.o
GPIO_Init                                         build/stm32f4xx_gpio.o
                                                  build/usart.o
                                                  build/rtp.o
                                                  build/led.o
                                                  build/lcd.o
                                                  build/key.o
                                                  build/iic.o
                                                  build/GT911.o
                                                  build/ft5426.o
                                                  build/ctpiic.o
GPIO_PinAFConfig                                  build/stm32f4xx_gpio.o
                                                  build/usart.o
                                                  build/lcd.o
GPIO_PinLockConfig                                build/stm32f4xx_gpio.o
GPIO_ReadInputData                                build/stm32f4xx_gpio.o
GPIO_ReadInputDataBit                             build/stm32f4xx_gpio.o
GPIO_ReadOutputData                               build/stm32f4xx_gpio.o
GPIO_ReadOutputDataBit                            build/stm32f4xx_gpio.o
GPIO_ResetBits                                    build/stm32f4xx_gpio.o
GPIO_SetBits                                      build/stm32f4xx_gpio.o
                                                  build/led.o
GPIO_StructInit                                   build/stm32f4xx_gpio.o
GPIO_ToggleBits                                   build/stm32f4xx_gpio.o
GPIO_Write                                        build/stm32f4xx_gpio.o
GPIO_WriteBit                                     build/stm32f4xx_gpio.o
GT911_Init                                        build/GT911.o
                                                  build/touch.o
GT911_Scan                                        build/GT911.o
                                                  build/touch.o
GT911_gpio_init                                   build/GT911.o
                                                  build/touch.o
GT911_int_sync                                    build/GT911.o
                                                  build/touch.o
GT911_reset                                       build/GT911.o
GT911_reset_guitar                                build/GT911.o
GT9XX_ReadData                                    build/GT911.o
                                                  build/touch.o
GT9XX_WriteData                                   build/GT911.o
GT9XX_WriteHandle                                 build/GT911.o
GUI_DrawFont16                                    build/gui.o
GUI_DrawFont24                                    build/gui.o
GUI_DrawFont32                                    build/gui.o
GUI_DrawPoint                                     build/gui.o
Gui_Drawbmp16                                     build/gui.o
Gui_StrCenter                                     build/gui.o
                                                  build/test.o
HASH_RNG_IRQHandler                               build/startup_stm32f407xx.o
HardFault_Handler                                 build/stm32f4xx_it.o
I2C1_ER_IRQHandler                                build/startup_stm32f407xx.o
I2C1_EV_IRQHandler                                build/startup_stm32f407xx.o
I2C2_ER_IRQHandler                                build/startup_stm32f407xx.o
I2C2_EV_IRQHandler                                build/startup_stm32f407xx.o
I2C3_ER_IRQHandler                                build/startup_stm32f407xx.o
I2C3_EV_IRQHandler                                build/startup_stm32f407xx.o
I2C_ARPCmd                                        build/stm32f4xx_i2c.o
I2C_AcknowledgeConfig                             build/stm32f4xx_i2c.o
I2C_AnalogFilterCmd                               build/stm32f4xx_i2c.o
I2C_CalculatePEC                                  build/stm32f4xx_i2c.o
I2C_CheckEvent                                    build/stm32f4xx_i2c.o
I2C_ClearFlag                                     build/stm32f4xx_i2c.o
I2C_ClearITPendingBit                             build/stm32f4xx_i2c.o
I2C_Cmd                                           build/stm32f4xx_i2c.o
I2C_DMACmd                                        build/stm32f4xx_i2c.o
I2C_DMALastTransferCmd                            build/stm32f4xx_i2c.o
I2C_DeInit                                        build/stm32f4xx_i2c.o
I2C_DigitalFilterConfig                           build/stm32f4xx_i2c.o
I2C_DualAddressCmd                                build/stm32f4xx_i2c.o
I2C_FastModeDutyCycleConfig                       build/stm32f4xx_i2c.o
I2C_GeneralCallCmd                                build/stm32f4xx_i2c.o
I2C_GenerateSTART                                 build/stm32f4xx_i2c.o
I2C_GenerateSTOP                                  build/stm32f4xx_i2c.o
I2C_GetFlagStatus                                 build/stm32f4xx_i2c.o
I2C_GetITStatus                                   build/stm32f4xx_i2c.o
I2C_GetLastEvent                                  build/stm32f4xx_i2c.o
I2C_GetPEC                                        build/stm32f4xx_i2c.o
I2C_ITConfig                                      build/stm32f4xx_i2c.o
I2C_Init                                          build/stm32f4xx_i2c.o
I2C_NACKPositionConfig                            build/stm32f4xx_i2c.o
I2C_OwnAddress2Config                             build/stm32f4xx_i2c.o
I2C_PECPositionConfig                             build/stm32f4xx_i2c.o
I2C_ReadRegister                                  build/stm32f4xx_i2c.o
I2C_ReceiveData                                   build/stm32f4xx_i2c.o
I2C_SMBusAlertConfig                              build/stm32f4xx_i2c.o
I2C_Send7bitAddress                               build/stm32f4xx_i2c.o
I2C_SendData                                      build/stm32f4xx_i2c.o
I2C_SoftwareResetCmd                              build/stm32f4xx_i2c.o
I2C_StretchClockCmd                               build/stm32f4xx_i2c.o
I2C_StructInit                                    build/stm32f4xx_i2c.o
I2C_TransmitPEC                                   build/stm32f4xx_i2c.o
I2S_Cmd                                           build/stm32f4xx_spi.o
I2S_FullDuplexConfig                              build/stm32f4xx_spi.o
I2S_Init                                          build/stm32f4xx_spi.o
I2S_StructInit                                    build/stm32f4xx_spi.o
IIC_Ack                                           build/iic.o
IIC_Init                                          build/iic.o
                                                  build/24c02.o
IIC_NAck                                          build/iic.o
IIC_Read_Byte                                     build/iic.o
                                                  build/24c02.o
IIC_Send_Byte                                     build/iic.o
                                                  build/24c02.o
IIC_Start                                         build/iic.o
                                                  build/24c02.o
IIC_Stop                                          build/iic.o
                                                  build/24c02.o
IIC_Wait_Ack                                      build/iic.o
                                                  build/24c02.o
IWDG_Enable                                       build/stm32f4xx_iwdg.o
IWDG_GetFlagStatus                                build/stm32f4xx_iwdg.o
IWDG_ReloadCounter                                build/stm32f4xx_iwdg.o
IWDG_SetPrescaler                                 build/stm32f4xx_iwdg.o
IWDG_SetReload                                    build/stm32f4xx_iwdg.o
IWDG_WriteAccessCmd                               build/stm32f4xx_iwdg.o
KEY_Init                                          build/key.o
                                                  build/main.o
KEY_Scan                                          build/key.o
                                                  build/test.o
LCD_Clear                                         build/lcd.o
                                                  build/test.o
                                                  build/rtp.o
LCD_Draw9Point                                    build/gui.o
LCD_DrawFillRectangle                             build/gui.o
LCD_DrawLine                                      build/gui.o
                                                  build/rtp.o
LCD_DrawLine2                                     build/gui.o
                                                  build/test.o
LCD_DrawPoint                                     build/lcd.o
                                                  build/rtp.o
                                                  build/gui.o
LCD_DrawRectangle                                 build/gui.o
LCD_Fill                                          build/gui.o
                                                  build/test.o
LCD_GPIOInit                                      build/lcd.o
LCD_Init                                          build/lcd.o
                                                  build/main.o
LCD_PWM_BackLightSet                              build/lcd.o
LCD_RD_DATA                                       build/lcd.o
LCD_ReadPoint                                     build/lcd.o
LCD_ReadRAM_Prepare                               build/lcd.o
LCD_ReadReg                                       build/lcd.o
LCD_Read_ID                                       build/lcd.o
LCD_SetCursor                                     build/lcd.o
                                                  build/gui.o
LCD_SetWindows                                    build/lcd.o
                                                  build/gui.o
LCD_Set_BWTR                                      build/lcd.o
LCD_ShowChar                                      build/gui.o
LCD_ShowNum                                       build/gui.o
                                                  build/rtp.o
LCD_ShowString                                    build/gui.o
                                                  build/test.o
                                                  build/rtp.o
LCD_WR_DATA                                       build/lcd.o
                                                  build/gui.o
LCD_WR_REG                                        build/lcd.o
LCD_WriteRAM_Prepare                              build/lcd.o
LCD_WriteReg                                      build/lcd.o
LCD_direction                                     build/lcd.o
LED_Init                                          build/led.o
                                                  build/main.o
Lcd_ReadData_16Bit                                build/lcd.o
Lcd_WriteData_16Bit                               build/lcd.o
                                                  build/gui.o
MemManage_Handler                                 build/stm32f4xx_it.o
NMI_Handler                                       build/stm32f4xx_it.o
NVIC_Init                                         build/misc.o
                                                  build/usart.o
                                                  build/exti.o
NVIC_PriorityGroupConfig                          build/misc.o
                                                  build/main.o
NVIC_SetVectorTable                               build/misc.o
NVIC_SystemLPConfig                               build/misc.o
OTG_FS_IRQHandler                                 build/startup_stm32f407xx.o
OTG_FS_WKUP_IRQHandler                            build/startup_stm32f407xx.o
OTG_HS_EP1_IN_IRQHandler                          build/startup_stm32f407xx.o
OTG_HS_EP1_OUT_IRQHandler                         build/startup_stm32f407xx.o
OTG_HS_IRQHandler                                 build/startup_stm32f407xx.o
OTG_HS_WKUP_IRQHandler                            build/startup_stm32f407xx.o
POINT_COLOR                                       build/lcd.o
                                                  build/test.o
                                                  build/rtp.o
                                                  build/gui.o
POINT_COLOR_TBL                                   build/test.o
PVD_IRQHandler                                    build/startup_stm32f407xx.o
PWR_BackupAccessCmd                               build/stm32f4xx_pwr.o
PWR_BackupRegulatorCmd                            build/stm32f4xx_pwr.o
PWR_ClearFlag                                     build/stm32f4xx_pwr.o
PWR_DeInit                                        build/stm32f4xx_pwr.o
PWR_EnterSTANDBYMode                              build/stm32f4xx_pwr.o
PWR_EnterSTOPMode                                 build/stm32f4xx_pwr.o
PWR_EnterUnderDriveSTOPMode                       build/stm32f4xx_pwr.o
PWR_FlashPowerDownCmd                             build/stm32f4xx_pwr.o
PWR_GetFlagStatus                                 build/stm32f4xx_pwr.o
PWR_LowRegulatorLowVoltageCmd                     build/stm32f4xx_pwr.o
PWR_MainRegulatorLowVoltageCmd                    build/stm32f4xx_pwr.o
PWR_MainRegulatorModeConfig                       build/stm32f4xx_pwr.o
PWR_OverDriveCmd                                  build/stm32f4xx_pwr.o
PWR_OverDriveSWCmd                                build/stm32f4xx_pwr.o
PWR_PVDCmd                                        build/stm32f4xx_pwr.o
PWR_PVDLevelConfig                                build/stm32f4xx_pwr.o
PWR_UnderDriveCmd                                 build/stm32f4xx_pwr.o
PWR_WakeUpPinCmd                                  build/stm32f4xx_pwr.o
PendSV_Handler                                    build/stm32f4xx_it.o
RCC_AHB1PeriphClockCmd                            build/stm32f4xx_rcc.o
                                                  build/usart.o
                                                  build/rtp.o
                                                  build/led.o
                                                  build/lcd.o
                                                  build/key.o
                                                  build/iic.o
                                                  build/GT911.o
                                                  build/ft5426.o
                                                  build/ctpiic.o
RCC_AHB1PeriphClockLPModeCmd                      build/stm32f4xx_rcc.o
RCC_AHB1PeriphResetCmd                            build/stm32f4xx_rcc.o
                                                  build/stm32f4xx_gpio.o
RCC_AHB2PeriphClockCmd                            build/stm32f4xx_rcc.o
RCC_AHB2PeriphClockLPModeCmd                      build/stm32f4xx_rcc.o
RCC_AHB2PeriphResetCmd                            build/stm32f4xx_rcc.o
RCC_AHB3PeriphClockCmd                            build/stm32f4xx_rcc.o
                                                  build/lcd.o
RCC_AHB3PeriphClockLPModeCmd                      build/stm32f4xx_rcc.o
RCC_AHB3PeriphResetCmd                            build/stm32f4xx_rcc.o
RCC_APB1PeriphClockCmd                            build/stm32f4xx_rcc.o
RCC_APB1PeriphClockLPModeCmd                      build/stm32f4xx_rcc.o
RCC_APB1PeriphResetCmd                            build/stm32f4xx_rcc.o
                                                  build/stm32f4xx_usart.o
                                                  build/stm32f4xx_tim.o
                                                  build/stm32f4xx_spi.o
                                                  build/stm32f4xx_pwr.o
                                                  build/stm32f4xx_i2c.o
RCC_APB2PeriphClockCmd                            build/stm32f4xx_rcc.o
                                                  build/usart.o
                                                  build/exti.o
RCC_APB2PeriphClockLPModeCmd                      build/stm32f4xx_rcc.o
RCC_APB2PeriphResetCmd                            build/stm32f4xx_rcc.o
                                                  build/stm32f4xx_usart.o
                                                  build/stm32f4xx_tim.o
                                                  build/stm32f4xx_syscfg.o
                                                  build/stm32f4xx_spi.o
                                                  build/stm32f4xx_sdio.o
RCC_AdjustHSICalibrationValue                     build/stm32f4xx_rcc.o
RCC_BackupResetCmd                                build/stm32f4xx_rcc.o
RCC_ClearFlag                                     build/stm32f4xx_rcc.o
RCC_ClearITPendingBit                             build/stm32f4xx_rcc.o
RCC_ClockSecuritySystemCmd                        build/stm32f4xx_rcc.o
RCC_DeInit                                        build/stm32f4xx_rcc.o
RCC_GetClocksFreq                                 build/stm32f4xx_rcc.o
                                                  build/stm32f4xx_usart.o
                                                  build/stm32f4xx_i2c.o
RCC_GetFlagStatus                                 build/stm32f4xx_rcc.o
RCC_GetITStatus                                   build/stm32f4xx_rcc.o
RCC_GetSYSCLKSource                               build/stm32f4xx_rcc.o
RCC_HCLKConfig                                    build/stm32f4xx_rcc.o
RCC_HSEConfig                                     build/stm32f4xx_rcc.o
RCC_HSICmd                                        build/stm32f4xx_rcc.o
RCC_I2SCLKConfig                                  build/stm32f4xx_rcc.o
RCC_IRQHandler                                    build/startup_stm32f407xx.o
RCC_ITConfig                                      build/stm32f4xx_rcc.o
RCC_LSEConfig                                     build/stm32f4xx_rcc.o
RCC_LSEModeConfig                                 build/stm32f4xx_rcc.o
RCC_LSICmd                                        build/stm32f4xx_rcc.o
RCC_LTDCCLKDivConfig                              build/stm32f4xx_rcc.o
RCC_MCO1Config                                    build/stm32f4xx_rcc.o
RCC_MCO2Config                                    build/stm32f4xx_rcc.o
RCC_PCLK1Config                                   build/stm32f4xx_rcc.o
RCC_PCLK2Config                                   build/stm32f4xx_rcc.o
RCC_PLLCmd                                        build/stm32f4xx_rcc.o
RCC_PLLConfig                                     build/stm32f4xx_rcc.o
RCC_PLLI2SCmd                                     build/stm32f4xx_rcc.o
RCC_PLLI2SConfig                                  build/stm32f4xx_rcc.o
RCC_PLLSAICmd                                     build/stm32f4xx_rcc.o
RCC_PLLSAIConfig                                  build/stm32f4xx_rcc.o
RCC_RTCCLKCmd                                     build/stm32f4xx_rcc.o
RCC_RTCCLKConfig                                  build/stm32f4xx_rcc.o
RCC_SAIBlockACLKConfig                            build/stm32f4xx_rcc.o
RCC_SAIBlockBCLKConfig                            build/stm32f4xx_rcc.o
RCC_SAIPLLI2SClkDivConfig                         build/stm32f4xx_rcc.o
RCC_SAIPLLSAIClkDivConfig                         build/stm32f4xx_rcc.o
RCC_SYSCLKConfig                                  build/stm32f4xx_rcc.o
RCC_TIMCLKPresConfig                              build/stm32f4xx_rcc.o
RCC_WaitForHSEStartUp                             build/stm32f4xx_rcc.o
RTC_AlarmCmd                                      build/stm32f4xx_rtc.o
RTC_AlarmStructInit                               build/stm32f4xx_rtc.o
RTC_AlarmSubSecondConfig                          build/stm32f4xx_rtc.o
RTC_Alarm_IRQHandler                              build/startup_stm32f407xx.o
RTC_BypassShadowCmd                               build/stm32f4xx_rtc.o
RTC_CalibOutputCmd                                build/stm32f4xx_rtc.o
RTC_CalibOutputConfig                             build/stm32f4xx_rtc.o
RTC_ClearFlag                                     build/stm32f4xx_rtc.o
RTC_ClearITPendingBit                             build/stm32f4xx_rtc.o
RTC_CoarseCalibCmd                                build/stm32f4xx_rtc.o
RTC_CoarseCalibConfig                             build/stm32f4xx_rtc.o
RTC_DateStructInit                                build/stm32f4xx_rtc.o
RTC_DayLightSavingConfig                          build/stm32f4xx_rtc.o
RTC_DeInit                                        build/stm32f4xx_rtc.o
RTC_EnterInitMode                                 build/stm32f4xx_rtc.o
RTC_ExitInitMode                                  build/stm32f4xx_rtc.o
RTC_GetAlarm                                      build/stm32f4xx_rtc.o
RTC_GetAlarmSubSecond                             build/stm32f4xx_rtc.o
RTC_GetDate                                       build/stm32f4xx_rtc.o
RTC_GetFlagStatus                                 build/stm32f4xx_rtc.o
RTC_GetITStatus                                   build/stm32f4xx_rtc.o
RTC_GetStoreOperation                             build/stm32f4xx_rtc.o
RTC_GetSubSecond                                  build/stm32f4xx_rtc.o
RTC_GetTime                                       build/stm32f4xx_rtc.o
RTC_GetTimeStamp                                  build/stm32f4xx_rtc.o
RTC_GetTimeStampSubSecond                         build/stm32f4xx_rtc.o
RTC_GetWakeUpCounter                              build/stm32f4xx_rtc.o
RTC_ITConfig                                      build/stm32f4xx_rtc.o
RTC_Init                                          build/stm32f4xx_rtc.o
RTC_OutputConfig                                  build/stm32f4xx_rtc.o
RTC_OutputTypeConfig                              build/stm32f4xx_rtc.o
RTC_ReadBackupRegister                            build/stm32f4xx_rtc.o
RTC_RefClockCmd                                   build/stm32f4xx_rtc.o
RTC_SetAlarm                                      build/stm32f4xx_rtc.o
RTC_SetDate                                       build/stm32f4xx_rtc.o
RTC_SetTime                                       build/stm32f4xx_rtc.o
RTC_SetWakeUpCounter                              build/stm32f4xx_rtc.o
RTC_SmoothCalibConfig                             build/stm32f4xx_rtc.o
RTC_StructInit                                    build/stm32f4xx_rtc.o
RTC_SynchroShiftConfig                            build/stm32f4xx_rtc.o
RTC_TamperCmd                                     build/stm32f4xx_rtc.o
RTC_TamperFilterConfig                            build/stm32f4xx_rtc.o
RTC_TamperPinSelection                            build/stm32f4xx_rtc.o
RTC_TamperPinsPrechargeDuration                   build/stm32f4xx_rtc.o
RTC_TamperPullUpCmd                               build/stm32f4xx_rtc.o
RTC_TamperSamplingFreqConfig                      build/stm32f4xx_rtc.o
RTC_TamperTriggerConfig                           build/stm32f4xx_rtc.o
RTC_TimeStampCmd                                  build/stm32f4xx_rtc.o
RTC_TimeStampOnTamperDetectionCmd                 build/stm32f4xx_rtc.o
RTC_TimeStampPinSelection                         build/stm32f4xx_rtc.o
RTC_TimeStructInit                                build/stm32f4xx_rtc.o
RTC_WKUP_IRQHandler                               build/startup_stm32f407xx.o
RTC_WaitForSynchro                                build/stm32f4xx_rtc.o
RTC_WakeUpClockConfig                             build/stm32f4xx_rtc.o
RTC_WakeUpCmd                                     build/stm32f4xx_rtc.o
RTC_WriteBackupRegister                           build/stm32f4xx_rtc.o
RTC_WriteProtectionCmd                            build/stm32f4xx_rtc.o
RTP_Adj_Info_Show                                 build/rtp.o
RTP_Adjust                                        build/rtp.o
                                                  build/test.o
RTP_Draw_Big_Point                                build/rtp.o
                                                  build/test.o
RTP_Drow_Touch_Point                              build/rtp.o
RTP_Get_Adjdata                                   build/rtp.o
RTP_Init                                          build/rtp.o
RTP_Read_AD                                       build/rtp.o
RTP_Read_XOY                                      build/rtp.o
RTP_Read_XY                                       build/rtp.o
RTP_Read_XY2                                      build/rtp.o
RTP_Save_Adjdata                                  build/rtp.o
                                                  build/test.o
RTP_Scan                                          build/rtp.o
                                                  build/test.o
RTP_Write_Byte                                    build/rtp.o
Reset_Handler                                     build/startup_stm32f407xx.o
Rtp_Test                                          build/test.o
SDIO_CEATAITCmd                                   build/stm32f4xx_sdio.o
SDIO_ClearFlag                                    build/stm32f4xx_sdio.o
SDIO_ClearITPendingBit                            build/stm32f4xx_sdio.o
SDIO_ClockCmd                                     build/stm32f4xx_sdio.o
SDIO_CmdStructInit                                build/stm32f4xx_sdio.o
SDIO_CommandCompletionCmd                         build/stm32f4xx_sdio.o
SDIO_DMACmd                                       build/stm32f4xx_sdio.o
SDIO_DataConfig                                   build/stm32f4xx_sdio.o
SDIO_DataStructInit                               build/stm32f4xx_sdio.o
SDIO_DeInit                                       build/stm32f4xx_sdio.o
SDIO_GetCommandResponse                           build/stm32f4xx_sdio.o
SDIO_GetDataCounter                               build/stm32f4xx_sdio.o
SDIO_GetFIFOCount                                 build/stm32f4xx_sdio.o
SDIO_GetFlagStatus                                build/stm32f4xx_sdio.o
SDIO_GetITStatus                                  build/stm32f4xx_sdio.o
SDIO_GetPowerState                                build/stm32f4xx_sdio.o
SDIO_GetResponse                                  build/stm32f4xx_sdio.o
SDIO_IRQHandler                                   build/startup_stm32f407xx.o
SDIO_ITConfig                                     build/stm32f4xx_sdio.o
SDIO_Init                                         build/stm32f4xx_sdio.o
SDIO_ReadData                                     build/stm32f4xx_sdio.o
SDIO_SendCEATACmd                                 build/stm32f4xx_sdio.o
SDIO_SendCommand                                  build/stm32f4xx_sdio.o
SDIO_SendSDIOSuspendCmd                           build/stm32f4xx_sdio.o
SDIO_SetPowerState                                build/stm32f4xx_sdio.o
SDIO_SetSDIOOperation                             build/stm32f4xx_sdio.o
SDIO_SetSDIOReadWaitMode                          build/stm32f4xx_sdio.o
SDIO_StartSDIOReadWait                            build/stm32f4xx_sdio.o
SDIO_StopSDIOReadWait                             build/stm32f4xx_sdio.o
SDIO_StructInit                                   build/stm32f4xx_sdio.o
SDIO_WriteData                                    build/stm32f4xx_sdio.o
SPI1_IRQHandler                                   build/startup_stm32f407xx.o
SPI2_IRQHandler                                   build/startup_stm32f407xx.o
SPI3_IRQHandler                                   build/startup_stm32f407xx.o
SPI_BiDirectionalLineConfig                       build/stm32f4xx_spi.o
SPI_CalculateCRC                                  build/stm32f4xx_spi.o
SPI_Cmd                                           build/stm32f4xx_spi.o
SPI_DataSizeConfig                                build/stm32f4xx_spi.o
SPI_GetCRC                                        build/stm32f4xx_spi.o
SPI_GetCRCPolynomial                              build/stm32f4xx_spi.o
SPI_I2S_ClearFlag                                 build/stm32f4xx_spi.o
SPI_I2S_ClearITPendingBit                         build/stm32f4xx_spi.o
SPI_I2S_DMACmd                                    build/stm32f4xx_spi.o
SPI_I2S_DeInit                                    build/stm32f4xx_spi.o
SPI_I2S_GetFlagStatus                             build/stm32f4xx_spi.o
SPI_I2S_GetITStatus                               build/stm32f4xx_spi.o
SPI_I2S_ITConfig                                  build/stm32f4xx_spi.o
SPI_I2S_ReceiveData                               build/stm32f4xx_spi.o
SPI_I2S_SendData                                  build/stm32f4xx_spi.o
SPI_Init                                          build/stm32f4xx_spi.o
SPI_NSSInternalSoftwareConfig                     build/stm32f4xx_spi.o
SPI_SSOutputCmd                                   build/stm32f4xx_spi.o
SPI_StructInit                                    build/stm32f4xx_spi.o
SPI_TIModeCmd                                     build/stm32f4xx_spi.o
SPI_TransmitCRC                                   build/stm32f4xx_spi.o
SVC_Handler                                       build/stm32f4xx_it.o
SYSCFG_CompensationCellCmd                        build/stm32f4xx_syscfg.o
SYSCFG_DeInit                                     build/stm32f4xx_syscfg.o
SYSCFG_ETH_MediaInterfaceConfig                   build/stm32f4xx_syscfg.o
SYSCFG_EXTILineConfig                             build/stm32f4xx_syscfg.o
                                                  build/exti.o
SYSCFG_GetCompensationCellStatus                  build/stm32f4xx_syscfg.o
SYSCFG_MemoryRemapConfig                          build/stm32f4xx_syscfg.o
SYSCFG_MemorySwappingBank                         build/stm32f4xx_syscfg.o
SetButton                                         build/gui.o
Show_Str                                          build/gui.o
SysTick_CLKSourceConfig                           build/misc.o
                                                  build/delay.o
SysTick_Handler                                   build/stm32f4xx_it.o
SystemCoreClock                                   build/system_stm32f4xx.o
SystemCoreClockUpdate                             build/system_stm32f4xx.o
SystemInit                                        build/system_stm32f4xx.o
                                                  build/startup_stm32f407xx.o
TAMP_STAMP_IRQHandler                             build/startup_stm32f407xx.o
TIM1_BRK_TIM9_IRQHandler                          build/startup_stm32f407xx.o
TIM1_CC_IRQHandler                                build/startup_stm32f407xx.o
TIM1_TRG_COM_TIM11_IRQHandler                     build/startup_stm32f407xx.o
TIM1_UP_TIM10_IRQHandler                          build/startup_stm32f407xx.o
TIM2_IRQHandler                                   build/startup_stm32f407xx.o
TIM3_IRQHandler                                   build/startup_stm32f407xx.o
TIM4_IRQHandler                                   build/startup_stm32f407xx.o
TIM5_IRQHandler                                   build/startup_stm32f407xx.o
TIM6_DAC_IRQHandler                               build/startup_stm32f407xx.o
TIM7_IRQHandler                                   build/startup_stm32f407xx.o
TIM8_BRK_TIM12_IRQHandler                         build/startup_stm32f407xx.o
TIM8_CC_IRQHandler                                build/startup_stm32f407xx.o
TIM8_TRG_COM_TIM14_IRQHandler                     build/startup_stm32f407xx.o
TIM8_UP_TIM13_IRQHandler                          build/startup_stm32f407xx.o
TIM_ARRPreloadConfig                              build/stm32f4xx_tim.o
TIM_BDTRConfig                                    build/stm32f4xx_tim.o
TIM_BDTRStructInit                                build/stm32f4xx_tim.o
TIM_CCPreloadControl                              build/stm32f4xx_tim.o
TIM_CCxCmd                                        build/stm32f4xx_tim.o
TIM_CCxNCmd                                       build/stm32f4xx_tim.o
TIM_ClearFlag                                     build/stm32f4xx_tim.o
TIM_ClearITPendingBit                             build/stm32f4xx_tim.o
TIM_ClearOC1Ref                                   build/stm32f4xx_tim.o
TIM_ClearOC2Ref                                   build/stm32f4xx_tim.o
TIM_ClearOC3Ref                                   build/stm32f4xx_tim.o
TIM_ClearOC4Ref                                   build/stm32f4xx_tim.o
TIM_Cmd                                           build/stm32f4xx_tim.o
TIM_CounterModeConfig                             build/stm32f4xx_tim.o
TIM_CtrlPWMOutputs                                build/stm32f4xx_tim.o
TIM_DMACmd                                        build/stm32f4xx_tim.o
TIM_DMAConfig                                     build/stm32f4xx_tim.o
TIM_DeInit                                        build/stm32f4xx_tim.o
TIM_ETRClockMode1Config                           build/stm32f4xx_tim.o
TIM_ETRClockMode2Config                           build/stm32f4xx_tim.o
TIM_ETRConfig                                     build/stm32f4xx_tim.o
TIM_EncoderInterfaceConfig                        build/stm32f4xx_tim.o
TIM_ForcedOC1Config                               build/stm32f4xx_tim.o
TIM_ForcedOC2Config                               build/stm32f4xx_tim.o
TIM_ForcedOC3Config                               build/stm32f4xx_tim.o
TIM_ForcedOC4Config                               build/stm32f4xx_tim.o
TIM_GenerateEvent                                 build/stm32f4xx_tim.o
TIM_GetCapture1                                   build/stm32f4xx_tim.o
TIM_GetCapture2                                   build/stm32f4xx_tim.o
TIM_GetCapture3                                   build/stm32f4xx_tim.o
TIM_GetCapture4                                   build/stm32f4xx_tim.o
TIM_GetCounter                                    build/stm32f4xx_tim.o
TIM_GetFlagStatus                                 build/stm32f4xx_tim.o
TIM_GetITStatus                                   build/stm32f4xx_tim.o
TIM_GetPrescaler                                  build/stm32f4xx_tim.o
TIM_ICInit                                        build/stm32f4xx_tim.o
TIM_ICStructInit                                  build/stm32f4xx_tim.o
TIM_ITConfig                                      build/stm32f4xx_tim.o
TIM_ITRxExternalClockConfig                       build/stm32f4xx_tim.o
TIM_InternalClockConfig                           build/stm32f4xx_tim.o
TIM_OC1FastConfig                                 build/stm32f4xx_tim.o
TIM_OC1Init                                       build/stm32f4xx_tim.o
TIM_OC1NPolarityConfig                            build/stm32f4xx_tim.o
TIM_OC1PolarityConfig                             build/stm32f4xx_tim.o
TIM_OC1PreloadConfig                              build/stm32f4xx_tim.o
TIM_OC2FastConfig                                 build/stm32f4xx_tim.o
TIM_OC2Init                                       build/stm32f4xx_tim.o
TIM_OC2NPolarityConfig                            build/stm32f4xx_tim.o
TIM_OC2PolarityConfig                             build/stm32f4xx_tim.o
TIM_OC2PreloadConfig                              build/stm32f4xx_tim.o
TIM_OC3FastConfig                                 build/stm32f4xx_tim.o
TIM_OC3Init                                       build/stm32f4xx_tim.o
TIM_OC3NPolarityConfig                            build/stm32f4xx_tim.o
TIM_OC3PolarityConfig                             build/stm32f4xx_tim.o
TIM_OC3PreloadConfig                              build/stm32f4xx_tim.o
TIM_OC4FastConfig                                 build/stm32f4xx_tim.o
TIM_OC4Init                                       build/stm32f4xx_tim.o
TIM_OC4PolarityConfig                             build/stm32f4xx_tim.o
TIM_OC4PreloadConfig                              build/stm32f4xx_tim.o
TIM_OCStructInit                                  build/stm32f4xx_tim.o
TIM_PWMIConfig                                    build/stm32f4xx_tim.o
TIM_PrescalerConfig                               build/stm32f4xx_tim.o
TIM_RemapConfig                                   build/stm32f4xx_tim.o
TIM_SelectCCDMA                                   build/stm32f4xx_tim.o
TIM_SelectCOM                                     build/stm32f4xx_tim.o
TIM_SelectHallSensor                              build/stm32f4xx_tim.o
TIM_SelectInputTrigger                            build/stm32f4xx_tim.o
TIM_SelectMasterSlaveMode                         build/stm32f4xx_tim.o
TIM_SelectOCxM                                    build/stm32f4xx_tim.o
TIM_SelectOnePulseMode                            build/stm32f4xx_tim.o
TIM_SelectOutputTrigger                           build/stm32f4xx_tim.o
TIM_SelectSlaveMode                               build/stm32f4xx_tim.o
TIM_SetAutoreload                                 build/stm32f4xx_tim.o
TIM_SetClockDivision                              build/stm32f4xx_tim.o
TIM_SetCompare1                                   build/stm32f4xx_tim.o
TIM_SetCompare2                                   build/stm32f4xx_tim.o
TIM_SetCompare3                                   build/stm32f4xx_tim.o
TIM_SetCompare4                                   build/stm32f4xx_tim.o
TIM_SetCounter                                    build/stm32f4xx_tim.o
TIM_SetIC1Prescaler                               build/stm32f4xx_tim.o
TIM_SetIC2Prescaler                               build/stm32f4xx_tim.o
TIM_SetIC3Prescaler                               build/stm32f4xx_tim.o
TIM_SetIC4Prescaler                               build/stm32f4xx_tim.o
TIM_TIxExternalClockConfig                        build/stm32f4xx_tim.o
TIM_TimeBaseInit                                  build/stm32f4xx_tim.o
TIM_TimeBaseStructInit                            build/stm32f4xx_tim.o
TIM_UpdateDisableConfig                           build/stm32f4xx_tim.o
TIM_UpdateRequestConfig                           build/stm32f4xx_tim.o
TPX                                               build/GT911.o
TP_Init                                           build/touch.o
                                                  build/main.o
Touch_EXTI_Init                                   build/exti.o
Touch_Get_Count                                   build/GT911.o
Touch_Test                                        build/test.o
                                                  build/main.o
UART4_IRQHandler                                  build/startup_stm32f407xx.o
UART5_IRQHandler                                  build/startup_stm32f407xx.o
USART1_IRQHandler                                 build/usart.o
USART1_Init                                       build/usart.o
USART2_IRQHandler                                 build/startup_stm32f407xx.o
USART2_Init                                       build/usart.o
                                                  build/main.o
USART3_IRQHandler                                 build/startup_stm32f407xx.o
USART6_IRQHandler                                 build/startup_stm32f407xx.o
USART_ClearFlag                                   build/stm32f4xx_usart.o
                                                  build/usart.o
USART_ClearITPendingBit                           build/stm32f4xx_usart.o
USART_ClockInit                                   build/stm32f4xx_usart.o
USART_ClockStructInit                             build/stm32f4xx_usart.o
USART_Cmd                                         build/stm32f4xx_usart.o
                                                  build/usart.o
USART_DMACmd                                      build/stm32f4xx_usart.o
USART_DeInit                                      build/stm32f4xx_usart.o
USART_GetFlagStatus                               build/stm32f4xx_usart.o
                                                  build/usart.o
USART_GetITStatus                                 build/stm32f4xx_usart.o
                                                  build/usart.o
USART_HalfDuplexCmd                               build/stm32f4xx_usart.o
USART_ITConfig                                    build/stm32f4xx_usart.o
                                                  build/usart.o
USART_Init                                        build/stm32f4xx_usart.o
                                                  build/usart.o
USART_IrDACmd                                     build/stm32f4xx_usart.o
USART_IrDAConfig                                  build/stm32f4xx_usart.o
USART_LINBreakDetectLengthConfig                  build/stm32f4xx_usart.o
USART_LINCmd                                      build/stm32f4xx_usart.o
USART_OneBitMethodCmd                             build/stm32f4xx_usart.o
USART_OverSampling8Cmd                            build/stm32f4xx_usart.o
USART_RX_BUF                                      build/usart.o
USART_RX_STA                                      build/usart.o
USART_ReceiveData                                 build/stm32f4xx_usart.o
                                                  build/usart.o
USART_ReceiverWakeUpCmd                           build/stm32f4xx_usart.o
USART_SendBreak                                   build/stm32f4xx_usart.o
USART_SendData                                    build/stm32f4xx_usart.o
                                                  build/usart.o
USART_SetAddress                                  build/stm32f4xx_usart.o
USART_SetGuardTime                                build/stm32f4xx_usart.o
USART_SetPrescaler                                build/stm32f4xx_usart.o
USART_SmartCardCmd                                build/stm32f4xx_usart.o
USART_SmartCardNACKCmd                            build/stm32f4xx_usart.o
USART_StructInit                                  build/stm32f4xx_usart.o
USART_WakeUpConfig                                build/stm32f4xx_usart.o
UsageFault_Handler                                build/stm32f4xx_it.o
WWDG_IRQHandler                                   build/startup_stm32f407xx.o
_ITM_deregisterTMCloneTable                       /usr/lib/gcc/arm-none-eabi/9.2.1/thumb/v7e-m+fp/hard/crtbegin.o
_ITM_registerTMCloneTable                         /usr/lib/gcc/arm-none-eabi/9.2.1/thumb/v7e-m+fp/hard/crtbegin.o
__TMC_END__                                       /usr/lib/gcc/arm-none-eabi/9.2.1/thumb/v7e-m+fp/hard/crtend.o
                                                  /usr/lib/gcc/arm-none-eabi/9.2.1/thumb/v7e-m+fp/hard/crtbegin.o
__adddf3                                          /usr/lib/gcc/arm-none-eabi/9.2.1/thumb/v7e-m+fp/hard/libgcc.a(_arm_addsubdf3.o)
__aeabi_cdcmpeq                                   /usr/lib/gcc/arm-none-eabi/9.2.1/thumb/v7e-m+fp/hard/libgcc.a(_arm_cmpdf2.o)
__aeabi_cdcmple                                   /usr/lib/gcc/arm-none-eabi/9.2.1/thumb/v7e-m+fp/hard/libgcc.a(_arm_cmpdf2.o)
__aeabi_cdrcmple                                  /usr/lib/gcc/arm-none-eabi/9.2.1/thumb/v7e-m+fp/hard/libgcc.a(_arm_cmpdf2.o)
__aeabi_d2uiz                                     /usr/lib/gcc/arm-none-eabi/9.2.1/thumb/v7e-m+fp/hard/libgcc.a(_arm_fixunsdfsi.o)
                                                  build/rtp.o
                                                  build/lcd.o
__aeabi_dadd                                      /usr/lib/gcc/arm-none-eabi/9.2.1/thumb/v7e-m+fp/hard/libgcc.a(_arm_addsubdf3.o)
                                                  /usr/lib/gcc/arm-none-eabi/9.2.1/../../../arm-none-eabi/lib/thumb/v7e-m+fp/hard/libm.a(lib_a-e_sqrt.o)
__aeabi_dcmpeq                                    /usr/lib/gcc/arm-none-eabi/9.2.1/thumb/v7e-m+fp/hard/libgcc.a(_arm_cmpdf2.o)
__aeabi_dcmpge                                    /usr/lib/gcc/arm-none-eabi/9.2.1/thumb/v7e-m+fp/hard/libgcc.a(_arm_cmpdf2.o)
__aeabi_dcmpgt                                    /usr/lib/gcc/arm-none-eabi/9.2.1/thumb/v7e-m+fp/hard/libgcc.a(_arm_cmpdf2.o)
                                                  build/rtp.o
__aeabi_dcmple                                    /usr/lib/gcc/arm-none-eabi/9.2.1/thumb/v7e-m+fp/hard/libgcc.a(_arm_cmpdf2.o)
__aeabi_dcmplt                                    /usr/lib/gcc/arm-none-eabi/9.2.1/thumb/v7e-m+fp/hard/libgcc.a(_arm_cmpdf2.o)
                                                  /usr/lib/gcc/arm-none-eabi/9.2.1/../../../arm-none-eabi/lib/thumb/v7e-m+fp/hard/libm.a(lib_a-w_sqrt.o)
                                                  build/rtp.o
__aeabi_dcmpun                                    /usr/lib/gcc/arm-none-eabi/9.2.1/thumb/v7e-m+fp/hard/libgcc.a(_arm_unorddf2.o)
                                                  /usr/lib/gcc/arm-none-eabi/9.2.1/../../../arm-none-eabi/lib/thumb/v7e-m+fp/hard/libm.a(lib_a-w_sqrt.o)
__aeabi_ddiv                                      /usr/lib/gcc/arm-none-eabi/9.2.1/thumb/v7e-m+fp/hard/libgcc.a(_arm_muldivdf3.o)
                                                  /usr/lib/gcc/arm-none-eabi/9.2.1/../../../arm-none-eabi/lib/thumb/v7e-m+fp/hard/libm.a(lib_a-e_sqrt.o)
                                                  /usr/lib/gcc/arm-none-eabi/9.2.1/../../../arm-none-eabi/lib/thumb/v7e-m+fp/hard/libm.a(lib_a-w_sqrt.o)
__aeabi_dmul                                      /usr/lib/gcc/arm-none-eabi/9.2.1/thumb/v7e-m+fp/hard/libgcc.a(_arm_muldivdf3.o)
                                                  /usr/lib/gcc/arm-none-eabi/9.2.1/thumb/v7e-m+fp/hard/libgcc.a(_arm_muldf3.o)
                                                  /usr/lib/gcc/arm-none-eabi/9.2.1/../../../arm-none-eabi/lib/thumb/v7e-m+fp/hard/libm.a(lib_a-e_sqrt.o)
                                                  build/rtp.o
                                                  build/lcd.o
__aeabi_drsub                                     /usr/lib/gcc/arm-none-eabi/9.2.1/thumb/v7e-m+fp/hard/libgcc.a(_arm_addsubdf3.o)
__aeabi_dsub                                      /usr/lib/gcc/arm-none-eabi/9.2.1/thumb/v7e-m+fp/hard/libgcc.a(_arm_addsubdf3.o)
                                                  /usr/lib/gcc/arm-none-eabi/9.2.1/../../../arm-none-eabi/lib/thumb/v7e-m+fp/hard/libm.a(lib_a-e_sqrt.o)
__aeabi_f2d                                       /usr/lib/gcc/arm-none-eabi/9.2.1/thumb/v7e-m+fp/hard/libgcc.a(_arm_addsubdf3.o)
                                                  build/rtp.o
__aeabi_i2d                                       /usr/lib/gcc/arm-none-eabi/9.2.1/thumb/v7e-m+fp/hard/libgcc.a(_arm_addsubdf3.o)
                                                  build/lcd.o
__aeabi_l2d                                       /usr/lib/gcc/arm-none-eabi/9.2.1/thumb/v7e-m+fp/hard/libgcc.a(_arm_addsubdf3.o)
__aeabi_ui2d                                      /usr/lib/gcc/arm-none-eabi/9.2.1/thumb/v7e-m+fp/hard/libgcc.a(_arm_addsubdf3.o)
                                                  build/rtp.o
__aeabi_ul2d                                      /usr/lib/gcc/arm-none-eabi/9.2.1/thumb/v7e-m+fp/hard/libgcc.a(_arm_addsubdf3.o)
__atexit_dummy                                    /usr/lib/gcc/arm-none-eabi/9.2.1/../../../arm-none-eabi/lib/thumb/v7e-m+fp/hard/libc_nano.a(lib_a-__atexit.o)
__bss_end__                                       /usr/lib/gcc/arm-none-eabi/9.2.1/../../../arm-none-eabi/lib/thumb/v7e-m+fp/hard/crt0.o
__bss_start__                                     /usr/lib/gcc/arm-none-eabi/9.2.1/../../../arm-none-eabi/lib/thumb/v7e-m+fp/hard/crt0.o
__call_exitprocs                                  /usr/lib/gcc/arm-none-eabi/9.2.1/../../../arm-none-eabi/lib/thumb/v7e-m+fp/hard/libc_nano.a(lib_a-__call_atexit.o)
                                                  /usr/lib/gcc/arm-none-eabi/9.2.1/../../../arm-none-eabi/lib/thumb/v7e-m+fp/hard/libc_nano.a(lib_a-__atexit.o)
                                                  /usr/lib/gcc/arm-none-eabi/9.2.1/../../../arm-none-eabi/lib/thumb/v7e-m+fp/hard/libc_nano.a(lib_a-exit.o)
__cmpdf2                                          /usr/lib/gcc/arm-none-eabi/9.2.1/thumb/v7e-m+fp/hard/libgcc.a(_arm_cmpdf2.o)
__deregister_frame_info                           /usr/lib/gcc/arm-none-eabi/9.2.1/thumb/v7e-m+fp/hard/crtbegin.o
__divdf3                                          /usr/lib/gcc/arm-none-eabi/9.2.1/thumb/v7e-m+fp/hard/libgcc.a(_arm_muldivdf3.o)
__dso_handle                                      /usr/lib/gcc/arm-none-eabi/9.2.1/thumb/v7e-m+fp/hard/crtbegin.o
__eqdf2                                           /usr/lib/gcc/arm-none-eabi/9.2.1/thumb/v7e-m+fp/hard/libgcc.a(_arm_cmpdf2.o)
__errno                                           /usr/lib/gcc/arm-none-eabi/9.2.1/../../../arm-none-eabi/lib/thumb/v7e-m+fp/hard/libc_nano.a(lib_a-errno.o)
                                                  /usr/lib/gcc/arm-none-eabi/9.2.1/../../../arm-none-eabi/lib/thumb/v7e-m+fp/hard/libm.a(lib_a-w_sqrt.o)
__extendsfdf2                                     /usr/lib/gcc/arm-none-eabi/9.2.1/thumb/v7e-m+fp/hard/libgcc.a(_arm_addsubdf3.o)
__fdlib_version                                   /usr/lib/gcc/arm-none-eabi/9.2.1/../../../arm-none-eabi/lib/thumb/v7e-m+fp/hard/libm.a(lib_a-s_lib_ver.o)
                                                  /usr/lib/gcc/arm-none-eabi/9.2.1/../../../arm-none-eabi/lib/thumb/v7e-m+fp/hard/libm.a(lib_a-w_sqrt.o)
__fini_array_end                                  /usr/lib/gcc/arm-none-eabi/9.2.1/../../../arm-none-eabi/lib/thumb/v7e-m+fp/hard/libc_nano.a(lib_a-fini.o)
__fini_array_start                                /usr/lib/gcc/arm-none-eabi/9.2.1/../../../arm-none-eabi/lib/thumb/v7e-m+fp/hard/libc_nano.a(lib_a-fini.o)
__fixunsdfsi                                      /usr/lib/gcc/arm-none-eabi/9.2.1/thumb/v7e-m+fp/hard/libgcc.a(_arm_fixunsdfsi.o)
__floatdidf                                       /usr/lib/gcc/arm-none-eabi/9.2.1/thumb/v7e-m+fp/hard/libgcc.a(_arm_addsubdf3.o)
__floatsidf                                       /usr/lib/gcc/arm-none-eabi/9.2.1/thumb/v7e-m+fp/hard/libgcc.a(_arm_addsubdf3.o)
__floatundidf                                     /usr/lib/gcc/arm-none-eabi/9.2.1/thumb/v7e-m+fp/hard/libgcc.a(_arm_addsubdf3.o)
__floatunsidf                                     /usr/lib/gcc/arm-none-eabi/9.2.1/thumb/v7e-m+fp/hard/libgcc.a(_arm_addsubdf3.o)
__fp_lock_all                                     /usr/lib/gcc/arm-none-eabi/9.2.1/../../../arm-none-eabi/lib/thumb/v7e-m+fp/hard/libc_nano.a(lib_a-findfp.o)
__fp_unlock_all                                   /usr/lib/gcc/arm-none-eabi/9.2.1/../../../arm-none-eabi/lib/thumb/v7e-m+fp/hard/libc_nano.a(lib_a-findfp.o)
__gedf2                                           /usr/lib/gcc/arm-none-eabi/9.2.1/thumb/v7e-m+fp/hard/libgcc.a(_arm_cmpdf2.o)
__gtdf2                                           /usr/lib/gcc/arm-none-eabi/9.2.1/thumb/v7e-m+fp/hard/libgcc.a(_arm_cmpdf2.o)
__ieee754_sqrt                                    /usr/lib/gcc/arm-none-eabi/9.2.1/../../../arm-none-eabi/lib/thumb/v7e-m+fp/hard/libm.a(lib_a-e_sqrt.o)
                                                  /usr/lib/gcc/arm-none-eabi/9.2.1/../../../arm-none-eabi/lib/thumb/v7e-m+fp/hard/libm.a(lib_a-w_sqrt.o)
__init_array_end                                  /usr/lib/gcc/arm-none-eabi/9.2.1/../../../arm-none-eabi/lib/thumb/v7e-m+fp/hard/libc_nano.a(lib_a-init.o)
__init_array_start                                /usr/lib/gcc/arm-none-eabi/9.2.1/../../../arm-none-eabi/lib/thumb/v7e-m+fp/hard/libc_nano.a(lib_a-init.o)
__ledf2                                           /usr/lib/gcc/arm-none-eabi/9.2.1/thumb/v7e-m+fp/hard/libgcc.a(_arm_cmpdf2.o)
__libc_fini_array                                 /usr/lib/gcc/arm-none-eabi/9.2.1/../../../arm-none-eabi/lib/thumb/v7e-m+fp/hard/libc_nano.a(lib_a-fini.o)
                                                  /usr/lib/gcc/arm-none-eabi/9.2.1/../../../arm-none-eabi/lib/thumb/v7e-m+fp/hard/crt0.o
__libc_init_array                                 /usr/lib/gcc/arm-none-eabi/9.2.1/../../../arm-none-eabi/lib/thumb/v7e-m+fp/hard/libc_nano.a(lib_a-init.o)
                                                  build/startup_stm32f407xx.o
                                                  /usr/lib/gcc/arm-none-eabi/9.2.1/../../../arm-none-eabi/lib/thumb/v7e-m+fp/hard/crt0.o
__ltdf2                                           /usr/lib/gcc/arm-none-eabi/9.2.1/thumb/v7e-m+fp/hard/libgcc.a(_arm_cmpdf2.o)
__malloc_free_list                                /usr/lib/gcc/arm-none-eabi/9.2.1/../../../arm-none-eabi/lib/thumb/v7e-m+fp/hard/libc_nano.a(lib_a-nano-mallocr.o)
                                                  /usr/lib/gcc/arm-none-eabi/9.2.1/../../../arm-none-eabi/lib/thumb/v7e-m+fp/hard/libc_nano.a(lib_a-nano-freer.o)
__malloc_lock                                     /usr/lib/gcc/arm-none-eabi/9.2.1/../../../arm-none-eabi/lib/thumb/v7e-m+fp/hard/libc_nano.a(lib_a-mlock.o)
                                                  /usr/lib/gcc/arm-none-eabi/9.2.1/../../../arm-none-eabi/lib/thumb/v7e-m+fp/hard/libc_nano.a(lib_a-nano-mallocr.o)
                                                  /usr/lib/gcc/arm-none-eabi/9.2.1/../../../arm-none-eabi/lib/thumb/v7e-m+fp/hard/libc_nano.a(lib_a-nano-freer.o)
__malloc_sbrk_start                               /usr/lib/gcc/arm-none-eabi/9.2.1/../../../arm-none-eabi/lib/thumb/v7e-m+fp/hard/libc_nano.a(lib_a-nano-mallocr.o)
__malloc_unlock                                   /usr/lib/gcc/arm-none-eabi/9.2.1/../../../arm-none-eabi/lib/thumb/v7e-m+fp/hard/libc_nano.a(lib_a-mlock.o)
                                                  /usr/lib/gcc/arm-none-eabi/9.2.1/../../../arm-none-eabi/lib/thumb/v7e-m+fp/hard/libc_nano.a(lib_a-nano-mallocr.o)
                                                  /usr/lib/gcc/arm-none-eabi/9.2.1/../../../arm-none-eabi/lib/thumb/v7e-m+fp/hard/libc_nano.a(lib_a-nano-freer.o)
__muldf3                                          /usr/lib/gcc/arm-none-eabi/9.2.1/thumb/v7e-m+fp/hard/libgcc.a(_arm_muldivdf3.o)
                                                  /usr/lib/gcc/arm-none-eabi/9.2.1/thumb/v7e-m+fp/hard/libgcc.a(_arm_muldf3.o)
__nedf2                                           /usr/lib/gcc/arm-none-eabi/9.2.1/thumb/v7e-m+fp/hard/libgcc.a(_arm_cmpdf2.o)
__on_exit_args                                    /usr/lib/gcc/arm-none-eabi/9.2.1/../../../arm-none-eabi/lib/thumb/v7e-m+fp/hard/libc_nano.a(lib_a-__atexit.o)
__preinit_array_end                               /usr/lib/gcc/arm-none-eabi/9.2.1/../../../arm-none-eabi/lib/thumb/v7e-m+fp/hard/libc_nano.a(lib_a-init.o)
__preinit_array_start                             /usr/lib/gcc/arm-none-eabi/9.2.1/../../../arm-none-eabi/lib/thumb/v7e-m+fp/hard/libc_nano.a(lib_a-init.o)
__register_exitproc                               /usr/lib/gcc/arm-none-eabi/9.2.1/../../../arm-none-eabi/lib/thumb/v7e-m+fp/hard/libc_nano.a(lib_a-__atexit.o)
                                                  /usr/lib/gcc/arm-none-eabi/9.2.1/../../../arm-none-eabi/lib/thumb/v7e-m+fp/hard/libc_nano.a(lib_a-atexit.o)
__register_frame_info                             /usr/lib/gcc/arm-none-eabi/9.2.1/thumb/v7e-m+fp/hard/crtbegin.o
__sclose                                          /usr/lib/gcc/arm-none-eabi/9.2.1/../../../arm-none-eabi/lib/thumb/v7e-m+fp/hard/libc_nano.a(lib_a-stdio.o)
                                                  /usr/lib/gcc/arm-none-eabi/9.2.1/../../../arm-none-eabi/lib/thumb/v7e-m+fp/hard/libc_nano.a(lib_a-findfp.o)
__seofread                                        /usr/lib/gcc/arm-none-eabi/9.2.1/../../../arm-none-eabi/lib/thumb/v7e-m+fp/hard/libc_nano.a(lib_a-stdio.o)
__sf_fake_stderr                                  /usr/lib/gcc/arm-none-eabi/9.2.1/../../../arm-none-eabi/lib/thumb/v7e-m+fp/hard/libc_nano.a(lib_a-findfp.o)
                                                  /usr/lib/gcc/arm-none-eabi/9.2.1/../../../arm-none-eabi/lib/thumb/v7e-m+fp/hard/libc_nano.a(lib_a-nano-vfprintf.o)
                                                  /usr/lib/gcc/arm-none-eabi/9.2.1/../../../arm-none-eabi/lib/thumb/v7e-m+fp/hard/libc_nano.a(lib_a-fflush.o)
                                                  /usr/lib/gcc/arm-none-eabi/9.2.1/../../../arm-none-eabi/lib/thumb/v7e-m+fp/hard/libc_nano.a(lib_a-wsetup.o)
                                                  /usr/lib/gcc/arm-none-eabi/9.2.1/../../../arm-none-eabi/lib/thumb/v7e-m+fp/hard/libc_nano.a(lib_a-wbuf.o)
                                                  /usr/lib/gcc/arm-none-eabi/9.2.1/../../../arm-none-eabi/lib/thumb/v7e-m+fp/hard/libc_nano.a(lib_a-puts.o)
                                                  /usr/lib/gcc/arm-none-eabi/9.2.1/../../../arm-none-eabi/lib/thumb/v7e-m+fp/hard/libc_nano.a(lib_a-impure.o)
__sf_fake_stdin                                   /usr/lib/gcc/arm-none-eabi/9.2.1/../../../arm-none-eabi/lib/thumb/v7e-m+fp/hard/libc_nano.a(lib_a-findfp.o)
                                                  /usr/lib/gcc/arm-none-eabi/9.2.1/../../../arm-none-eabi/lib/thumb/v7e-m+fp/hard/libc_nano.a(lib_a-nano-vfprintf.o)
                                                  /usr/lib/gcc/arm-none-eabi/9.2.1/../../../arm-none-eabi/lib/thumb/v7e-m+fp/hard/libc_nano.a(lib_a-fflush.o)
                                                  /usr/lib/gcc/arm-none-eabi/9.2.1/../../../arm-none-eabi/lib/thumb/v7e-m+fp/hard/libc_nano.a(lib_a-wsetup.o)
                                                  /usr/lib/gcc/arm-none-eabi/9.2.1/../../../arm-none-eabi/lib/thumb/v7e-m+fp/hard/libc_nano.a(lib_a-wbuf.o)
                                                  /usr/lib/gcc/arm-none-eabi/9.2.1/../../../arm-none-eabi/lib/thumb/v7e-m+fp/hard/libc_nano.a(lib_a-puts.o)
                                                  /usr/lib/gcc/arm-none-eabi/9.2.1/../../../arm-none-eabi/lib/thumb/v7e-m+fp/hard/libc_nano.a(lib_a-impure.o)
__sf_fake_stdout                                  /usr/lib/gcc/arm-none-eabi/9.2.1/../../../arm-none-eabi/lib/thumb/v7e-m+fp/hard/libc_nano.a(lib_a-findfp.o)
                                                  /usr/lib/gcc/arm-none-eabi/9.2.1/../../../arm-none-eabi/lib/thumb/v7e-m+fp/hard/libc_nano.a(lib_a-nano-vfprintf.o)
                                                  /usr/lib/gcc/arm-none-eabi/9.2.1/../../../arm-none-eabi/lib/thumb/v7e-m+fp/hard/libc_nano.a(lib_a-fflush.o)
                                                  /usr/lib/gcc/arm-none-eabi/9.2.1/../../../arm-none-eabi/lib/thumb/v7e-m+fp/hard/libc_nano.a(lib_a-wsetup.o)
                                                  /usr/lib/gcc/arm-none-eabi/9.2.1/../../../arm-none-eabi/lib/thumb/v7e-m+fp/hard/libc_nano.a(lib_a-wbuf.o)
                                                  /usr/lib/gcc/arm-none-eabi/9.2.1/../../../arm-none-eabi/lib/thumb/v7e-m+fp/hard/libc_nano.a(lib_a-puts.o)
                                                  /usr/lib/gcc/arm-none-eabi/9.2.1/../../../arm-none-eabi/lib/thumb/v7e-m+fp/hard/libc_nano.a(lib_a-impure.o)
__sflush_r                                        /usr/lib/gcc/arm-none-eabi/9.2.1/../../../arm-none-eabi/lib/thumb/v7e-m+fp/hard/libc_nano.a(lib_a-fflush.o)
__sfmoreglue                                      /usr/lib/gcc/arm-none-eabi/9.2.1/../../../arm-none-eabi/lib/thumb/v7e-m+fp/hard/libc_nano.a(lib_a-findfp.o)
__sfp                                             /usr/lib/gcc/arm-none-eabi/9.2.1/../../../arm-none-eabi/lib/thumb/v7e-m+fp/hard/libc_nano.a(lib_a-findfp.o)
__sfp_lock_acquire                                /usr/lib/gcc/arm-none-eabi/9.2.1/../../../arm-none-eabi/lib/thumb/v7e-m+fp/hard/libc_nano.a(lib_a-findfp.o)
__sfp_lock_release                                /usr/lib/gcc/arm-none-eabi/9.2.1/../../../arm-none-eabi/lib/thumb/v7e-m+fp/hard/libc_nano.a(lib_a-findfp.o)
__sfputs_r                                        /usr/lib/gcc/arm-none-eabi/9.2.1/../../../arm-none-eabi/lib/thumb/v7e-m+fp/hard/libc_nano.a(lib_a-nano-vfprintf.o)
__sfvwrite_r                                      /usr/lib/gcc/arm-none-eabi/9.2.1/../../../arm-none-eabi/lib/thumb/v7e-m+fp/hard/libc_nano.a(lib_a-fvwrite.o)
                                                  /usr/lib/gcc/arm-none-eabi/9.2.1/../../../arm-none-eabi/lib/thumb/v7e-m+fp/hard/libc_nano.a(lib_a-nano-vfprintf.o)
__sinit                                           /usr/lib/gcc/arm-none-eabi/9.2.1/../../../arm-none-eabi/lib/thumb/v7e-m+fp/hard/libc_nano.a(lib_a-findfp.o)
                                                  /usr/lib/gcc/arm-none-eabi/9.2.1/../../../arm-none-eabi/lib/thumb/v7e-m+fp/hard/libc_nano.a(lib_a-nano-vfprintf.o)
                                                  /usr/lib/gcc/arm-none-eabi/9.2.1/../../../arm-none-eabi/lib/thumb/v7e-m+fp/hard/libc_nano.a(lib_a-fflush.o)
                                                  /usr/lib/gcc/arm-none-eabi/9.2.1/../../../arm-none-eabi/lib/thumb/v7e-m+fp/hard/libc_nano.a(lib_a-wsetup.o)
                                                  /usr/lib/gcc/arm-none-eabi/9.2.1/../../../arm-none-eabi/lib/thumb/v7e-m+fp/hard/libc_nano.a(lib_a-wbuf.o)
                                                  /usr/lib/gcc/arm-none-eabi/9.2.1/../../../arm-none-eabi/lib/thumb/v7e-m+fp/hard/libc_nano.a(lib_a-puts.o)
                                                  /usr/lib/gcc/arm-none-eabi/9.2.1/../../../arm-none-eabi/lib/thumb/v7e-m+fp/hard/libc_nano.a(lib_a-printf.o)
__sinit_lock_acquire                              /usr/lib/gcc/arm-none-eabi/9.2.1/../../../arm-none-eabi/lib/thumb/v7e-m+fp/hard/libc_nano.a(lib_a-findfp.o)
__sinit_lock_release                              /usr/lib/gcc/arm-none-eabi/9.2.1/../../../arm-none-eabi/lib/thumb/v7e-m+fp/hard/libc_nano.a(lib_a-findfp.o)
__smakebuf_r                                      /usr/lib/gcc/arm-none-eabi/9.2.1/../../../arm-none-eabi/lib/thumb/v7e-m+fp/hard/libc_nano.a(lib_a-makebuf.o)
                                                  /usr/lib/gcc/arm-none-eabi/9.2.1/../../../arm-none-eabi/lib/thumb/v7e-m+fp/hard/libc_nano.a(lib_a-wsetup.o)
__sprint_r                                        /usr/lib/gcc/arm-none-eabi/9.2.1/../../../arm-none-eabi/lib/thumb/v7e-m+fp/hard/libc_nano.a(lib_a-nano-vfprintf.o)
__sread                                           /usr/lib/gcc/arm-none-eabi/9.2.1/../../../arm-none-eabi/lib/thumb/v7e-m+fp/hard/libc_nano.a(lib_a-stdio.o)
                                                  /usr/lib/gcc/arm-none-eabi/9.2.1/../../../arm-none-eabi/lib/thumb/v7e-m+fp/hard/libc_nano.a(lib_a-findfp.o)
__sseek                                           /usr/lib/gcc/arm-none-eabi/9.2.1/../../../arm-none-eabi/lib/thumb/v7e-m+fp/hard/libc_nano.a(lib_a-stdio.o)
                                                  /usr/lib/gcc/arm-none-eabi/9.2.1/../../../arm-none-eabi/lib/thumb/v7e-m+fp/hard/libc_nano.a(lib_a-findfp.o)
__stack                                           /usr/lib/gcc/arm-none-eabi/9.2.1/../../../arm-none-eabi/lib/thumb/v7e-m+fp/hard/crt0.o
__stdout                                          build/usart.o
__subdf3                                          /usr/lib/gcc/arm-none-eabi/9.2.1/thumb/v7e-m+fp/hard/libgcc.a(_arm_addsubdf3.o)
__swbuf                                           /usr/lib/gcc/arm-none-eabi/9.2.1/../../../arm-none-eabi/lib/thumb/v7e-m+fp/hard/libc_nano.a(lib_a-wbuf.o)
__swbuf_r                                         /usr/lib/gcc/arm-none-eabi/9.2.1/../../../arm-none-eabi/lib/thumb/v7e-m+fp/hard/libc_nano.a(lib_a-wbuf.o)
                                                  /usr/lib/gcc/arm-none-eabi/9.2.1/../../../arm-none-eabi/lib/thumb/v7e-m+fp/hard/libc_nano.a(lib_a-nano-vfprintf.o)
                                                  /usr/lib/gcc/arm-none-eabi/9.2.1/../../../arm-none-eabi/lib/thumb/v7e-m+fp/hard/libc_nano.a(lib_a-puts.o)
__swhatbuf_r                                      /usr/lib/gcc/arm-none-eabi/9.2.1/../../../arm-none-eabi/lib/thumb/v7e-m+fp/hard/libc_nano.a(lib_a-makebuf.o)
__swrite                                          /usr/lib/gcc/arm-none-eabi/9.2.1/../../../arm-none-eabi/lib/thumb/v7e-m+fp/hard/libc_nano.a(lib_a-stdio.o)
                                                  /usr/lib/gcc/arm-none-eabi/9.2.1/../../../arm-none-eabi/lib/thumb/v7e-m+fp/hard/libc_nano.a(lib_a-findfp.o)
__swsetup_r                                       /usr/lib/gcc/arm-none-eabi/9.2.1/../../../arm-none-eabi/lib/thumb/v7e-m+fp/hard/libc_nano.a(lib_a-wsetup.o)
                                                  /usr/lib/gcc/arm-none-eabi/9.2.1/../../../arm-none-eabi/lib/thumb/v7e-m+fp/hard/libc_nano.a(lib_a-fvwrite.o)
                                                  /usr/lib/gcc/arm-none-eabi/9.2.1/../../../arm-none-eabi/lib/thumb/v7e-m+fp/hard/libc_nano.a(lib_a-nano-vfprintf.o)
                                                  /usr/lib/gcc/arm-none-eabi/9.2.1/../../../arm-none-eabi/lib/thumb/v7e-m+fp/hard/libc_nano.a(lib_a-wbuf.o)
                                                  /usr/lib/gcc/arm-none-eabi/9.2.1/../../../arm-none-eabi/lib/thumb/v7e-m+fp/hard/libc_nano.a(lib_a-puts.o)
__unorddf2                                        /usr/lib/gcc/arm-none-eabi/9.2.1/thumb/v7e-m+fp/hard/libgcc.a(_arm_unorddf2.o)
_cleanup                                          /usr/lib/gcc/arm-none-eabi/9.2.1/../../../arm-none-eabi/lib/thumb/v7e-m+fp/hard/libc_nano.a(lib_a-findfp.o)
_cleanup_r                                        /usr/lib/gcc/arm-none-eabi/9.2.1/../../../arm-none-eabi/lib/thumb/v7e-m+fp/hard/libc_nano.a(lib_a-findfp.o)
                                                  /usr/lib/gcc/arm-none-eabi/9.2.1/../../../arm-none-eabi/lib/thumb/v7e-m+fp/hard/libc_nano.a(lib_a-makebuf.o)
_close                                            /usr/lib/gcc/arm-none-eabi/9.2.1/../../../arm-none-eabi/lib/thumb/v7e-m+fp/hard/libnosys.a(close.o)
                                                  /usr/lib/gcc/arm-none-eabi/9.2.1/../../../arm-none-eabi/lib/thumb/v7e-m+fp/hard/libc_nano.a(lib_a-closer.o)
_close_r                                          /usr/lib/gcc/arm-none-eabi/9.2.1/../../../arm-none-eabi/lib/thumb/v7e-m+fp/hard/libc_nano.a(lib_a-closer.o)
                                                  /usr/lib/gcc/arm-none-eabi/9.2.1/../../../arm-none-eabi/lib/thumb/v7e-m+fp/hard/libc_nano.a(lib_a-stdio.o)
_draw_circle_8                                    build/gui.o
_ebss                                             build/startup_stm32f407xx.o
_edata                                            build/startup_stm32f407xx.o
_estack                                           build/startup_stm32f407xx.o
_exit                                             /usr/lib/gcc/arm-none-eabi/9.2.1/../../../arm-none-eabi/lib/thumb/v7e-m+fp/hard/libnosys.a(_exit.o)
                                                  /usr/lib/gcc/arm-none-eabi/9.2.1/../../../arm-none-eabi/lib/thumb/v7e-m+fp/hard/libc_nano.a(lib_a-exit.o)
_fflush_r                                         /usr/lib/gcc/arm-none-eabi/9.2.1/../../../arm-none-eabi/lib/thumb/v7e-m+fp/hard/libc_nano.a(lib_a-fflush.o)
                                                  /usr/lib/gcc/arm-none-eabi/9.2.1/../../../arm-none-eabi/lib/thumb/v7e-m+fp/hard/libc_nano.a(lib_a-fvwrite.o)
                                                  /usr/lib/gcc/arm-none-eabi/9.2.1/../../../arm-none-eabi/lib/thumb/v7e-m+fp/hard/libc_nano.a(lib_a-findfp.o)
                                                  /usr/lib/gcc/arm-none-eabi/9.2.1/../../../arm-none-eabi/lib/thumb/v7e-m+fp/hard/libc_nano.a(lib_a-wbuf.o)
_fini                                             /usr/lib/gcc/arm-none-eabi/9.2.1/thumb/v7e-m+fp/hard/crti.o
                                                  /usr/lib/gcc/arm-none-eabi/9.2.1/../../../arm-none-eabi/lib/thumb/v7e-m+fp/hard/libc_nano.a(lib_a-fini.o)
_free_r                                           /usr/lib/gcc/arm-none-eabi/9.2.1/../../../arm-none-eabi/lib/thumb/v7e-m+fp/hard/libc_nano.a(lib_a-nano-freer.o)
                                                  /usr/lib/gcc/arm-none-eabi/9.2.1/../../../arm-none-eabi/lib/thumb/v7e-m+fp/hard/libc_nano.a(lib_a-reent.o)
                                                  /usr/lib/gcc/arm-none-eabi/9.2.1/../../../arm-none-eabi/lib/thumb/v7e-m+fp/hard/libc_nano.a(lib_a-nano-reallocr.o)
                                                  /usr/lib/gcc/arm-none-eabi/9.2.1/../../../arm-none-eabi/lib/thumb/v7e-m+fp/hard/libc_nano.a(lib_a-fvwrite.o)
                                                  /usr/lib/gcc/arm-none-eabi/9.2.1/../../../arm-none-eabi/lib/thumb/v7e-m+fp/hard/libc_nano.a(lib_a-fflush.o)
                                                  /usr/lib/gcc/arm-none-eabi/9.2.1/../../../arm-none-eabi/lib/thumb/v7e-m+fp/hard/libc_nano.a(lib_a-wsetup.o)
_fstat                                            /usr/lib/gcc/arm-none-eabi/9.2.1/../../../arm-none-eabi/lib/thumb/v7e-m+fp/hard/libnosys.a(fstat.o)
                                                  /usr/lib/gcc/arm-none-eabi/9.2.1/../../../arm-none-eabi/lib/thumb/v7e-m+fp/hard/libc_nano.a(lib_a-fstatr.o)
_fstat_r                                          /usr/lib/gcc/arm-none-eabi/9.2.1/../../../arm-none-eabi/lib/thumb/v7e-m+fp/hard/libc_nano.a(lib_a-fstatr.o)
                                                  /usr/lib/gcc/arm-none-eabi/9.2.1/../../../arm-none-eabi/lib/thumb/v7e-m+fp/hard/libc_nano.a(lib_a-makebuf.o)
_fwalk                                            /usr/lib/gcc/arm-none-eabi/9.2.1/../../../arm-none-eabi/lib/thumb/v7e-m+fp/hard/libc_nano.a(lib_a-fwalk.o)
                                                  /usr/lib/gcc/arm-none-eabi/9.2.1/../../../arm-none-eabi/lib/thumb/v7e-m+fp/hard/libc_nano.a(lib_a-findfp.o)
_fwalk_reent                                      /usr/lib/gcc/arm-none-eabi/9.2.1/../../../arm-none-eabi/lib/thumb/v7e-m+fp/hard/libc_nano.a(lib_a-fwalk.o)
                                                  /usr/lib/gcc/arm-none-eabi/9.2.1/../../../arm-none-eabi/lib/thumb/v7e-m+fp/hard/libc_nano.a(lib_a-findfp.o)
                                                  /usr/lib/gcc/arm-none-eabi/9.2.1/../../../arm-none-eabi/lib/thumb/v7e-m+fp/hard/libc_nano.a(lib_a-fflush.o)
_global_atexit                                    /usr/lib/gcc/arm-none-eabi/9.2.1/../../../arm-none-eabi/lib/thumb/v7e-m+fp/hard/libc_nano.a(lib_a-__call_atexit.o)
                                                  /usr/lib/gcc/arm-none-eabi/9.2.1/../../../arm-none-eabi/lib/thumb/v7e-m+fp/hard/libc_nano.a(lib_a-__atexit.o)
_global_impure_ptr                                /usr/lib/gcc/arm-none-eabi/9.2.1/../../../arm-none-eabi/lib/thumb/v7e-m+fp/hard/libc_nano.a(lib_a-impure.o)
                                                  /usr/lib/gcc/arm-none-eabi/9.2.1/../../../arm-none-eabi/lib/thumb/v7e-m+fp/hard/libc_nano.a(lib_a-findfp.o)
                                                  /usr/lib/gcc/arm-none-eabi/9.2.1/../../../arm-none-eabi/lib/thumb/v7e-m+fp/hard/libc_nano.a(lib_a-fflush.o)
                                                  /usr/lib/gcc/arm-none-eabi/9.2.1/../../../arm-none-eabi/lib/thumb/v7e-m+fp/hard/libc_nano.a(lib_a-exit.o)
_impure_ptr                                       /usr/lib/gcc/arm-none-eabi/9.2.1/../../../arm-none-eabi/lib/thumb/v7e-m+fp/hard/libc_nano.a(lib_a-impure.o)
                                                  /usr/lib/gcc/arm-none-eabi/9.2.1/../../../arm-none-eabi/lib/thumb/v7e-m+fp/hard/libc_nano.a(lib_a-errno.o)
                                                  /usr/lib/gcc/arm-none-eabi/9.2.1/../../../arm-none-eabi/lib/thumb/v7e-m+fp/hard/libc_nano.a(lib_a-reent.o)
                                                  /usr/lib/gcc/arm-none-eabi/9.2.1/../../../arm-none-eabi/lib/thumb/v7e-m+fp/hard/libc_nano.a(lib_a-nano-vfprintf.o)
                                                  /usr/lib/gcc/arm-none-eabi/9.2.1/../../../arm-none-eabi/lib/thumb/v7e-m+fp/hard/libc_nano.a(lib_a-findfp.o)
                                                  /usr/lib/gcc/arm-none-eabi/9.2.1/../../../arm-none-eabi/lib/thumb/v7e-m+fp/hard/libc_nano.a(lib_a-fflush.o)
                                                  /usr/lib/gcc/arm-none-eabi/9.2.1/../../../arm-none-eabi/lib/thumb/v7e-m+fp/hard/libc_nano.a(lib_a-wsetup.o)
                                                  /usr/lib/gcc/arm-none-eabi/9.2.1/../../../arm-none-eabi/lib/thumb/v7e-m+fp/hard/libc_nano.a(lib_a-wbuf.o)
                                                  /usr/lib/gcc/arm-none-eabi/9.2.1/../../../arm-none-eabi/lib/thumb/v7e-m+fp/hard/libc_nano.a(lib_a-puts.o)
                                                  /usr/lib/gcc/arm-none-eabi/9.2.1/../../../arm-none-eabi/lib/thumb/v7e-m+fp/hard/libc_nano.a(lib_a-printf.o)
_init                                             /usr/lib/gcc/arm-none-eabi/9.2.1/thumb/v7e-m+fp/hard/crti.o
                                                  /usr/lib/gcc/arm-none-eabi/9.2.1/../../../arm-none-eabi/lib/thumb/v7e-m+fp/hard/libc_nano.a(lib_a-init.o)
_iprintf_r                                        /usr/lib/gcc/arm-none-eabi/9.2.1/../../../arm-none-eabi/lib/thumb/v7e-m+fp/hard/libc_nano.a(lib_a-printf.o)
_isatty                                           /usr/lib/gcc/arm-none-eabi/9.2.1/../../../arm-none-eabi/lib/thumb/v7e-m+fp/hard/libnosys.a(isatty.o)
                                                  /usr/lib/gcc/arm-none-eabi/9.2.1/../../../arm-none-eabi/lib/thumb/v7e-m+fp/hard/libc_nano.a(lib_a-isattyr.o)
_isatty_r                                         /usr/lib/gcc/arm-none-eabi/9.2.1/../../../arm-none-eabi/lib/thumb/v7e-m+fp/hard/libc_nano.a(lib_a-isattyr.o)
                                                  /usr/lib/gcc/arm-none-eabi/9.2.1/../../../arm-none-eabi/lib/thumb/v7e-m+fp/hard/libc_nano.a(lib_a-makebuf.o)
_lseek                                            /usr/lib/gcc/arm-none-eabi/9.2.1/../../../arm-none-eabi/lib/thumb/v7e-m+fp/hard/libnosys.a(lseek.o)
                                                  /usr/lib/gcc/arm-none-eabi/9.2.1/../../../arm-none-eabi/lib/thumb/v7e-m+fp/hard/libc_nano.a(lib_a-lseekr.o)
_lseek_r                                          /usr/lib/gcc/arm-none-eabi/9.2.1/../../../arm-none-eabi/lib/thumb/v7e-m+fp/hard/libc_nano.a(lib_a-lseekr.o)
                                                  /usr/lib/gcc/arm-none-eabi/9.2.1/../../../arm-none-eabi/lib/thumb/v7e-m+fp/hard/libc_nano.a(lib_a-stdio.o)
_mainCRTStartup                                   /usr/lib/gcc/arm-none-eabi/9.2.1/../../../arm-none-eabi/lib/thumb/v7e-m+fp/hard/crt0.o
_malloc_r                                         /usr/lib/gcc/arm-none-eabi/9.2.1/../../../arm-none-eabi/lib/thumb/v7e-m+fp/hard/libc_nano.a(lib_a-nano-mallocr.o)
                                                  /usr/lib/gcc/arm-none-eabi/9.2.1/../../../arm-none-eabi/lib/thumb/v7e-m+fp/hard/libc_nano.a(lib_a-nano-reallocr.o)
                                                  /usr/lib/gcc/arm-none-eabi/9.2.1/../../../arm-none-eabi/lib/thumb/v7e-m+fp/hard/libc_nano.a(lib_a-fvwrite.o)
                                                  /usr/lib/gcc/arm-none-eabi/9.2.1/../../../arm-none-eabi/lib/thumb/v7e-m+fp/hard/libc_nano.a(lib_a-makebuf.o)
                                                  /usr/lib/gcc/arm-none-eabi/9.2.1/../../../arm-none-eabi/lib/thumb/v7e-m+fp/hard/libc_nano.a(lib_a-findfp.o)
_malloc_usable_size_r                             /usr/lib/gcc/arm-none-eabi/9.2.1/../../../arm-none-eabi/lib/thumb/v7e-m+fp/hard/libc_nano.a(lib_a-nano-msizer.o)
                                                  /usr/lib/gcc/arm-none-eabi/9.2.1/../../../arm-none-eabi/lib/thumb/v7e-m+fp/hard/libc_nano.a(lib_a-nano-reallocr.o)
_printf_common                                    /usr/lib/gcc/arm-none-eabi/9.2.1/../../../arm-none-eabi/lib/thumb/v7e-m+fp/hard/libc_nano.a(lib_a-nano-vfprintf_i.o)
_printf_float                                     /usr/lib/gcc/arm-none-eabi/9.2.1/../../../arm-none-eabi/lib/thumb/v7e-m+fp/hard/libc_nano.a(lib_a-nano-vfprintf.o)
_printf_i                                         /usr/lib/gcc/arm-none-eabi/9.2.1/../../../arm-none-eabi/lib/thumb/v7e-m+fp/hard/libc_nano.a(lib_a-nano-vfprintf_i.o)
                                                  /usr/lib/gcc/arm-none-eabi/9.2.1/../../../arm-none-eabi/lib/thumb/v7e-m+fp/hard/libc_nano.a(lib_a-nano-vfprintf.o)
_printf_r                                         /usr/lib/gcc/arm-none-eabi/9.2.1/../../../arm-none-eabi/lib/thumb/v7e-m+fp/hard/libc_nano.a(lib_a-printf.o)
_puts_r                                           /usr/lib/gcc/arm-none-eabi/9.2.1/../../../arm-none-eabi/lib/thumb/v7e-m+fp/hard/libc_nano.a(lib_a-puts.o)
_read                                             /usr/lib/gcc/arm-none-eabi/9.2.1/../../../arm-none-eabi/lib/thumb/v7e-m+fp/hard/libnosys.a(read.o)
                                                  /usr/lib/gcc/arm-none-eabi/9.2.1/../../../arm-none-eabi/lib/thumb/v7e-m+fp/hard/libc_nano.a(lib_a-readr.o)
_read_r                                           /usr/lib/gcc/arm-none-eabi/9.2.1/../../../arm-none-eabi/lib/thumb/v7e-m+fp/hard/libc_nano.a(lib_a-readr.o)
                                                  /usr/lib/gcc/arm-none-eabi/9.2.1/../../../arm-none-eabi/lib/thumb/v7e-m+fp/hard/libc_nano.a(lib_a-stdio.o)
_realloc_r                                        /usr/lib/gcc/arm-none-eabi/9.2.1/../../../arm-none-eabi/lib/thumb/v7e-m+fp/hard/libc_nano.a(lib_a-nano-reallocr.o)
                                                  /usr/lib/gcc/arm-none-eabi/9.2.1/../../../arm-none-eabi/lib/thumb/v7e-m+fp/hard/libc_nano.a(lib_a-fvwrite.o)
_reclaim_reent                                    /usr/lib/gcc/arm-none-eabi/9.2.1/../../../arm-none-eabi/lib/thumb/v7e-m+fp/hard/libc_nano.a(lib_a-reent.o)
_sbrk                                             /usr/lib/gcc/arm-none-eabi/9.2.1/../../../arm-none-eabi/lib/thumb/v7e-m+fp/hard/libnosys.a(sbrk.o)
                                                  /usr/lib/gcc/arm-none-eabi/9.2.1/../../../arm-none-eabi/lib/thumb/v7e-m+fp/hard/libc_nano.a(lib_a-sbrkr.o)
_sbrk_r                                           /usr/lib/gcc/arm-none-eabi/9.2.1/../../../arm-none-eabi/lib/thumb/v7e-m+fp/hard/libc_nano.a(lib_a-sbrkr.o)
                                                  /usr/lib/gcc/arm-none-eabi/9.2.1/../../../arm-none-eabi/lib/thumb/v7e-m+fp/hard/libc_nano.a(lib_a-nano-mallocr.o)
_sbss                                             build/startup_stm32f407xx.o
_sdata                                            build/startup_stm32f407xx.o
_sidata                                           build/startup_stm32f407xx.o
_stack_init                                       /usr/lib/gcc/arm-none-eabi/9.2.1/../../../arm-none-eabi/lib/thumb/v7e-m+fp/hard/crt0.o
_start                                            /usr/lib/gcc/arm-none-eabi/9.2.1/../../../arm-none-eabi/lib/thumb/v7e-m+fp/hard/crt0.o
_sys_exit                                         build/usart.o
_vfiprintf_r                                      /usr/lib/gcc/arm-none-eabi/9.2.1/../../../arm-none-eabi/lib/thumb/v7e-m+fp/hard/libc_nano.a(lib_a-nano-vfprintf.o)
_vfprintf_r                                       /usr/lib/gcc/arm-none-eabi/9.2.1/../../../arm-none-eabi/lib/thumb/v7e-m+fp/hard/libc_nano.a(lib_a-nano-vfprintf.o)
                                                  /usr/lib/gcc/arm-none-eabi/9.2.1/../../../arm-none-eabi/lib/thumb/v7e-m+fp/hard/libc_nano.a(lib_a-printf.o)
_write                                            /usr/lib/gcc/arm-none-eabi/9.2.1/../../../arm-none-eabi/lib/thumb/v7e-m+fp/hard/libnosys.a(write.o)
                                                  /usr/lib/gcc/arm-none-eabi/9.2.1/../../../arm-none-eabi/lib/thumb/v7e-m+fp/hard/libc_nano.a(lib_a-writer.o)
_write_r                                          /usr/lib/gcc/arm-none-eabi/9.2.1/../../../arm-none-eabi/lib/thumb/v7e-m+fp/hard/libc_nano.a(lib_a-writer.o)
                                                  /usr/lib/gcc/arm-none-eabi/9.2.1/../../../arm-none-eabi/lib/thumb/v7e-m+fp/hard/libc_nano.a(lib_a-stdio.o)
asc2_1206                                         build/gui.o
asc2_1608                                         build/gui.o
atexit                                            /usr/lib/gcc/arm-none-eabi/9.2.1/../../../arm-none-eabi/lib/thumb/v7e-m+fp/hard/libc_nano.a(lib_a-atexit.o)
                                                  /usr/lib/gcc/arm-none-eabi/9.2.1/../../../arm-none-eabi/lib/thumb/v7e-m+fp/hard/crt0.o
cleanup_glue                                      /usr/lib/gcc/arm-none-eabi/9.2.1/../../../arm-none-eabi/lib/thumb/v7e-m+fp/hard/libc_nano.a(lib_a-reent.o)
delay_init                                        build/delay.o
                                                  build/main.o
delay_ms                                          build/delay.o
                                                  build/test.o
                                                  build/rtp.o
                                                  build/lcd.o
                                                  build/key.o
                                                  build/GT911.o
                                                  build/ft5426.o
                                                  build/24c02.o
delay_us                                          build/delay.o
                                                  build/rtp.o
                                                  build/lcd.o
                                                  build/iic.o
                                                  build/GT911.o
                                                  build/ctpiic.o
delay_xms                                         build/delay.o
end                                               /usr/lib/gcc/arm-none-eabi/9.2.1/../../../arm-none-eabi/lib/thumb/v7e-m+fp/hard/libnosys.a(sbrk.o)
errno                                             /usr/lib/gcc/arm-none-eabi/9.2.1/../../../arm-none-eabi/lib/thumb/v7e-m+fp/hard/libc_nano.a(lib_a-reent.o)
                                                  /usr/lib/gcc/arm-none-eabi/9.2.1/../../../arm-none-eabi/lib/thumb/v7e-m+fp/hard/libnosys.a(write.o)
                                                  /usr/lib/gcc/arm-none-eabi/9.2.1/../../../arm-none-eabi/lib/thumb/v7e-m+fp/hard/libnosys.a(read.o)
                                                  /usr/lib/gcc/arm-none-eabi/9.2.1/../../../arm-none-eabi/lib/thumb/v7e-m+fp/hard/libnosys.a(lseek.o)
                                                  /usr/lib/gcc/arm-none-eabi/9.2.1/../../../arm-none-eabi/lib/thumb/v7e-m+fp/hard/libnosys.a(isatty.o)
                                                  /usr/lib/gcc/arm-none-eabi/9.2.1/../../../arm-none-eabi/lib/thumb/v7e-m+fp/hard/libnosys.a(fstat.o)
                                                  /usr/lib/gcc/arm-none-eabi/9.2.1/../../../arm-none-eabi/lib/thumb/v7e-m+fp/hard/libnosys.a(close.o)
                                                  /usr/lib/gcc/arm-none-eabi/9.2.1/../../../arm-none-eabi/lib/thumb/v7e-m+fp/hard/libc_nano.a(lib_a-readr.o)
                                                  /usr/lib/gcc/arm-none-eabi/9.2.1/../../../arm-none-eabi/lib/thumb/v7e-m+fp/hard/libc_nano.a(lib_a-lseekr.o)
                                                  /usr/lib/gcc/arm-none-eabi/9.2.1/../../../arm-none-eabi/lib/thumb/v7e-m+fp/hard/libc_nano.a(lib_a-isattyr.o)
                                                  /usr/lib/gcc/arm-none-eabi/9.2.1/../../../arm-none-eabi/lib/thumb/v7e-m+fp/hard/libc_nano.a(lib_a-fstatr.o)
                                                  /usr/lib/gcc/arm-none-eabi/9.2.1/../../../arm-none-eabi/lib/thumb/v7e-m+fp/hard/libc_nano.a(lib_a-closer.o)
                                                  /usr/lib/gcc/arm-none-eabi/9.2.1/../../../arm-none-eabi/lib/thumb/v7e-m+fp/hard/libc_nano.a(lib_a-writer.o)
                                                  /usr/lib/gcc/arm-none-eabi/9.2.1/../../../arm-none-eabi/lib/thumb/v7e-m+fp/hard/libc_nano.a(lib_a-sbrkr.o)
exit                                              /usr/lib/gcc/arm-none-eabi/9.2.1/../../../arm-none-eabi/lib/thumb/v7e-m+fp/hard/libc_nano.a(lib_a-exit.o)
                                                  /usr/lib/gcc/arm-none-eabi/9.2.1/../../../arm-none-eabi/lib/thumb/v7e-m+fp/hard/crt0.o
fflush                                            /usr/lib/gcc/arm-none-eabi/9.2.1/../../../arm-none-eabi/lib/thumb/v7e-m+fp/hard/libc_nano.a(lib_a-fflush.o)
fputc                                             build/usart.o
gImage_qq                                         build/test.o
g_pfnVectors                                      build/startup_stm32f407xx.o
gui_circle                                        build/gui.o
                                                  build/rtp.o
hardware_init_hook                                /usr/lib/gcc/arm-none-eabi/9.2.1/../../../arm-none-eabi/lib/thumb/v7e-m+fp/hard/crt0.o
iprintf                                           /usr/lib/gcc/arm-none-eabi/9.2.1/../../../arm-none-eabi/lib/thumb/v7e-m+fp/hard/libc_nano.a(lib_a-printf.o)
lcddev                                            build/lcd.o
                                                  build/test.o
                                                  build/rtp.o
                                                  build/gui.o
                                                  build/GT911.o
                                                  build/ft5426.o
main                                              build/main.o
                                                  build/startup_stm32f407xx.o
                                                  /usr/lib/gcc/arm-none-eabi/9.2.1/../../../arm-none-eabi/lib/thumb/v7e-m+fp/hard/crt0.o
malloc                                            /usr/lib/gcc/arm-none-eabi/9.2.1/../../../arm-none-eabi/lib/thumb/v7e-m+fp/hard/libc_nano.a(lib_a-__atexit.o)
memchr                                            /usr/lib/gcc/arm-none-eabi/9.2.1/../../../arm-none-eabi/lib/thumb/v7e-m+fp/hard/libc_nano.a(lib_a-memchr.o)
                                                  /usr/lib/gcc/arm-none-eabi/9.2.1/../../../arm-none-eabi/lib/thumb/v7e-m+fp/hard/libc_nano.a(lib_a-fvwrite.o)
                                                  /usr/lib/gcc/arm-none-eabi/9.2.1/../../../arm-none-eabi/lib/thumb/v7e-m+fp/hard/libc_nano.a(lib_a-nano-vfprintf_i.o)
                                                  /usr/lib/gcc/arm-none-eabi/9.2.1/../../../arm-none-eabi/lib/thumb/v7e-m+fp/hard/libc_nano.a(lib_a-nano-vfprintf.o)
memcpy                                            /usr/lib/gcc/arm-none-eabi/9.2.1/../../../arm-none-eabi/lib/thumb/v7e-m+fp/hard/libc_nano.a(lib_a-memcpy.o)
                                                  /usr/lib/gcc/arm-none-eabi/9.2.1/../../../arm-none-eabi/lib/thumb/v7e-m+fp/hard/libc_nano.a(lib_a-nano-reallocr.o)
                                                  /usr/lib/gcc/arm-none-eabi/9.2.1/../../../arm-none-eabi/lib/thumb/v7e-m+fp/hard/libc_nano.a(lib_a-fvwrite.o)
memmove                                           /usr/lib/gcc/arm-none-eabi/9.2.1/../../../arm-none-eabi/lib/thumb/v7e-m+fp/hard/libc_nano.a(lib_a-memmove.o)
                                                  /usr/lib/gcc/arm-none-eabi/9.2.1/../../../arm-none-eabi/lib/thumb/v7e-m+fp/hard/libc_nano.a(lib_a-fvwrite.o)
memset                                            /usr/lib/gcc/arm-none-eabi/9.2.1/../../../arm-none-eabi/lib/thumb/v7e-m+fp/hard/libc_nano.a(lib_a-memset.o)
                                                  /usr/lib/gcc/arm-none-eabi/9.2.1/../../../arm-none-eabi/lib/thumb/v7e-m+fp/hard/libc_nano.a(lib_a-findfp.o)
                                                  /usr/lib/gcc/arm-none-eabi/9.2.1/../../../arm-none-eabi/lib/thumb/v7e-m+fp/hard/crt0.o
mypow                                             build/gui.o
printf                                            /usr/lib/gcc/arm-none-eabi/9.2.1/../../../arm-none-eabi/lib/thumb/v7e-m+fp/hard/libc_nano.a(lib_a-printf.o)
                                                  build/lcd.o
                                                  build/main.o
puts                                              /usr/lib/gcc/arm-none-eabi/9.2.1/../../../arm-none-eabi/lib/thumb/v7e-m+fp/hard/libc_nano.a(lib_a-puts.o)
                                                  build/test.o
                                                  build/lcd.o
software_init_hook                                /usr/lib/gcc/arm-none-eabi/9.2.1/../../../arm-none-eabi/lib/thumb/v7e-m+fp/hard/crt0.o
sqrt                                              /usr/lib/gcc/arm-none-eabi/9.2.1/../../../arm-none-eabi/lib/thumb/v7e-m+fp/hard/libm.a(lib_a-w_sqrt.o)
                                                  build/rtp.o
strlen                                            /usr/lib/gcc/arm-none-eabi/9.2.1/../../../arm-none-eabi/lib/thumb/v7e-m+fp/hard/libc_nano.a(lib_a-strlen.o)
                                                  build/gui.o
tfont16                                           build/gui.o
tfont24                                           build/gui.o
tfont32                                           build/gui.o
touch_flag                                        build/exti.o
tp_dev                                            build/touch.o
                                                  build/test.o
                                                  build/rtp.o
                                                  build/GT911.o
                                                  build/ft5426.o
vfiprintf                                         /usr/lib/gcc/arm-none-eabi/9.2.1/../../../arm-none-eabi/lib/thumb/v7e-m+fp/hard/libc_nano.a(lib_a-nano-vfprintf.o)
vfprintf                                          /usr/lib/gcc/arm-none-eabi/9.2.1/../../../arm-none-eabi/lib/thumb/v7e-m+fp/hard/libc_nano.a(lib_a-nano-vfprintf.o)
