ARM GAS  C:\Users\savao\AppData\Local\Temp\ccRgpslf.s 			page 1


   1              		.cpu cortex-m4
   2              		.eabi_attribute 27, 1
   3              		.eabi_attribute 28, 1
   4              		.eabi_attribute 20, 1
   5              		.eabi_attribute 21, 1
   6              		.eabi_attribute 23, 3
   7              		.eabi_attribute 24, 1
   8              		.eabi_attribute 25, 1
   9              		.eabi_attribute 26, 1
  10              		.eabi_attribute 30, 1
  11              		.eabi_attribute 34, 1
  12              		.eabi_attribute 18, 4
  13              		.file	"exti.c"
  14              		.text
  15              	.Ltext0:
  16              		.cfi_sections	.debug_frame
  17              		.section	.text.EXTI0_IRQHandler,"ax",%progbits
  18              		.align	1
  19              		.global	EXTI0_IRQHandler
  20              		.arch armv7e-m
  21              		.syntax unified
  22              		.thumb
  23              		.thumb_func
  24              		.fpu fpv4-sp-d16
  26              	EXTI0_IRQHandler:
  27              	.LFB130:
  28              		.file 1 "Core/Src/exti.c"
   1:Core/Src/exti.c **** //////////////////////////////////////////////////////////////////////////////////	 
   2:Core/Src/exti.c **** //本程序只供学习使用，未经作者许可，不得用于其它商业用途
   3:Core/Src/exti.c **** //测试硬件：单片机STM32F407VGT6,STM32F407VxT6最小系统开发板,主频168MHZ，晶振8MHZ
   4:Core/Src/exti.c **** //QDtech-TFT液晶驱动 for STM32 FSMC
   5:Core/Src/exti.c **** //Chan@ShenZhen QDtech co.,LTD
   6:Core/Src/exti.c **** //公司网站:www.qdtft.com
   7:Core/Src/exti.c **** //wiki技术资料网站：http://www.lcdwiki.com
   8:Core/Src/exti.c **** //我司提供技术支持，任何技术问题欢迎随时交流学习
   9:Core/Src/exti.c **** //固话(传真) :+86 0755-21077707 
  10:Core/Src/exti.c **** //手机: (销售)18823372746 （技术)15989313508
  11:Core/Src/exti.c **** //邮箱:(销售/订单) sales@qdtft.com  (售后/技术服务)service@qdtft.com
  12:Core/Src/exti.c **** //QQ:(售前咨询)3002706772 (技术支持)3002778157
  13:Core/Src/exti.c **** //技术交流QQ群:778679828
  14:Core/Src/exti.c **** //创建日期:2020/06/29
  15:Core/Src/exti.c **** //版本：V1.0
  16:Core/Src/exti.c **** //版权所有，盗版必究。
  17:Core/Src/exti.c **** //Copyright(C) 深圳市全动电子技术有限公司 2018-2028
  18:Core/Src/exti.c **** //All rights reserved
  19:Core/Src/exti.c **** /************************************************************************************
  20:Core/Src/exti.c **** //STM32F407VxT6最小系统开发板独立看门狗示例
  21:Core/Src/exti.c **** //LED0   --->   PA1
  22:Core/Src/exti.c **** //LED1   --->   PC5
  23:Core/Src/exti.c **** //KEY0   --->   PE4
  24:Core/Src/exti.c **** //KEY_UP --->   PA0
  25:Core/Src/exti.c **** *************************************************************************************/	
  26:Core/Src/exti.c ****  /* @attention
  27:Core/Src/exti.c ****   *
  28:Core/Src/exti.c ****   * THE PRESENT FIRMWARE WHICH IS FOR GUIDANCE ONLY AIMS AT PROVIDING CUSTOMERS
  29:Core/Src/exti.c ****   * WITH CODING INFORMATION REGARDING THEIR PRODUCTS IN ORDER FOR THEM TO SAVE
  30:Core/Src/exti.c ****   * TIME. AS A RESULT, QD electronic SHALL NOT BE HELD LIABLE FOR ANY
ARM GAS  C:\Users\savao\AppData\Local\Temp\ccRgpslf.s 			page 2


  31:Core/Src/exti.c ****   * DIRECT, INDIRECT OR CONSEQUENTIAL DAMAGES WITH RESPECT TO ANY CLAIMS ARISING
  32:Core/Src/exti.c ****   * FROM THE CONTENT OF SUCH FIRMWARE AND/OR THE USE MADE BY CUSTOMERS OF THE
  33:Core/Src/exti.c ****   * CODING INFORMATION CONTAINED HEREIN IN CONNECTION WITH THEIR PRODUCTS.
  34:Core/Src/exti.c **** *************************************************************************************/
  35:Core/Src/exti.c **** #include "exti.h"
  36:Core/Src/exti.c **** #include "delay.h" 
  37:Core/Src/exti.c **** #include "led.h" 
  38:Core/Src/exti.c **** #include "key.h"
  39:Core/Src/exti.c **** #include "iwdg.h"
  40:Core/Src/exti.c **** 
  41:Core/Src/exti.c **** /*****************************************************************************
  42:Core/Src/exti.c ****  * @name       :void EXTI0_IRQHandler(void)
  43:Core/Src/exti.c ****  * @date       :2020-05-08 
  44:Core/Src/exti.c ****  * @function   :External interrupt 0 service routine
  45:Core/Src/exti.c ****  * @parameters :None
  46:Core/Src/exti.c ****  * @retvalue   :None
  47:Core/Src/exti.c **** ******************************************************************************/	 
  48:Core/Src/exti.c **** void EXTI0_IRQHandler(void)
  49:Core/Src/exti.c **** {
  29              		.loc 1 49 1 view -0
  30              		.cfi_startproc
  31              		@ args = 0, pretend = 0, frame = 0
  32              		@ frame_needed = 0, uses_anonymous_args = 0
  33 0000 08B5     		push	{r3, lr}
  34              	.LCFI0:
  35              		.cfi_def_cfa_offset 8
  36              		.cfi_offset 3, -8
  37              		.cfi_offset 14, -4
  50:Core/Src/exti.c **** 	delay_ms(10);	//消抖
  38              		.loc 1 50 2 view .LVU1
  39 0002 0A20     		movs	r0, #10
  40 0004 FFF7FEFF 		bl	delay_ms
  41              	.LVL0:
  51:Core/Src/exti.c **** 	if(KEY_UP_VALUE==1)	 
  42              		.loc 1 51 2 view .LVU2
  43              		.loc 1 51 5 is_stmt 0 view .LVU3
  44 0008 0121     		movs	r1, #1
  45 000a 0648     		ldr	r0, .L5
  46 000c FFF7FEFF 		bl	GPIO_ReadInputDataBit
  47              	.LVL1:
  48              		.loc 1 51 4 view .LVU4
  49 0010 0128     		cmp	r0, #1
  50 0012 03D0     		beq	.L4
  51              	.L2:
  52:Core/Src/exti.c **** 	{
  53:Core/Src/exti.c **** 		IWDG_Feed();
  54:Core/Src/exti.c **** 	}		 
  55:Core/Src/exti.c **** 	EXTI_ClearITPendingBit(EXTI_Line0); //清除LINE0上的中断标志位 
  52              		.loc 1 55 2 is_stmt 1 view .LVU5
  53 0014 0120     		movs	r0, #1
  54 0016 FFF7FEFF 		bl	EXTI_ClearITPendingBit
  55              	.LVL2:
  56:Core/Src/exti.c **** }	
  56              		.loc 1 56 1 is_stmt 0 view .LVU6
  57 001a 08BD     		pop	{r3, pc}
  58              	.L4:
  53:Core/Src/exti.c **** 	}		 
ARM GAS  C:\Users\savao\AppData\Local\Temp\ccRgpslf.s 			page 3


  59              		.loc 1 53 3 is_stmt 1 view .LVU7
  60 001c FFF7FEFF 		bl	IWDG_Feed
  61              	.LVL3:
  62 0020 F8E7     		b	.L2
  63              	.L6:
  64 0022 00BF     		.align	2
  65              	.L5:
  66 0024 00000240 		.word	1073872896
  67              		.cfi_endproc
  68              	.LFE130:
  70              		.section	.text.EXTI4_IRQHandler,"ax",%progbits
  71              		.align	1
  72              		.global	EXTI4_IRQHandler
  73              		.syntax unified
  74              		.thumb
  75              		.thumb_func
  76              		.fpu fpv4-sp-d16
  78              	EXTI4_IRQHandler:
  79              	.LFB131:
  57:Core/Src/exti.c **** 
  58:Core/Src/exti.c **** /*****************************************************************************
  59:Core/Src/exti.c ****  * @name       :void EXTI4_IRQHandler(void)
  60:Core/Src/exti.c ****  * @date       :2020-05-08 
  61:Core/Src/exti.c ****  * @function   :External interrupt 4 service routine
  62:Core/Src/exti.c ****  * @parameters :None
  63:Core/Src/exti.c ****  * @retvalue   :None
  64:Core/Src/exti.c **** ******************************************************************************/	
  65:Core/Src/exti.c **** void EXTI4_IRQHandler(void)
  66:Core/Src/exti.c **** {
  80              		.loc 1 66 1 view -0
  81              		.cfi_startproc
  82              		@ args = 0, pretend = 0, frame = 0
  83              		@ frame_needed = 0, uses_anonymous_args = 0
  84 0000 08B5     		push	{r3, lr}
  85              	.LCFI1:
  86              		.cfi_def_cfa_offset 8
  87              		.cfi_offset 3, -8
  88              		.cfi_offset 14, -4
  67:Core/Src/exti.c **** 	delay_ms(10);	//消抖
  89              		.loc 1 67 2 view .LVU9
  90 0002 0A20     		movs	r0, #10
  91 0004 FFF7FEFF 		bl	delay_ms
  92              	.LVL4:
  68:Core/Src/exti.c **** 	if(KEY0_VALUE==0)	 
  93              		.loc 1 68 2 view .LVU10
  94              		.loc 1 68 5 is_stmt 0 view .LVU11
  95 0008 1021     		movs	r1, #16
  96 000a 0848     		ldr	r0, .L10
  97 000c FFF7FEFF 		bl	GPIO_ReadInputDataBit
  98              	.LVL5:
  99              		.loc 1 68 4 view .LVU12
 100 0010 38B9     		cbnz	r0, .L8
  69:Core/Src/exti.c **** 	{				 
  70:Core/Src/exti.c **** 		LED0=!LED0;		
 101              		.loc 1 70 3 is_stmt 1 view .LVU13
 102              		.loc 1 70 9 is_stmt 0 view .LVU14
 103 0012 074A     		ldr	r2, .L10+4
ARM GAS  C:\Users\savao\AppData\Local\Temp\ccRgpslf.s 			page 4


 104 0014 D2F88432 		ldr	r3, [r2, #644]
 105              		.loc 1 70 8 view .LVU15
 106 0018 B3FA83F3 		clz	r3, r3
 107 001c 5B09     		lsrs	r3, r3, #5
 108              		.loc 1 70 7 view .LVU16
 109 001e C2F88432 		str	r3, [r2, #644]
 110              	.L8:
  71:Core/Src/exti.c **** 	}		 
  72:Core/Src/exti.c **** 	EXTI_ClearITPendingBit(EXTI_Line4);//清除LINE4上的中断标志位  
 111              		.loc 1 72 2 is_stmt 1 view .LVU17
 112 0022 1020     		movs	r0, #16
 113 0024 FFF7FEFF 		bl	EXTI_ClearITPendingBit
 114              	.LVL6:
  73:Core/Src/exti.c **** }
 115              		.loc 1 73 1 is_stmt 0 view .LVU18
 116 0028 08BD     		pop	{r3, pc}
 117              	.L11:
 118 002a 00BF     		.align	2
 119              	.L10:
 120 002c 00100240 		.word	1073876992
 121 0030 00004042 		.word	1111490560
 122              		.cfi_endproc
 123              	.LFE131:
 125              		.section	.text.EXTIX_Init,"ax",%progbits
 126              		.align	1
 127              		.global	EXTIX_Init
 128              		.syntax unified
 129              		.thumb
 130              		.thumb_func
 131              		.fpu fpv4-sp-d16
 133              	EXTIX_Init:
 134              	.LFB132:
  74:Core/Src/exti.c **** 
  75:Core/Src/exti.c **** /*****************************************************************************
  76:Core/Src/exti.c ****  * @name       :void EXTIX_Init(void)
  77:Core/Src/exti.c ****  * @date       :2020-05-08 
  78:Core/Src/exti.c ****  * @function   :External interrupt initializer
  79:Core/Src/exti.c ****  * @parameters :None
  80:Core/Src/exti.c ****  * @retvalue   :None
  81:Core/Src/exti.c **** ******************************************************************************/	   
  82:Core/Src/exti.c **** void EXTIX_Init(void)
  83:Core/Src/exti.c **** {
 135              		.loc 1 83 1 is_stmt 1 view -0
 136              		.cfi_startproc
 137              		@ args = 0, pretend = 0, frame = 16
 138              		@ frame_needed = 0, uses_anonymous_args = 0
 139 0000 30B5     		push	{r4, r5, lr}
 140              	.LCFI2:
 141              		.cfi_def_cfa_offset 12
 142              		.cfi_offset 4, -12
 143              		.cfi_offset 5, -8
 144              		.cfi_offset 14, -4
 145 0002 85B0     		sub	sp, sp, #20
 146              	.LCFI3:
 147              		.cfi_def_cfa_offset 32
  84:Core/Src/exti.c **** 	NVIC_InitTypeDef   NVIC_InitStructure;
 148              		.loc 1 84 2 view .LVU20
ARM GAS  C:\Users\savao\AppData\Local\Temp\ccRgpslf.s 			page 5


  85:Core/Src/exti.c **** 	EXTI_InitTypeDef   EXTI_InitStructure;
 149              		.loc 1 85 2 view .LVU21
  86:Core/Src/exti.c **** 	RCC_APB2PeriphClockCmd(RCC_APB2Periph_SYSCFG, ENABLE);//使能SYSCFG时钟
 150              		.loc 1 86 2 view .LVU22
 151 0004 0121     		movs	r1, #1
 152 0006 4FF48040 		mov	r0, #16384
 153 000a FFF7FEFF 		bl	RCC_APB2PeriphClockCmd
 154              	.LVL7:
  87:Core/Src/exti.c **** 
  88:Core/Src/exti.c **** 	SYSCFG_EXTILineConfig(EXTI_PortSourceGPIOE, EXTI_PinSource4);//PE4 连接到中断线4
 155              		.loc 1 88 2 view .LVU23
 156 000e 0421     		movs	r1, #4
 157 0010 0846     		mov	r0, r1
 158 0012 FFF7FEFF 		bl	SYSCFG_EXTILineConfig
 159              	.LVL8:
  89:Core/Src/exti.c **** 	SYSCFG_EXTILineConfig(EXTI_PortSourceGPIOA, EXTI_PinSource0);//PA0 连接到中断线0
 160              		.loc 1 89 2 view .LVU24
 161 0016 0021     		movs	r1, #0
 162 0018 0846     		mov	r0, r1
 163 001a FFF7FEFF 		bl	SYSCFG_EXTILineConfig
 164              	.LVL9:
  90:Core/Src/exti.c **** 
  91:Core/Src/exti.c **** 	//配置EXTI_Line0
  92:Core/Src/exti.c **** 	EXTI_InitStructure.EXTI_Line = EXTI_Line0;//LINE0
 165              		.loc 1 92 2 view .LVU25
 166              		.loc 1 92 31 is_stmt 0 view .LVU26
 167 001e 0124     		movs	r4, #1
 168 0020 0194     		str	r4, [sp, #4]
  93:Core/Src/exti.c **** 	EXTI_InitStructure.EXTI_Mode = EXTI_Mode_Interrupt;//中断事件
 169              		.loc 1 93 2 is_stmt 1 view .LVU27
 170              		.loc 1 93 31 is_stmt 0 view .LVU28
 171 0022 0025     		movs	r5, #0
 172 0024 8DF80850 		strb	r5, [sp, #8]
  94:Core/Src/exti.c **** 	EXTI_InitStructure.EXTI_Trigger = EXTI_Trigger_Rising; //上升沿触发 
 173              		.loc 1 94 2 is_stmt 1 view .LVU29
 174              		.loc 1 94 34 is_stmt 0 view .LVU30
 175 0028 0823     		movs	r3, #8
 176 002a 8DF80930 		strb	r3, [sp, #9]
  95:Core/Src/exti.c **** 	EXTI_InitStructure.EXTI_LineCmd = ENABLE;//使能LINE0
 177              		.loc 1 95 2 is_stmt 1 view .LVU31
 178              		.loc 1 95 34 is_stmt 0 view .LVU32
 179 002e 8DF80A40 		strb	r4, [sp, #10]
  96:Core/Src/exti.c **** 	EXTI_Init(&EXTI_InitStructure);//配置
 180              		.loc 1 96 2 is_stmt 1 view .LVU33
 181 0032 01A8     		add	r0, sp, #4
 182 0034 FFF7FEFF 		bl	EXTI_Init
 183              	.LVL10:
  97:Core/Src/exti.c **** 
  98:Core/Src/exti.c **** 	//配置EXTI_Line4
  99:Core/Src/exti.c **** 	EXTI_InitStructure.EXTI_Line = EXTI_Line4;
 184              		.loc 1 99 2 view .LVU34
 185              		.loc 1 99 31 is_stmt 0 view .LVU35
 186 0038 1023     		movs	r3, #16
 187 003a 0193     		str	r3, [sp, #4]
 100:Core/Src/exti.c **** 	EXTI_InitStructure.EXTI_Mode = EXTI_Mode_Interrupt;//中断事件
 188              		.loc 1 100 2 is_stmt 1 view .LVU36
 189              		.loc 1 100 31 is_stmt 0 view .LVU37
ARM GAS  C:\Users\savao\AppData\Local\Temp\ccRgpslf.s 			page 6


 190 003c 8DF80850 		strb	r5, [sp, #8]
 101:Core/Src/exti.c **** 	EXTI_InitStructure.EXTI_Trigger = EXTI_Trigger_Falling; //下降沿触发
 191              		.loc 1 101 2 is_stmt 1 view .LVU38
 192              		.loc 1 101 34 is_stmt 0 view .LVU39
 193 0040 0C23     		movs	r3, #12
 194 0042 8DF80930 		strb	r3, [sp, #9]
 102:Core/Src/exti.c **** 	EXTI_InitStructure.EXTI_LineCmd = ENABLE;//中断线使能
 195              		.loc 1 102 2 is_stmt 1 view .LVU40
 196              		.loc 1 102 34 is_stmt 0 view .LVU41
 197 0046 8DF80A40 		strb	r4, [sp, #10]
 103:Core/Src/exti.c **** 	EXTI_Init(&EXTI_InitStructure);//配置
 198              		.loc 1 103 2 is_stmt 1 view .LVU42
 199 004a 01A8     		add	r0, sp, #4
 200 004c FFF7FEFF 		bl	EXTI_Init
 201              	.LVL11:
 104:Core/Src/exti.c **** 
 105:Core/Src/exti.c **** 	NVIC_InitStructure.NVIC_IRQChannel = EXTI0_IRQn;//外部中断0
 202              		.loc 1 105 2 view .LVU43
 203              		.loc 1 105 37 is_stmt 0 view .LVU44
 204 0050 0623     		movs	r3, #6
 205 0052 8DF80C30 		strb	r3, [sp, #12]
 106:Core/Src/exti.c **** 	NVIC_InitStructure.NVIC_IRQChannelPreemptionPriority = 0x00;//抢占优先级0
 206              		.loc 1 106 2 is_stmt 1 view .LVU45
 207              		.loc 1 106 55 is_stmt 0 view .LVU46
 208 0056 8DF80D50 		strb	r5, [sp, #13]
 107:Core/Src/exti.c **** 	NVIC_InitStructure.NVIC_IRQChannelSubPriority = 0x02;//子优先级2
 209              		.loc 1 107 2 is_stmt 1 view .LVU47
 210              		.loc 1 107 48 is_stmt 0 view .LVU48
 211 005a 0225     		movs	r5, #2
 212 005c 8DF80E50 		strb	r5, [sp, #14]
 108:Core/Src/exti.c **** 	NVIC_InitStructure.NVIC_IRQChannelCmd = ENABLE;//使能外部中断通道
 213              		.loc 1 108 2 is_stmt 1 view .LVU49
 214              		.loc 1 108 40 is_stmt 0 view .LVU50
 215 0060 8DF80F40 		strb	r4, [sp, #15]
 109:Core/Src/exti.c **** 	NVIC_Init(&NVIC_InitStructure);//配置
 216              		.loc 1 109 2 is_stmt 1 view .LVU51
 217 0064 03A8     		add	r0, sp, #12
 218 0066 FFF7FEFF 		bl	NVIC_Init
 219              	.LVL12:
 110:Core/Src/exti.c **** 
 111:Core/Src/exti.c **** 	NVIC_InitStructure.NVIC_IRQChannel = EXTI4_IRQn;//外部中断4
 220              		.loc 1 111 2 view .LVU52
 221              		.loc 1 111 37 is_stmt 0 view .LVU53
 222 006a 0A23     		movs	r3, #10
 223 006c 8DF80C30 		strb	r3, [sp, #12]
 112:Core/Src/exti.c **** 	NVIC_InitStructure.NVIC_IRQChannelPreemptionPriority = 0x01;//抢占优先级1
 224              		.loc 1 112 2 is_stmt 1 view .LVU54
 225              		.loc 1 112 55 is_stmt 0 view .LVU55
 226 0070 8DF80D40 		strb	r4, [sp, #13]
 113:Core/Src/exti.c **** 	NVIC_InitStructure.NVIC_IRQChannelSubPriority = 0x02;//子优先级2
 227              		.loc 1 113 2 is_stmt 1 view .LVU56
 228              		.loc 1 113 48 is_stmt 0 view .LVU57
 229 0074 8DF80E50 		strb	r5, [sp, #14]
 114:Core/Src/exti.c **** 	NVIC_InitStructure.NVIC_IRQChannelCmd = ENABLE;//使能外部中断通道
 230              		.loc 1 114 2 is_stmt 1 view .LVU58
 231              		.loc 1 114 40 is_stmt 0 view .LVU59
 232 0078 8DF80F40 		strb	r4, [sp, #15]
ARM GAS  C:\Users\savao\AppData\Local\Temp\ccRgpslf.s 			page 7


 115:Core/Src/exti.c **** 	NVIC_Init(&NVIC_InitStructure);//配置 
 233              		.loc 1 115 2 is_stmt 1 view .LVU60
 234 007c 03A8     		add	r0, sp, #12
 235 007e FFF7FEFF 		bl	NVIC_Init
 236              	.LVL13:
 116:Core/Src/exti.c **** }
 237              		.loc 1 116 1 is_stmt 0 view .LVU61
 238 0082 05B0     		add	sp, sp, #20
 239              	.LCFI4:
 240              		.cfi_def_cfa_offset 12
 241              		@ sp needed
 242 0084 30BD     		pop	{r4, r5, pc}
 243              		.cfi_endproc
 244              	.LFE132:
 246              		.text
 247              	.Letext0:
 248              		.file 2 "c:\\program files (x86)\\gnu arm embedded toolchain\\10 2020-q4-major\\arm-none-eabi\\inc
 249              		.file 3 "c:\\program files (x86)\\gnu arm embedded toolchain\\10 2020-q4-major\\arm-none-eabi\\inc
 250              		.file 4 "Core/Inc/stm32f4xx.h"
 251              		.file 5 "Drivers/STM32F4xx_FWLIB/inc/stm32f4xx_exti.h"
 252              		.file 6 "Drivers/STM32F4xx_FWLIB/inc/misc.h"
 253              		.file 7 "Drivers/STM32F4xx_FWLIB/inc/stm32f4xx_rcc.h"
 254              		.file 8 "Drivers/STM32F4xx_FWLIB/inc/stm32f4xx_syscfg.h"
 255              		.file 9 "Core/Inc/delay.h"
 256              		.file 10 "Drivers/STM32F4xx_FWLIB/inc/stm32f4xx_gpio.h"
 257              		.file 11 "Core/Inc/iwdg.h"
ARM GAS  C:\Users\savao\AppData\Local\Temp\ccRgpslf.s 			page 8

